
HiPeristaltic.elf:     file format elf32-littlearm

Sections:
Idx Name          Size      VMA       LMA       File off  Algn
  0 .isr_vector   000000bc  08000000  08000000  00001000  2**0
                  CONTENTS, ALLOC, LOAD, READONLY, DATA
  1 .text         00009704  080000bc  080000bc  000010bc  2**2
                  CONTENTS, ALLOC, LOAD, READONLY, CODE
  2 .rodata       00000180  080097c0  080097c0  0000a7c0  2**2
                  CONTENTS, ALLOC, LOAD, READONLY, DATA
  3 .ARM.extab    00000000  08009940  08009940  0000b23c  2**0
                  CONTENTS, READONLY
  4 .ARM          00000008  08009940  08009940  0000a940  2**2
                  CONTENTS, ALLOC, LOAD, READONLY, DATA
  5 .preinit_array 00000000  08009948  08009948  0000b23c  2**0
                  CONTENTS, ALLOC, LOAD, DATA
  6 .init_array   00000004  08009948  08009948  0000a948  2**2
                  CONTENTS, ALLOC, LOAD, READONLY, DATA
  7 .fini_array   00000004  0800994c  0800994c  0000a94c  2**2
                  CONTENTS, ALLOC, LOAD, READONLY, DATA
  8 .data         0000023c  20000000  08009950  0000b000  2**2
                  CONTENTS, ALLOC, LOAD, DATA
  9 .bss          000021b0  2000023c  08009b8c  0000b23c  2**2
                  ALLOC
 10 ._user_heap_stack 00000604  200023ec  08009b8c  0000b3ec  2**0
                  ALLOC
 11 .ARM.attributes 00000028  00000000  00000000  0000b23c  2**0
                  CONTENTS, READONLY
 12 .comment      00000043  00000000  00000000  0000b264  2**0
                  CONTENTS, READONLY
 13 .debug_frame  000000f0  00000000  00000000  0000b2a8  2**2
                  CONTENTS, READONLY, DEBUGGING, OCTETS

Disassembly of section .text:

080000bc <__do_global_dtors_aux>:
 80000bc:	b510      	push	{r4, lr}
 80000be:	4c06      	ldr	r4, [pc, #24]	@ (80000d8 <__do_global_dtors_aux+0x1c>)
 80000c0:	7823      	ldrb	r3, [r4, #0]
 80000c2:	2b00      	cmp	r3, #0
 80000c4:	d107      	bne.n	80000d6 <__do_global_dtors_aux+0x1a>
 80000c6:	4b05      	ldr	r3, [pc, #20]	@ (80000dc <__do_global_dtors_aux+0x20>)
 80000c8:	2b00      	cmp	r3, #0
 80000ca:	d002      	beq.n	80000d2 <__do_global_dtors_aux+0x16>
 80000cc:	4804      	ldr	r0, [pc, #16]	@ (80000e0 <__do_global_dtors_aux+0x24>)
 80000ce:	e000      	b.n	80000d2 <__do_global_dtors_aux+0x16>
 80000d0:	bf00      	nop
 80000d2:	2301      	movs	r3, #1
 80000d4:	7023      	strb	r3, [r4, #0]
 80000d6:	bd10      	pop	{r4, pc}
 80000d8:	2000023c 	.word	0x2000023c
 80000dc:	00000000 	.word	0x00000000
 80000e0:	080097a8 	.word	0x080097a8

080000e4 <frame_dummy>:
 80000e4:	4b04      	ldr	r3, [pc, #16]	@ (80000f8 <frame_dummy+0x14>)
 80000e6:	b510      	push	{r4, lr}
 80000e8:	2b00      	cmp	r3, #0
 80000ea:	d003      	beq.n	80000f4 <frame_dummy+0x10>
 80000ec:	4903      	ldr	r1, [pc, #12]	@ (80000fc <frame_dummy+0x18>)
 80000ee:	4804      	ldr	r0, [pc, #16]	@ (8000100 <frame_dummy+0x1c>)
 80000f0:	e000      	b.n	80000f4 <frame_dummy+0x10>
 80000f2:	bf00      	nop
 80000f4:	bd10      	pop	{r4, pc}
 80000f6:	46c0      	nop			@ (mov r8, r8)
 80000f8:	00000000 	.word	0x00000000
 80000fc:	20000240 	.word	0x20000240
 8000100:	080097a8 	.word	0x080097a8

08000104 <strlen>:
 8000104:	2300      	movs	r3, #0
 8000106:	5cc2      	ldrb	r2, [r0, r3]
 8000108:	3301      	adds	r3, #1
 800010a:	2a00      	cmp	r2, #0
 800010c:	d1fb      	bne.n	8000106 <strlen+0x2>
 800010e:	1e58      	subs	r0, r3, #1
 8000110:	4770      	bx	lr
	...

08000114 <__udivsi3>:
 8000114:	2200      	movs	r2, #0
 8000116:	0843      	lsrs	r3, r0, #1
 8000118:	428b      	cmp	r3, r1
 800011a:	d374      	bcc.n	8000206 <__udivsi3+0xf2>
 800011c:	0903      	lsrs	r3, r0, #4
 800011e:	428b      	cmp	r3, r1
 8000120:	d35f      	bcc.n	80001e2 <__udivsi3+0xce>
 8000122:	0a03      	lsrs	r3, r0, #8
 8000124:	428b      	cmp	r3, r1
 8000126:	d344      	bcc.n	80001b2 <__udivsi3+0x9e>
 8000128:	0b03      	lsrs	r3, r0, #12
 800012a:	428b      	cmp	r3, r1
 800012c:	d328      	bcc.n	8000180 <__udivsi3+0x6c>
 800012e:	0c03      	lsrs	r3, r0, #16
 8000130:	428b      	cmp	r3, r1
 8000132:	d30d      	bcc.n	8000150 <__udivsi3+0x3c>
 8000134:	22ff      	movs	r2, #255	@ 0xff
 8000136:	0209      	lsls	r1, r1, #8
 8000138:	ba12      	rev	r2, r2
 800013a:	0c03      	lsrs	r3, r0, #16
 800013c:	428b      	cmp	r3, r1
 800013e:	d302      	bcc.n	8000146 <__udivsi3+0x32>
 8000140:	1212      	asrs	r2, r2, #8
 8000142:	0209      	lsls	r1, r1, #8
 8000144:	d065      	beq.n	8000212 <__udivsi3+0xfe>
 8000146:	0b03      	lsrs	r3, r0, #12
 8000148:	428b      	cmp	r3, r1
 800014a:	d319      	bcc.n	8000180 <__udivsi3+0x6c>
 800014c:	e000      	b.n	8000150 <__udivsi3+0x3c>
 800014e:	0a09      	lsrs	r1, r1, #8
 8000150:	0bc3      	lsrs	r3, r0, #15
 8000152:	428b      	cmp	r3, r1
 8000154:	d301      	bcc.n	800015a <__udivsi3+0x46>
 8000156:	03cb      	lsls	r3, r1, #15
 8000158:	1ac0      	subs	r0, r0, r3
 800015a:	4152      	adcs	r2, r2
 800015c:	0b83      	lsrs	r3, r0, #14
 800015e:	428b      	cmp	r3, r1
 8000160:	d301      	bcc.n	8000166 <__udivsi3+0x52>
 8000162:	038b      	lsls	r3, r1, #14
 8000164:	1ac0      	subs	r0, r0, r3
 8000166:	4152      	adcs	r2, r2
 8000168:	0b43      	lsrs	r3, r0, #13
 800016a:	428b      	cmp	r3, r1
 800016c:	d301      	bcc.n	8000172 <__udivsi3+0x5e>
 800016e:	034b      	lsls	r3, r1, #13
 8000170:	1ac0      	subs	r0, r0, r3
 8000172:	4152      	adcs	r2, r2
 8000174:	0b03      	lsrs	r3, r0, #12
 8000176:	428b      	cmp	r3, r1
 8000178:	d301      	bcc.n	800017e <__udivsi3+0x6a>
 800017a:	030b      	lsls	r3, r1, #12
 800017c:	1ac0      	subs	r0, r0, r3
 800017e:	4152      	adcs	r2, r2
 8000180:	0ac3      	lsrs	r3, r0, #11
 8000182:	428b      	cmp	r3, r1
 8000184:	d301      	bcc.n	800018a <__udivsi3+0x76>
 8000186:	02cb      	lsls	r3, r1, #11
 8000188:	1ac0      	subs	r0, r0, r3
 800018a:	4152      	adcs	r2, r2
 800018c:	0a83      	lsrs	r3, r0, #10
 800018e:	428b      	cmp	r3, r1
 8000190:	d301      	bcc.n	8000196 <__udivsi3+0x82>
 8000192:	028b      	lsls	r3, r1, #10
 8000194:	1ac0      	subs	r0, r0, r3
 8000196:	4152      	adcs	r2, r2
 8000198:	0a43      	lsrs	r3, r0, #9
 800019a:	428b      	cmp	r3, r1
 800019c:	d301      	bcc.n	80001a2 <__udivsi3+0x8e>
 800019e:	024b      	lsls	r3, r1, #9
 80001a0:	1ac0      	subs	r0, r0, r3
 80001a2:	4152      	adcs	r2, r2
 80001a4:	0a03      	lsrs	r3, r0, #8
 80001a6:	428b      	cmp	r3, r1
 80001a8:	d301      	bcc.n	80001ae <__udivsi3+0x9a>
 80001aa:	020b      	lsls	r3, r1, #8
 80001ac:	1ac0      	subs	r0, r0, r3
 80001ae:	4152      	adcs	r2, r2
 80001b0:	d2cd      	bcs.n	800014e <__udivsi3+0x3a>
 80001b2:	09c3      	lsrs	r3, r0, #7
 80001b4:	428b      	cmp	r3, r1
 80001b6:	d301      	bcc.n	80001bc <__udivsi3+0xa8>
 80001b8:	01cb      	lsls	r3, r1, #7
 80001ba:	1ac0      	subs	r0, r0, r3
 80001bc:	4152      	adcs	r2, r2
 80001be:	0983      	lsrs	r3, r0, #6
 80001c0:	428b      	cmp	r3, r1
 80001c2:	d301      	bcc.n	80001c8 <__udivsi3+0xb4>
 80001c4:	018b      	lsls	r3, r1, #6
 80001c6:	1ac0      	subs	r0, r0, r3
 80001c8:	4152      	adcs	r2, r2
 80001ca:	0943      	lsrs	r3, r0, #5
 80001cc:	428b      	cmp	r3, r1
 80001ce:	d301      	bcc.n	80001d4 <__udivsi3+0xc0>
 80001d0:	014b      	lsls	r3, r1, #5
 80001d2:	1ac0      	subs	r0, r0, r3
 80001d4:	4152      	adcs	r2, r2
 80001d6:	0903      	lsrs	r3, r0, #4
 80001d8:	428b      	cmp	r3, r1
 80001da:	d301      	bcc.n	80001e0 <__udivsi3+0xcc>
 80001dc:	010b      	lsls	r3, r1, #4
 80001de:	1ac0      	subs	r0, r0, r3
 80001e0:	4152      	adcs	r2, r2
 80001e2:	08c3      	lsrs	r3, r0, #3
 80001e4:	428b      	cmp	r3, r1
 80001e6:	d301      	bcc.n	80001ec <__udivsi3+0xd8>
 80001e8:	00cb      	lsls	r3, r1, #3
 80001ea:	1ac0      	subs	r0, r0, r3
 80001ec:	4152      	adcs	r2, r2
 80001ee:	0883      	lsrs	r3, r0, #2
 80001f0:	428b      	cmp	r3, r1
 80001f2:	d301      	bcc.n	80001f8 <__udivsi3+0xe4>
 80001f4:	008b      	lsls	r3, r1, #2
 80001f6:	1ac0      	subs	r0, r0, r3
 80001f8:	4152      	adcs	r2, r2
 80001fa:	0843      	lsrs	r3, r0, #1
 80001fc:	428b      	cmp	r3, r1
 80001fe:	d301      	bcc.n	8000204 <__udivsi3+0xf0>
 8000200:	004b      	lsls	r3, r1, #1
 8000202:	1ac0      	subs	r0, r0, r3
 8000204:	4152      	adcs	r2, r2
 8000206:	1a41      	subs	r1, r0, r1
 8000208:	d200      	bcs.n	800020c <__udivsi3+0xf8>
 800020a:	4601      	mov	r1, r0
 800020c:	4152      	adcs	r2, r2
 800020e:	4610      	mov	r0, r2
 8000210:	4770      	bx	lr
 8000212:	e7ff      	b.n	8000214 <__udivsi3+0x100>
 8000214:	b501      	push	{r0, lr}
 8000216:	2000      	movs	r0, #0
 8000218:	f000 f8f0 	bl	80003fc <__aeabi_idiv0>
 800021c:	bd02      	pop	{r1, pc}
 800021e:	46c0      	nop			@ (mov r8, r8)

08000220 <__aeabi_uidivmod>:
 8000220:	2900      	cmp	r1, #0
 8000222:	d0f7      	beq.n	8000214 <__udivsi3+0x100>
 8000224:	e776      	b.n	8000114 <__udivsi3>
 8000226:	4770      	bx	lr

08000228 <__divsi3>:
 8000228:	4603      	mov	r3, r0
 800022a:	430b      	orrs	r3, r1
 800022c:	d47f      	bmi.n	800032e <__divsi3+0x106>
 800022e:	2200      	movs	r2, #0
 8000230:	0843      	lsrs	r3, r0, #1
 8000232:	428b      	cmp	r3, r1
 8000234:	d374      	bcc.n	8000320 <__divsi3+0xf8>
 8000236:	0903      	lsrs	r3, r0, #4
 8000238:	428b      	cmp	r3, r1
 800023a:	d35f      	bcc.n	80002fc <__divsi3+0xd4>
 800023c:	0a03      	lsrs	r3, r0, #8
 800023e:	428b      	cmp	r3, r1
 8000240:	d344      	bcc.n	80002cc <__divsi3+0xa4>
 8000242:	0b03      	lsrs	r3, r0, #12
 8000244:	428b      	cmp	r3, r1
 8000246:	d328      	bcc.n	800029a <__divsi3+0x72>
 8000248:	0c03      	lsrs	r3, r0, #16
 800024a:	428b      	cmp	r3, r1
 800024c:	d30d      	bcc.n	800026a <__divsi3+0x42>
 800024e:	22ff      	movs	r2, #255	@ 0xff
 8000250:	0209      	lsls	r1, r1, #8
 8000252:	ba12      	rev	r2, r2
 8000254:	0c03      	lsrs	r3, r0, #16
 8000256:	428b      	cmp	r3, r1
 8000258:	d302      	bcc.n	8000260 <__divsi3+0x38>
 800025a:	1212      	asrs	r2, r2, #8
 800025c:	0209      	lsls	r1, r1, #8
 800025e:	d065      	beq.n	800032c <__divsi3+0x104>
 8000260:	0b03      	lsrs	r3, r0, #12
 8000262:	428b      	cmp	r3, r1
 8000264:	d319      	bcc.n	800029a <__divsi3+0x72>
 8000266:	e000      	b.n	800026a <__divsi3+0x42>
 8000268:	0a09      	lsrs	r1, r1, #8
 800026a:	0bc3      	lsrs	r3, r0, #15
 800026c:	428b      	cmp	r3, r1
 800026e:	d301      	bcc.n	8000274 <__divsi3+0x4c>
 8000270:	03cb      	lsls	r3, r1, #15
 8000272:	1ac0      	subs	r0, r0, r3
 8000274:	4152      	adcs	r2, r2
 8000276:	0b83      	lsrs	r3, r0, #14
 8000278:	428b      	cmp	r3, r1
 800027a:	d301      	bcc.n	8000280 <__divsi3+0x58>
 800027c:	038b      	lsls	r3, r1, #14
 800027e:	1ac0      	subs	r0, r0, r3
 8000280:	4152      	adcs	r2, r2
 8000282:	0b43      	lsrs	r3, r0, #13
 8000284:	428b      	cmp	r3, r1
 8000286:	d301      	bcc.n	800028c <__divsi3+0x64>
 8000288:	034b      	lsls	r3, r1, #13
 800028a:	1ac0      	subs	r0, r0, r3
 800028c:	4152      	adcs	r2, r2
 800028e:	0b03      	lsrs	r3, r0, #12
 8000290:	428b      	cmp	r3, r1
 8000292:	d301      	bcc.n	8000298 <__divsi3+0x70>
 8000294:	030b      	lsls	r3, r1, #12
 8000296:	1ac0      	subs	r0, r0, r3
 8000298:	4152      	adcs	r2, r2
 800029a:	0ac3      	lsrs	r3, r0, #11
 800029c:	428b      	cmp	r3, r1
 800029e:	d301      	bcc.n	80002a4 <__divsi3+0x7c>
 80002a0:	02cb      	lsls	r3, r1, #11
 80002a2:	1ac0      	subs	r0, r0, r3
 80002a4:	4152      	adcs	r2, r2
 80002a6:	0a83      	lsrs	r3, r0, #10
 80002a8:	428b      	cmp	r3, r1
 80002aa:	d301      	bcc.n	80002b0 <__divsi3+0x88>
 80002ac:	028b      	lsls	r3, r1, #10
 80002ae:	1ac0      	subs	r0, r0, r3
 80002b0:	4152      	adcs	r2, r2
 80002b2:	0a43      	lsrs	r3, r0, #9
 80002b4:	428b      	cmp	r3, r1
 80002b6:	d301      	bcc.n	80002bc <__divsi3+0x94>
 80002b8:	024b      	lsls	r3, r1, #9
 80002ba:	1ac0      	subs	r0, r0, r3
 80002bc:	4152      	adcs	r2, r2
 80002be:	0a03      	lsrs	r3, r0, #8
 80002c0:	428b      	cmp	r3, r1
 80002c2:	d301      	bcc.n	80002c8 <__divsi3+0xa0>
 80002c4:	020b      	lsls	r3, r1, #8
 80002c6:	1ac0      	subs	r0, r0, r3
 80002c8:	4152      	adcs	r2, r2
 80002ca:	d2cd      	bcs.n	8000268 <__divsi3+0x40>
 80002cc:	09c3      	lsrs	r3, r0, #7
 80002ce:	428b      	cmp	r3, r1
 80002d0:	d301      	bcc.n	80002d6 <__divsi3+0xae>
 80002d2:	01cb      	lsls	r3, r1, #7
 80002d4:	1ac0      	subs	r0, r0, r3
 80002d6:	4152      	adcs	r2, r2
 80002d8:	0983      	lsrs	r3, r0, #6
 80002da:	428b      	cmp	r3, r1
 80002dc:	d301      	bcc.n	80002e2 <__divsi3+0xba>
 80002de:	018b      	lsls	r3, r1, #6
 80002e0:	1ac0      	subs	r0, r0, r3
 80002e2:	4152      	adcs	r2, r2
 80002e4:	0943      	lsrs	r3, r0, #5
 80002e6:	428b      	cmp	r3, r1
 80002e8:	d301      	bcc.n	80002ee <__divsi3+0xc6>
 80002ea:	014b      	lsls	r3, r1, #5
 80002ec:	1ac0      	subs	r0, r0, r3
 80002ee:	4152      	adcs	r2, r2
 80002f0:	0903      	lsrs	r3, r0, #4
 80002f2:	428b      	cmp	r3, r1
 80002f4:	d301      	bcc.n	80002fa <__divsi3+0xd2>
 80002f6:	010b      	lsls	r3, r1, #4
 80002f8:	1ac0      	subs	r0, r0, r3
 80002fa:	4152      	adcs	r2, r2
 80002fc:	08c3      	lsrs	r3, r0, #3
 80002fe:	428b      	cmp	r3, r1
 8000300:	d301      	bcc.n	8000306 <__divsi3+0xde>
 8000302:	00cb      	lsls	r3, r1, #3
 8000304:	1ac0      	subs	r0, r0, r3
 8000306:	4152      	adcs	r2, r2
 8000308:	0883      	lsrs	r3, r0, #2
 800030a:	428b      	cmp	r3, r1
 800030c:	d301      	bcc.n	8000312 <__divsi3+0xea>
 800030e:	008b      	lsls	r3, r1, #2
 8000310:	1ac0      	subs	r0, r0, r3
 8000312:	4152      	adcs	r2, r2
 8000314:	0843      	lsrs	r3, r0, #1
 8000316:	428b      	cmp	r3, r1
 8000318:	d301      	bcc.n	800031e <__divsi3+0xf6>
 800031a:	004b      	lsls	r3, r1, #1
 800031c:	1ac0      	subs	r0, r0, r3
 800031e:	4152      	adcs	r2, r2
 8000320:	1a41      	subs	r1, r0, r1
 8000322:	d200      	bcs.n	8000326 <__divsi3+0xfe>
 8000324:	4601      	mov	r1, r0
 8000326:	4152      	adcs	r2, r2
 8000328:	4610      	mov	r0, r2
 800032a:	4770      	bx	lr
 800032c:	e05d      	b.n	80003ea <__divsi3+0x1c2>
 800032e:	0fca      	lsrs	r2, r1, #31
 8000330:	d000      	beq.n	8000334 <__divsi3+0x10c>
 8000332:	4249      	negs	r1, r1
 8000334:	1003      	asrs	r3, r0, #32
 8000336:	d300      	bcc.n	800033a <__divsi3+0x112>
 8000338:	4240      	negs	r0, r0
 800033a:	4053      	eors	r3, r2
 800033c:	2200      	movs	r2, #0
 800033e:	469c      	mov	ip, r3
 8000340:	0903      	lsrs	r3, r0, #4
 8000342:	428b      	cmp	r3, r1
 8000344:	d32d      	bcc.n	80003a2 <__divsi3+0x17a>
 8000346:	0a03      	lsrs	r3, r0, #8
 8000348:	428b      	cmp	r3, r1
 800034a:	d312      	bcc.n	8000372 <__divsi3+0x14a>
 800034c:	22fc      	movs	r2, #252	@ 0xfc
 800034e:	0189      	lsls	r1, r1, #6
 8000350:	ba12      	rev	r2, r2
 8000352:	0a03      	lsrs	r3, r0, #8
 8000354:	428b      	cmp	r3, r1
 8000356:	d30c      	bcc.n	8000372 <__divsi3+0x14a>
 8000358:	0189      	lsls	r1, r1, #6
 800035a:	1192      	asrs	r2, r2, #6
 800035c:	428b      	cmp	r3, r1
 800035e:	d308      	bcc.n	8000372 <__divsi3+0x14a>
 8000360:	0189      	lsls	r1, r1, #6
 8000362:	1192      	asrs	r2, r2, #6
 8000364:	428b      	cmp	r3, r1
 8000366:	d304      	bcc.n	8000372 <__divsi3+0x14a>
 8000368:	0189      	lsls	r1, r1, #6
 800036a:	d03a      	beq.n	80003e2 <__divsi3+0x1ba>
 800036c:	1192      	asrs	r2, r2, #6
 800036e:	e000      	b.n	8000372 <__divsi3+0x14a>
 8000370:	0989      	lsrs	r1, r1, #6
 8000372:	09c3      	lsrs	r3, r0, #7
 8000374:	428b      	cmp	r3, r1
 8000376:	d301      	bcc.n	800037c <__divsi3+0x154>
 8000378:	01cb      	lsls	r3, r1, #7
 800037a:	1ac0      	subs	r0, r0, r3
 800037c:	4152      	adcs	r2, r2
 800037e:	0983      	lsrs	r3, r0, #6
 8000380:	428b      	cmp	r3, r1
 8000382:	d301      	bcc.n	8000388 <__divsi3+0x160>
 8000384:	018b      	lsls	r3, r1, #6
 8000386:	1ac0      	subs	r0, r0, r3
 8000388:	4152      	adcs	r2, r2
 800038a:	0943      	lsrs	r3, r0, #5
 800038c:	428b      	cmp	r3, r1
 800038e:	d301      	bcc.n	8000394 <__divsi3+0x16c>
 8000390:	014b      	lsls	r3, r1, #5
 8000392:	1ac0      	subs	r0, r0, r3
 8000394:	4152      	adcs	r2, r2
 8000396:	0903      	lsrs	r3, r0, #4
 8000398:	428b      	cmp	r3, r1
 800039a:	d301      	bcc.n	80003a0 <__divsi3+0x178>
 800039c:	010b      	lsls	r3, r1, #4
 800039e:	1ac0      	subs	r0, r0, r3
 80003a0:	4152      	adcs	r2, r2
 80003a2:	08c3      	lsrs	r3, r0, #3
 80003a4:	428b      	cmp	r3, r1
 80003a6:	d301      	bcc.n	80003ac <__divsi3+0x184>
 80003a8:	00cb      	lsls	r3, r1, #3
 80003aa:	1ac0      	subs	r0, r0, r3
 80003ac:	4152      	adcs	r2, r2
 80003ae:	0883      	lsrs	r3, r0, #2
 80003b0:	428b      	cmp	r3, r1
 80003b2:	d301      	bcc.n	80003b8 <__divsi3+0x190>
 80003b4:	008b      	lsls	r3, r1, #2
 80003b6:	1ac0      	subs	r0, r0, r3
 80003b8:	4152      	adcs	r2, r2
 80003ba:	d2d9      	bcs.n	8000370 <__divsi3+0x148>
 80003bc:	0843      	lsrs	r3, r0, #1
 80003be:	428b      	cmp	r3, r1
 80003c0:	d301      	bcc.n	80003c6 <__divsi3+0x19e>
 80003c2:	004b      	lsls	r3, r1, #1
 80003c4:	1ac0      	subs	r0, r0, r3
 80003c6:	4152      	adcs	r2, r2
 80003c8:	1a41      	subs	r1, r0, r1
 80003ca:	d200      	bcs.n	80003ce <__divsi3+0x1a6>
 80003cc:	4601      	mov	r1, r0
 80003ce:	4663      	mov	r3, ip
 80003d0:	4152      	adcs	r2, r2
 80003d2:	105b      	asrs	r3, r3, #1
 80003d4:	4610      	mov	r0, r2
 80003d6:	d301      	bcc.n	80003dc <__divsi3+0x1b4>
 80003d8:	4240      	negs	r0, r0
 80003da:	2b00      	cmp	r3, #0
 80003dc:	d500      	bpl.n	80003e0 <__divsi3+0x1b8>
 80003de:	4249      	negs	r1, r1
 80003e0:	4770      	bx	lr
 80003e2:	4663      	mov	r3, ip
 80003e4:	105b      	asrs	r3, r3, #1
 80003e6:	d300      	bcc.n	80003ea <__divsi3+0x1c2>
 80003e8:	4240      	negs	r0, r0
 80003ea:	b501      	push	{r0, lr}
 80003ec:	2000      	movs	r0, #0
 80003ee:	f000 f805 	bl	80003fc <__aeabi_idiv0>
 80003f2:	bd02      	pop	{r1, pc}

080003f4 <__aeabi_idivmod>:
 80003f4:	2900      	cmp	r1, #0
 80003f6:	d0f8      	beq.n	80003ea <__divsi3+0x1c2>
 80003f8:	e716      	b.n	8000228 <__divsi3>
 80003fa:	4770      	bx	lr

080003fc <__aeabi_idiv0>:
 80003fc:	4770      	bx	lr
 80003fe:	46c0      	nop			@ (mov r8, r8)

08000400 <__aeabi_uldivmod>:
 8000400:	2b00      	cmp	r3, #0
 8000402:	d111      	bne.n	8000428 <__aeabi_uldivmod+0x28>
 8000404:	2a00      	cmp	r2, #0
 8000406:	d10f      	bne.n	8000428 <__aeabi_uldivmod+0x28>
 8000408:	2900      	cmp	r1, #0
 800040a:	d100      	bne.n	800040e <__aeabi_uldivmod+0xe>
 800040c:	2800      	cmp	r0, #0
 800040e:	d002      	beq.n	8000416 <__aeabi_uldivmod+0x16>
 8000410:	2100      	movs	r1, #0
 8000412:	43c9      	mvns	r1, r1
 8000414:	0008      	movs	r0, r1
 8000416:	b407      	push	{r0, r1, r2}
 8000418:	4802      	ldr	r0, [pc, #8]	@ (8000424 <__aeabi_uldivmod+0x24>)
 800041a:	a102      	add	r1, pc, #8	@ (adr r1, 8000424 <__aeabi_uldivmod+0x24>)
 800041c:	1840      	adds	r0, r0, r1
 800041e:	9002      	str	r0, [sp, #8]
 8000420:	bd03      	pop	{r0, r1, pc}
 8000422:	46c0      	nop			@ (mov r8, r8)
 8000424:	ffffffd9 	.word	0xffffffd9
 8000428:	b403      	push	{r0, r1}
 800042a:	4668      	mov	r0, sp
 800042c:	b501      	push	{r0, lr}
 800042e:	9802      	ldr	r0, [sp, #8]
 8000430:	f000 f806 	bl	8000440 <__udivmoddi4>
 8000434:	9b01      	ldr	r3, [sp, #4]
 8000436:	469e      	mov	lr, r3
 8000438:	b002      	add	sp, #8
 800043a:	bc0c      	pop	{r2, r3}
 800043c:	4770      	bx	lr
 800043e:	46c0      	nop			@ (mov r8, r8)

08000440 <__udivmoddi4>:
 8000440:	b5f0      	push	{r4, r5, r6, r7, lr}
 8000442:	4657      	mov	r7, sl
 8000444:	464e      	mov	r6, r9
 8000446:	4645      	mov	r5, r8
 8000448:	46de      	mov	lr, fp
 800044a:	b5e0      	push	{r5, r6, r7, lr}
 800044c:	0004      	movs	r4, r0
 800044e:	000d      	movs	r5, r1
 8000450:	4692      	mov	sl, r2
 8000452:	4699      	mov	r9, r3
 8000454:	b083      	sub	sp, #12
 8000456:	428b      	cmp	r3, r1
 8000458:	d830      	bhi.n	80004bc <__udivmoddi4+0x7c>
 800045a:	d02d      	beq.n	80004b8 <__udivmoddi4+0x78>
 800045c:	4649      	mov	r1, r9
 800045e:	4650      	mov	r0, sl
 8000460:	f000 f8ba 	bl	80005d8 <__clzdi2>
 8000464:	0029      	movs	r1, r5
 8000466:	0006      	movs	r6, r0
 8000468:	0020      	movs	r0, r4
 800046a:	f000 f8b5 	bl	80005d8 <__clzdi2>
 800046e:	1a33      	subs	r3, r6, r0
 8000470:	4698      	mov	r8, r3
 8000472:	3b20      	subs	r3, #32
 8000474:	d434      	bmi.n	80004e0 <__udivmoddi4+0xa0>
 8000476:	469b      	mov	fp, r3
 8000478:	4653      	mov	r3, sl
 800047a:	465a      	mov	r2, fp
 800047c:	4093      	lsls	r3, r2
 800047e:	4642      	mov	r2, r8
 8000480:	001f      	movs	r7, r3
 8000482:	4653      	mov	r3, sl
 8000484:	4093      	lsls	r3, r2
 8000486:	001e      	movs	r6, r3
 8000488:	42af      	cmp	r7, r5
 800048a:	d83b      	bhi.n	8000504 <__udivmoddi4+0xc4>
 800048c:	42af      	cmp	r7, r5
 800048e:	d100      	bne.n	8000492 <__udivmoddi4+0x52>
 8000490:	e079      	b.n	8000586 <__udivmoddi4+0x146>
 8000492:	465b      	mov	r3, fp
 8000494:	1ba4      	subs	r4, r4, r6
 8000496:	41bd      	sbcs	r5, r7
 8000498:	2b00      	cmp	r3, #0
 800049a:	da00      	bge.n	800049e <__udivmoddi4+0x5e>
 800049c:	e076      	b.n	800058c <__udivmoddi4+0x14c>
 800049e:	2200      	movs	r2, #0
 80004a0:	2300      	movs	r3, #0
 80004a2:	9200      	str	r2, [sp, #0]
 80004a4:	9301      	str	r3, [sp, #4]
 80004a6:	2301      	movs	r3, #1
 80004a8:	465a      	mov	r2, fp
 80004aa:	4093      	lsls	r3, r2
 80004ac:	9301      	str	r3, [sp, #4]
 80004ae:	2301      	movs	r3, #1
 80004b0:	4642      	mov	r2, r8
 80004b2:	4093      	lsls	r3, r2
 80004b4:	9300      	str	r3, [sp, #0]
 80004b6:	e029      	b.n	800050c <__udivmoddi4+0xcc>
 80004b8:	4282      	cmp	r2, r0
 80004ba:	d9cf      	bls.n	800045c <__udivmoddi4+0x1c>
 80004bc:	2200      	movs	r2, #0
 80004be:	2300      	movs	r3, #0
 80004c0:	9200      	str	r2, [sp, #0]
 80004c2:	9301      	str	r3, [sp, #4]
 80004c4:	9b0c      	ldr	r3, [sp, #48]	@ 0x30
 80004c6:	2b00      	cmp	r3, #0
 80004c8:	d001      	beq.n	80004ce <__udivmoddi4+0x8e>
 80004ca:	601c      	str	r4, [r3, #0]
 80004cc:	605d      	str	r5, [r3, #4]
 80004ce:	9800      	ldr	r0, [sp, #0]
 80004d0:	9901      	ldr	r1, [sp, #4]
 80004d2:	b003      	add	sp, #12
 80004d4:	bcf0      	pop	{r4, r5, r6, r7}
 80004d6:	46bb      	mov	fp, r7
 80004d8:	46b2      	mov	sl, r6
 80004da:	46a9      	mov	r9, r5
 80004dc:	46a0      	mov	r8, r4
 80004de:	bdf0      	pop	{r4, r5, r6, r7, pc}
 80004e0:	4642      	mov	r2, r8
 80004e2:	469b      	mov	fp, r3
 80004e4:	2320      	movs	r3, #32
 80004e6:	1a9b      	subs	r3, r3, r2
 80004e8:	4652      	mov	r2, sl
 80004ea:	40da      	lsrs	r2, r3
 80004ec:	4641      	mov	r1, r8
 80004ee:	0013      	movs	r3, r2
 80004f0:	464a      	mov	r2, r9
 80004f2:	408a      	lsls	r2, r1
 80004f4:	0017      	movs	r7, r2
 80004f6:	4642      	mov	r2, r8
 80004f8:	431f      	orrs	r7, r3
 80004fa:	4653      	mov	r3, sl
 80004fc:	4093      	lsls	r3, r2
 80004fe:	001e      	movs	r6, r3
 8000500:	42af      	cmp	r7, r5
 8000502:	d9c3      	bls.n	800048c <__udivmoddi4+0x4c>
 8000504:	2200      	movs	r2, #0
 8000506:	2300      	movs	r3, #0
 8000508:	9200      	str	r2, [sp, #0]
 800050a:	9301      	str	r3, [sp, #4]
 800050c:	4643      	mov	r3, r8
 800050e:	2b00      	cmp	r3, #0
 8000510:	d0d8      	beq.n	80004c4 <__udivmoddi4+0x84>
 8000512:	07fb      	lsls	r3, r7, #31
 8000514:	0872      	lsrs	r2, r6, #1
 8000516:	431a      	orrs	r2, r3
 8000518:	4646      	mov	r6, r8
 800051a:	087b      	lsrs	r3, r7, #1
 800051c:	e00e      	b.n	800053c <__udivmoddi4+0xfc>
 800051e:	42ab      	cmp	r3, r5
 8000520:	d101      	bne.n	8000526 <__udivmoddi4+0xe6>
 8000522:	42a2      	cmp	r2, r4
 8000524:	d80c      	bhi.n	8000540 <__udivmoddi4+0x100>
 8000526:	1aa4      	subs	r4, r4, r2
 8000528:	419d      	sbcs	r5, r3
 800052a:	2001      	movs	r0, #1
 800052c:	1924      	adds	r4, r4, r4
 800052e:	416d      	adcs	r5, r5
 8000530:	2100      	movs	r1, #0
 8000532:	3e01      	subs	r6, #1
 8000534:	1824      	adds	r4, r4, r0
 8000536:	414d      	adcs	r5, r1
 8000538:	2e00      	cmp	r6, #0
 800053a:	d006      	beq.n	800054a <__udivmoddi4+0x10a>
 800053c:	42ab      	cmp	r3, r5
 800053e:	d9ee      	bls.n	800051e <__udivmoddi4+0xde>
 8000540:	3e01      	subs	r6, #1
 8000542:	1924      	adds	r4, r4, r4
 8000544:	416d      	adcs	r5, r5
 8000546:	2e00      	cmp	r6, #0
 8000548:	d1f8      	bne.n	800053c <__udivmoddi4+0xfc>
 800054a:	9800      	ldr	r0, [sp, #0]
 800054c:	9901      	ldr	r1, [sp, #4]
 800054e:	465b      	mov	r3, fp
 8000550:	1900      	adds	r0, r0, r4
 8000552:	4169      	adcs	r1, r5
 8000554:	2b00      	cmp	r3, #0
 8000556:	db24      	blt.n	80005a2 <__udivmoddi4+0x162>
 8000558:	002b      	movs	r3, r5
 800055a:	465a      	mov	r2, fp
 800055c:	4644      	mov	r4, r8
 800055e:	40d3      	lsrs	r3, r2
 8000560:	002a      	movs	r2, r5
 8000562:	40e2      	lsrs	r2, r4
 8000564:	001c      	movs	r4, r3
 8000566:	465b      	mov	r3, fp
 8000568:	0015      	movs	r5, r2
 800056a:	2b00      	cmp	r3, #0
 800056c:	db2a      	blt.n	80005c4 <__udivmoddi4+0x184>
 800056e:	0026      	movs	r6, r4
 8000570:	409e      	lsls	r6, r3
 8000572:	0033      	movs	r3, r6
 8000574:	0026      	movs	r6, r4
 8000576:	4647      	mov	r7, r8
 8000578:	40be      	lsls	r6, r7
 800057a:	0032      	movs	r2, r6
 800057c:	1a80      	subs	r0, r0, r2
 800057e:	4199      	sbcs	r1, r3
 8000580:	9000      	str	r0, [sp, #0]
 8000582:	9101      	str	r1, [sp, #4]
 8000584:	e79e      	b.n	80004c4 <__udivmoddi4+0x84>
 8000586:	42a3      	cmp	r3, r4
 8000588:	d8bc      	bhi.n	8000504 <__udivmoddi4+0xc4>
 800058a:	e782      	b.n	8000492 <__udivmoddi4+0x52>
 800058c:	4642      	mov	r2, r8
 800058e:	2320      	movs	r3, #32
 8000590:	2100      	movs	r1, #0
 8000592:	1a9b      	subs	r3, r3, r2
 8000594:	2200      	movs	r2, #0
 8000596:	9100      	str	r1, [sp, #0]
 8000598:	9201      	str	r2, [sp, #4]
 800059a:	2201      	movs	r2, #1
 800059c:	40da      	lsrs	r2, r3
 800059e:	9201      	str	r2, [sp, #4]
 80005a0:	e785      	b.n	80004ae <__udivmoddi4+0x6e>
 80005a2:	4642      	mov	r2, r8
 80005a4:	2320      	movs	r3, #32
 80005a6:	1a9b      	subs	r3, r3, r2
 80005a8:	002a      	movs	r2, r5
 80005aa:	4646      	mov	r6, r8
 80005ac:	409a      	lsls	r2, r3
 80005ae:	0023      	movs	r3, r4
 80005b0:	40f3      	lsrs	r3, r6
 80005b2:	4644      	mov	r4, r8
 80005b4:	4313      	orrs	r3, r2
 80005b6:	002a      	movs	r2, r5
 80005b8:	40e2      	lsrs	r2, r4
 80005ba:	001c      	movs	r4, r3
 80005bc:	465b      	mov	r3, fp
 80005be:	0015      	movs	r5, r2
 80005c0:	2b00      	cmp	r3, #0
 80005c2:	dad4      	bge.n	800056e <__udivmoddi4+0x12e>
 80005c4:	4642      	mov	r2, r8
 80005c6:	002f      	movs	r7, r5
 80005c8:	2320      	movs	r3, #32
 80005ca:	0026      	movs	r6, r4
 80005cc:	4097      	lsls	r7, r2
 80005ce:	1a9b      	subs	r3, r3, r2
 80005d0:	40de      	lsrs	r6, r3
 80005d2:	003b      	movs	r3, r7
 80005d4:	4333      	orrs	r3, r6
 80005d6:	e7cd      	b.n	8000574 <__udivmoddi4+0x134>

080005d8 <__clzdi2>:
 80005d8:	b510      	push	{r4, lr}
 80005da:	2900      	cmp	r1, #0
 80005dc:	d103      	bne.n	80005e6 <__clzdi2+0xe>
 80005de:	f000 f807 	bl	80005f0 <__clzsi2>
 80005e2:	3020      	adds	r0, #32
 80005e4:	e002      	b.n	80005ec <__clzdi2+0x14>
 80005e6:	0008      	movs	r0, r1
 80005e8:	f000 f802 	bl	80005f0 <__clzsi2>
 80005ec:	bd10      	pop	{r4, pc}
 80005ee:	46c0      	nop			@ (mov r8, r8)

080005f0 <__clzsi2>:
 80005f0:	211c      	movs	r1, #28
 80005f2:	2301      	movs	r3, #1
 80005f4:	041b      	lsls	r3, r3, #16
 80005f6:	4298      	cmp	r0, r3
 80005f8:	d301      	bcc.n	80005fe <__clzsi2+0xe>
 80005fa:	0c00      	lsrs	r0, r0, #16
 80005fc:	3910      	subs	r1, #16
 80005fe:	0a1b      	lsrs	r3, r3, #8
 8000600:	4298      	cmp	r0, r3
 8000602:	d301      	bcc.n	8000608 <__clzsi2+0x18>
 8000604:	0a00      	lsrs	r0, r0, #8
 8000606:	3908      	subs	r1, #8
 8000608:	091b      	lsrs	r3, r3, #4
 800060a:	4298      	cmp	r0, r3
 800060c:	d301      	bcc.n	8000612 <__clzsi2+0x22>
 800060e:	0900      	lsrs	r0, r0, #4
 8000610:	3904      	subs	r1, #4
 8000612:	a202      	add	r2, pc, #8	@ (adr r2, 800061c <__clzsi2+0x2c>)
 8000614:	5c10      	ldrb	r0, [r2, r0]
 8000616:	1840      	adds	r0, r0, r1
 8000618:	4770      	bx	lr
 800061a:	46c0      	nop			@ (mov r8, r8)
 800061c:	02020304 	.word	0x02020304
 8000620:	01010101 	.word	0x01010101
	...

0800062c <get_m0_running>:
 800062c:	4b0a      	ldr	r3, [pc, #40]	@ (8000658 <get_m0_running+0x2c>)
 800062e:	4a0b      	ldr	r2, [pc, #44]	@ (800065c <get_m0_running+0x30>)
 8000630:	7819      	ldrb	r1, [r3, #0]
 8000632:	4b0b      	ldr	r3, [pc, #44]	@ (8000660 <get_m0_running+0x34>)
 8000634:	7890      	ldrb	r0, [r2, #2]
 8000636:	781b      	ldrb	r3, [r3, #0]
 8000638:	7051      	strb	r1, [r2, #1]
 800063a:	7013      	strb	r3, [r2, #0]
 800063c:	4043      	eors	r3, r0
 800063e:	78d0      	ldrb	r0, [r2, #3]
 8000640:	4043      	eors	r3, r0
 8000642:	7910      	ldrb	r0, [r2, #4]
 8000644:	4043      	eors	r3, r0
 8000646:	404b      	eors	r3, r1
 8000648:	7153      	strb	r3, [r2, #5]
 800064a:	2200      	movs	r2, #0
 800064c:	4905      	ldr	r1, [pc, #20]	@ (8000664 <get_m0_running+0x38>)
 800064e:	700b      	strb	r3, [r1, #0]
 8000650:	4b05      	ldr	r3, [pc, #20]	@ (8000668 <get_m0_running+0x3c>)
 8000652:	701a      	strb	r2, [r3, #0]
 8000654:	4770      	bx	lr
 8000656:	46c0      	nop			@ (mov r8, r8)
 8000658:	20000298 	.word	0x20000298
 800065c:	200002bc 	.word	0x200002bc
 8000660:	200005c0 	.word	0x200005c0
 8000664:	200002ac 	.word	0x200002ac
 8000668:	2000013e 	.word	0x2000013e

0800066c <get_m0_finite_mode>:
 800066c:	4b0a      	ldr	r3, [pc, #40]	@ (8000698 <get_m0_finite_mode+0x2c>)
 800066e:	490b      	ldr	r1, [pc, #44]	@ (800069c <get_m0_finite_mode+0x30>)
 8000670:	4a0b      	ldr	r2, [pc, #44]	@ (80006a0 <get_m0_finite_mode+0x34>)
 8000672:	7809      	ldrb	r1, [r1, #0]
 8000674:	781b      	ldrb	r3, [r3, #0]
 8000676:	7011      	strb	r1, [r2, #0]
 8000678:	7053      	strb	r3, [r2, #1]
 800067a:	404b      	eors	r3, r1
 800067c:	7891      	ldrb	r1, [r2, #2]
 800067e:	404b      	eors	r3, r1
 8000680:	78d1      	ldrb	r1, [r2, #3]
 8000682:	404b      	eors	r3, r1
 8000684:	7911      	ldrb	r1, [r2, #4]
 8000686:	404b      	eors	r3, r1
 8000688:	7153      	strb	r3, [r2, #5]
 800068a:	2200      	movs	r2, #0
 800068c:	4905      	ldr	r1, [pc, #20]	@ (80006a4 <get_m0_finite_mode+0x38>)
 800068e:	700b      	strb	r3, [r1, #0]
 8000690:	4b05      	ldr	r3, [pc, #20]	@ (80006a8 <get_m0_finite_mode+0x3c>)
 8000692:	701a      	strb	r2, [r3, #0]
 8000694:	4770      	bx	lr
 8000696:	46c0      	nop			@ (mov r8, r8)
 8000698:	2000013d 	.word	0x2000013d
 800069c:	200005c0 	.word	0x200005c0
 80006a0:	200002bc 	.word	0x200002bc
 80006a4:	200002ac 	.word	0x200002ac
 80006a8:	2000013e 	.word	0x2000013e

080006ac <set_m0_finite_mode>:
 80006ac:	4a0b      	ldr	r2, [pc, #44]	@ (80006dc <set_m0_finite_mode+0x30>)
 80006ae:	4b0c      	ldr	r3, [pc, #48]	@ (80006e0 <set_m0_finite_mode+0x34>)
 80006b0:	7852      	ldrb	r2, [r2, #1]
 80006b2:	701a      	strb	r2, [r3, #0]
 80006b4:	23fd      	movs	r3, #253	@ 0xfd
 80006b6:	4a0b      	ldr	r2, [pc, #44]	@ (80006e4 <set_m0_finite_mode+0x38>)
 80006b8:	7911      	ldrb	r1, [r2, #4]
 80006ba:	7013      	strb	r3, [r2, #0]
 80006bc:	7853      	ldrb	r3, [r2, #1]
 80006be:	404b      	eors	r3, r1
 80006c0:	7891      	ldrb	r1, [r2, #2]
 80006c2:	404b      	eors	r3, r1
 80006c4:	78d1      	ldrb	r1, [r2, #3]
 80006c6:	404b      	eors	r3, r1
 80006c8:	21fd      	movs	r1, #253	@ 0xfd
 80006ca:	404b      	eors	r3, r1
 80006cc:	7153      	strb	r3, [r2, #5]
 80006ce:	2200      	movs	r2, #0
 80006d0:	4905      	ldr	r1, [pc, #20]	@ (80006e8 <set_m0_finite_mode+0x3c>)
 80006d2:	700b      	strb	r3, [r1, #0]
 80006d4:	4b05      	ldr	r3, [pc, #20]	@ (80006ec <set_m0_finite_mode+0x40>)
 80006d6:	701a      	strb	r2, [r3, #0]
 80006d8:	4770      	bx	lr
 80006da:	46c0      	nop			@ (mov r8, r8)
 80006dc:	200005c0 	.word	0x200005c0
 80006e0:	2000013d 	.word	0x2000013d
 80006e4:	200002bc 	.word	0x200002bc
 80006e8:	200002ac 	.word	0x200002ac
 80006ec:	2000013e 	.word	0x2000013e

080006f0 <get_m0_dir>:
 80006f0:	4b0a      	ldr	r3, [pc, #40]	@ (800071c <get_m0_dir+0x2c>)
 80006f2:	4a0b      	ldr	r2, [pc, #44]	@ (8000720 <get_m0_dir+0x30>)
 80006f4:	7819      	ldrb	r1, [r3, #0]
 80006f6:	4b0b      	ldr	r3, [pc, #44]	@ (8000724 <get_m0_dir+0x34>)
 80006f8:	7890      	ldrb	r0, [r2, #2]
 80006fa:	781b      	ldrb	r3, [r3, #0]
 80006fc:	7051      	strb	r1, [r2, #1]
 80006fe:	7013      	strb	r3, [r2, #0]
 8000700:	4043      	eors	r3, r0
 8000702:	78d0      	ldrb	r0, [r2, #3]
 8000704:	4043      	eors	r3, r0
 8000706:	7910      	ldrb	r0, [r2, #4]
 8000708:	4043      	eors	r3, r0
 800070a:	404b      	eors	r3, r1
 800070c:	7153      	strb	r3, [r2, #5]
 800070e:	2200      	movs	r2, #0
 8000710:	4905      	ldr	r1, [pc, #20]	@ (8000728 <get_m0_dir+0x38>)
 8000712:	700b      	strb	r3, [r1, #0]
 8000714:	4b05      	ldr	r3, [pc, #20]	@ (800072c <get_m0_dir+0x3c>)
 8000716:	701a      	strb	r2, [r3, #0]
 8000718:	4770      	bx	lr
 800071a:	46c0      	nop			@ (mov r8, r8)
 800071c:	20000289 	.word	0x20000289
 8000720:	200002bc 	.word	0x200002bc
 8000724:	200005c0 	.word	0x200005c0
 8000728:	200002ac 	.word	0x200002ac
 800072c:	2000013e 	.word	0x2000013e

08000730 <get_m0_enabled>:
 8000730:	2201      	movs	r2, #1
 8000732:	4b0b      	ldr	r3, [pc, #44]	@ (8000760 <get_m0_enabled+0x30>)
 8000734:	490b      	ldr	r1, [pc, #44]	@ (8000764 <get_m0_enabled+0x34>)
 8000736:	781b      	ldrb	r3, [r3, #0]
 8000738:	7888      	ldrb	r0, [r1, #2]
 800073a:	405a      	eors	r2, r3
 800073c:	4b0a      	ldr	r3, [pc, #40]	@ (8000768 <get_m0_enabled+0x38>)
 800073e:	704a      	strb	r2, [r1, #1]
 8000740:	781b      	ldrb	r3, [r3, #0]
 8000742:	700b      	strb	r3, [r1, #0]
 8000744:	4043      	eors	r3, r0
 8000746:	78c8      	ldrb	r0, [r1, #3]
 8000748:	4043      	eors	r3, r0
 800074a:	7908      	ldrb	r0, [r1, #4]
 800074c:	4043      	eors	r3, r0
 800074e:	4053      	eors	r3, r2
 8000750:	4a06      	ldr	r2, [pc, #24]	@ (800076c <get_m0_enabled+0x3c>)
 8000752:	714b      	strb	r3, [r1, #5]
 8000754:	7013      	strb	r3, [r2, #0]
 8000756:	2200      	movs	r2, #0
 8000758:	4b05      	ldr	r3, [pc, #20]	@ (8000770 <get_m0_enabled+0x40>)
 800075a:	701a      	strb	r2, [r3, #0]
 800075c:	4770      	bx	lr
 800075e:	46c0      	nop			@ (mov r8, r8)
 8000760:	2000013c 	.word	0x2000013c
 8000764:	200002bc 	.word	0x200002bc
 8000768:	200005c0 	.word	0x200005c0
 800076c:	200002ac 	.word	0x200002ac
 8000770:	2000013e 	.word	0x2000013e

08000774 <get_m1_running>:
 8000774:	4b0a      	ldr	r3, [pc, #40]	@ (80007a0 <get_m1_running+0x2c>)
 8000776:	4a0b      	ldr	r2, [pc, #44]	@ (80007a4 <get_m1_running+0x30>)
 8000778:	7819      	ldrb	r1, [r3, #0]
 800077a:	4b0b      	ldr	r3, [pc, #44]	@ (80007a8 <get_m1_running+0x34>)
 800077c:	7890      	ldrb	r0, [r2, #2]
 800077e:	781b      	ldrb	r3, [r3, #0]
 8000780:	7051      	strb	r1, [r2, #1]
 8000782:	7013      	strb	r3, [r2, #0]
 8000784:	4043      	eors	r3, r0
 8000786:	78d0      	ldrb	r0, [r2, #3]
 8000788:	4043      	eors	r3, r0
 800078a:	7910      	ldrb	r0, [r2, #4]
 800078c:	4043      	eors	r3, r0
 800078e:	404b      	eors	r3, r1
 8000790:	7153      	strb	r3, [r2, #5]
 8000792:	2200      	movs	r2, #0
 8000794:	4905      	ldr	r1, [pc, #20]	@ (80007ac <get_m1_running+0x38>)
 8000796:	700b      	strb	r3, [r1, #0]
 8000798:	4b05      	ldr	r3, [pc, #20]	@ (80007b0 <get_m1_running+0x3c>)
 800079a:	701a      	strb	r2, [r3, #0]
 800079c:	4770      	bx	lr
 800079e:	46c0      	nop			@ (mov r8, r8)
 80007a0:	20000288 	.word	0x20000288
 80007a4:	200002bc 	.word	0x200002bc
 80007a8:	200005c0 	.word	0x200005c0
 80007ac:	200002ac 	.word	0x200002ac
 80007b0:	2000013e 	.word	0x2000013e

080007b4 <get_m1_finite_mode>:
 80007b4:	4b0a      	ldr	r3, [pc, #40]	@ (80007e0 <get_m1_finite_mode+0x2c>)
 80007b6:	490b      	ldr	r1, [pc, #44]	@ (80007e4 <get_m1_finite_mode+0x30>)
 80007b8:	4a0b      	ldr	r2, [pc, #44]	@ (80007e8 <get_m1_finite_mode+0x34>)
 80007ba:	7809      	ldrb	r1, [r1, #0]
 80007bc:	781b      	ldrb	r3, [r3, #0]
 80007be:	7011      	strb	r1, [r2, #0]
 80007c0:	7053      	strb	r3, [r2, #1]
 80007c2:	404b      	eors	r3, r1
 80007c4:	7891      	ldrb	r1, [r2, #2]
 80007c6:	404b      	eors	r3, r1
 80007c8:	78d1      	ldrb	r1, [r2, #3]
 80007ca:	404b      	eors	r3, r1
 80007cc:	7911      	ldrb	r1, [r2, #4]
 80007ce:	404b      	eors	r3, r1
 80007d0:	7153      	strb	r3, [r2, #5]
 80007d2:	2200      	movs	r2, #0
 80007d4:	4905      	ldr	r1, [pc, #20]	@ (80007ec <get_m1_finite_mode+0x38>)
 80007d6:	700b      	strb	r3, [r1, #0]
 80007d8:	4b05      	ldr	r3, [pc, #20]	@ (80007f0 <get_m1_finite_mode+0x3c>)
 80007da:	701a      	strb	r2, [r3, #0]
 80007dc:	4770      	bx	lr
 80007de:	46c0      	nop			@ (mov r8, r8)
 80007e0:	20000135 	.word	0x20000135
 80007e4:	200005c0 	.word	0x200005c0
 80007e8:	200002bc 	.word	0x200002bc
 80007ec:	200002ac 	.word	0x200002ac
 80007f0:	2000013e 	.word	0x2000013e

080007f4 <set_m1_finite_mode>:
 80007f4:	4a0b      	ldr	r2, [pc, #44]	@ (8000824 <set_m1_finite_mode+0x30>)
 80007f6:	4b0c      	ldr	r3, [pc, #48]	@ (8000828 <set_m1_finite_mode+0x34>)
 80007f8:	7852      	ldrb	r2, [r2, #1]
 80007fa:	701a      	strb	r2, [r3, #0]
 80007fc:	23fd      	movs	r3, #253	@ 0xfd
 80007fe:	4a0b      	ldr	r2, [pc, #44]	@ (800082c <set_m1_finite_mode+0x38>)
 8000800:	7911      	ldrb	r1, [r2, #4]
 8000802:	7013      	strb	r3, [r2, #0]
 8000804:	7853      	ldrb	r3, [r2, #1]
 8000806:	404b      	eors	r3, r1
 8000808:	7891      	ldrb	r1, [r2, #2]
 800080a:	404b      	eors	r3, r1
 800080c:	78d1      	ldrb	r1, [r2, #3]
 800080e:	404b      	eors	r3, r1
 8000810:	21fd      	movs	r1, #253	@ 0xfd
 8000812:	404b      	eors	r3, r1
 8000814:	7153      	strb	r3, [r2, #5]
 8000816:	2200      	movs	r2, #0
 8000818:	4905      	ldr	r1, [pc, #20]	@ (8000830 <set_m1_finite_mode+0x3c>)
 800081a:	700b      	strb	r3, [r1, #0]
 800081c:	4b05      	ldr	r3, [pc, #20]	@ (8000834 <set_m1_finite_mode+0x40>)
 800081e:	701a      	strb	r2, [r3, #0]
 8000820:	4770      	bx	lr
 8000822:	46c0      	nop			@ (mov r8, r8)
 8000824:	200005c0 	.word	0x200005c0
 8000828:	20000135 	.word	0x20000135
 800082c:	200002bc 	.word	0x200002bc
 8000830:	200002ac 	.word	0x200002ac
 8000834:	2000013e 	.word	0x2000013e

08000838 <get_m1_dir>:
 8000838:	4b0a      	ldr	r3, [pc, #40]	@ (8000864 <get_m1_dir+0x2c>)
 800083a:	4a0b      	ldr	r2, [pc, #44]	@ (8000868 <get_m1_dir+0x30>)
 800083c:	7819      	ldrb	r1, [r3, #0]
 800083e:	4b0b      	ldr	r3, [pc, #44]	@ (800086c <get_m1_dir+0x34>)
 8000840:	7890      	ldrb	r0, [r2, #2]
 8000842:	781b      	ldrb	r3, [r3, #0]
 8000844:	7051      	strb	r1, [r2, #1]
 8000846:	7013      	strb	r3, [r2, #0]
 8000848:	4043      	eors	r3, r0
 800084a:	78d0      	ldrb	r0, [r2, #3]
 800084c:	4043      	eors	r3, r0
 800084e:	7910      	ldrb	r0, [r2, #4]
 8000850:	4043      	eors	r3, r0
 8000852:	404b      	eors	r3, r1
 8000854:	7153      	strb	r3, [r2, #5]
 8000856:	2200      	movs	r2, #0
 8000858:	4905      	ldr	r1, [pc, #20]	@ (8000870 <get_m1_dir+0x38>)
 800085a:	700b      	strb	r3, [r1, #0]
 800085c:	4b05      	ldr	r3, [pc, #20]	@ (8000874 <get_m1_dir+0x3c>)
 800085e:	701a      	strb	r2, [r3, #0]
 8000860:	4770      	bx	lr
 8000862:	46c0      	nop			@ (mov r8, r8)
 8000864:	20000279 	.word	0x20000279
 8000868:	200002bc 	.word	0x200002bc
 800086c:	200005c0 	.word	0x200005c0
 8000870:	200002ac 	.word	0x200002ac
 8000874:	2000013e 	.word	0x2000013e

08000878 <get_m1_enabled>:
 8000878:	2201      	movs	r2, #1
 800087a:	4b0b      	ldr	r3, [pc, #44]	@ (80008a8 <get_m1_enabled+0x30>)
 800087c:	490b      	ldr	r1, [pc, #44]	@ (80008ac <get_m1_enabled+0x34>)
 800087e:	781b      	ldrb	r3, [r3, #0]
 8000880:	7888      	ldrb	r0, [r1, #2]
 8000882:	405a      	eors	r2, r3
 8000884:	4b0a      	ldr	r3, [pc, #40]	@ (80008b0 <get_m1_enabled+0x38>)
 8000886:	704a      	strb	r2, [r1, #1]
 8000888:	781b      	ldrb	r3, [r3, #0]
 800088a:	700b      	strb	r3, [r1, #0]
 800088c:	4043      	eors	r3, r0
 800088e:	78c8      	ldrb	r0, [r1, #3]
 8000890:	4043      	eors	r3, r0
 8000892:	7908      	ldrb	r0, [r1, #4]
 8000894:	4043      	eors	r3, r0
 8000896:	4053      	eors	r3, r2
 8000898:	4a06      	ldr	r2, [pc, #24]	@ (80008b4 <get_m1_enabled+0x3c>)
 800089a:	714b      	strb	r3, [r1, #5]
 800089c:	7013      	strb	r3, [r2, #0]
 800089e:	2200      	movs	r2, #0
 80008a0:	4b05      	ldr	r3, [pc, #20]	@ (80008b8 <get_m1_enabled+0x40>)
 80008a2:	701a      	strb	r2, [r3, #0]
 80008a4:	4770      	bx	lr
 80008a6:	46c0      	nop			@ (mov r8, r8)
 80008a8:	20000134 	.word	0x20000134
 80008ac:	200002bc 	.word	0x200002bc
 80008b0:	200005c0 	.word	0x200005c0
 80008b4:	200002ac 	.word	0x200002ac
 80008b8:	2000013e 	.word	0x2000013e

080008bc <get_m2_running>:
 80008bc:	4b0a      	ldr	r3, [pc, #40]	@ (80008e8 <get_m2_running+0x2c>)
 80008be:	4a0b      	ldr	r2, [pc, #44]	@ (80008ec <get_m2_running+0x30>)
 80008c0:	7819      	ldrb	r1, [r3, #0]
 80008c2:	4b0b      	ldr	r3, [pc, #44]	@ (80008f0 <get_m2_running+0x34>)
 80008c4:	7890      	ldrb	r0, [r2, #2]
 80008c6:	781b      	ldrb	r3, [r3, #0]
 80008c8:	7051      	strb	r1, [r2, #1]
 80008ca:	7013      	strb	r3, [r2, #0]
 80008cc:	4043      	eors	r3, r0
 80008ce:	78d0      	ldrb	r0, [r2, #3]
 80008d0:	4043      	eors	r3, r0
 80008d2:	7910      	ldrb	r0, [r2, #4]
 80008d4:	4043      	eors	r3, r0
 80008d6:	404b      	eors	r3, r1
 80008d8:	7153      	strb	r3, [r2, #5]
 80008da:	2200      	movs	r2, #0
 80008dc:	4905      	ldr	r1, [pc, #20]	@ (80008f4 <get_m2_running+0x38>)
 80008de:	700b      	strb	r3, [r1, #0]
 80008e0:	4b05      	ldr	r3, [pc, #20]	@ (80008f8 <get_m2_running+0x3c>)
 80008e2:	701a      	strb	r2, [r3, #0]
 80008e4:	4770      	bx	lr
 80008e6:	46c0      	nop			@ (mov r8, r8)
 80008e8:	20000278 	.word	0x20000278
 80008ec:	200002bc 	.word	0x200002bc
 80008f0:	200005c0 	.word	0x200005c0
 80008f4:	200002ac 	.word	0x200002ac
 80008f8:	2000013e 	.word	0x2000013e

080008fc <get_m2_finite_mode>:
 80008fc:	4b0a      	ldr	r3, [pc, #40]	@ (8000928 <get_m2_finite_mode+0x2c>)
 80008fe:	490b      	ldr	r1, [pc, #44]	@ (800092c <get_m2_finite_mode+0x30>)
 8000900:	4a0b      	ldr	r2, [pc, #44]	@ (8000930 <get_m2_finite_mode+0x34>)
 8000902:	7809      	ldrb	r1, [r1, #0]
 8000904:	781b      	ldrb	r3, [r3, #0]
 8000906:	7011      	strb	r1, [r2, #0]
 8000908:	7053      	strb	r3, [r2, #1]
 800090a:	404b      	eors	r3, r1
 800090c:	7891      	ldrb	r1, [r2, #2]
 800090e:	404b      	eors	r3, r1
 8000910:	78d1      	ldrb	r1, [r2, #3]
 8000912:	404b      	eors	r3, r1
 8000914:	7911      	ldrb	r1, [r2, #4]
 8000916:	404b      	eors	r3, r1
 8000918:	7153      	strb	r3, [r2, #5]
 800091a:	2200      	movs	r2, #0
 800091c:	4905      	ldr	r1, [pc, #20]	@ (8000934 <get_m2_finite_mode+0x38>)
 800091e:	700b      	strb	r3, [r1, #0]
 8000920:	4b05      	ldr	r3, [pc, #20]	@ (8000938 <get_m2_finite_mode+0x3c>)
 8000922:	701a      	strb	r2, [r3, #0]
 8000924:	4770      	bx	lr
 8000926:	46c0      	nop			@ (mov r8, r8)
 8000928:	2000012d 	.word	0x2000012d
 800092c:	200005c0 	.word	0x200005c0
 8000930:	200002bc 	.word	0x200002bc
 8000934:	200002ac 	.word	0x200002ac
 8000938:	2000013e 	.word	0x2000013e

0800093c <set_m2_finite_mode>:
 800093c:	4a0b      	ldr	r2, [pc, #44]	@ (800096c <set_m2_finite_mode+0x30>)
 800093e:	4b0c      	ldr	r3, [pc, #48]	@ (8000970 <set_m2_finite_mode+0x34>)
 8000940:	7852      	ldrb	r2, [r2, #1]
 8000942:	701a      	strb	r2, [r3, #0]
 8000944:	23fd      	movs	r3, #253	@ 0xfd
 8000946:	4a0b      	ldr	r2, [pc, #44]	@ (8000974 <set_m2_finite_mode+0x38>)
 8000948:	7911      	ldrb	r1, [r2, #4]
 800094a:	7013      	strb	r3, [r2, #0]
 800094c:	7853      	ldrb	r3, [r2, #1]
 800094e:	404b      	eors	r3, r1
 8000950:	7891      	ldrb	r1, [r2, #2]
 8000952:	404b      	eors	r3, r1
 8000954:	78d1      	ldrb	r1, [r2, #3]
 8000956:	404b      	eors	r3, r1
 8000958:	21fd      	movs	r1, #253	@ 0xfd
 800095a:	404b      	eors	r3, r1
 800095c:	7153      	strb	r3, [r2, #5]
 800095e:	2200      	movs	r2, #0
 8000960:	4905      	ldr	r1, [pc, #20]	@ (8000978 <set_m2_finite_mode+0x3c>)
 8000962:	700b      	strb	r3, [r1, #0]
 8000964:	4b05      	ldr	r3, [pc, #20]	@ (800097c <set_m2_finite_mode+0x40>)
 8000966:	701a      	strb	r2, [r3, #0]
 8000968:	4770      	bx	lr
 800096a:	46c0      	nop			@ (mov r8, r8)
 800096c:	200005c0 	.word	0x200005c0
 8000970:	2000012d 	.word	0x2000012d
 8000974:	200002bc 	.word	0x200002bc
 8000978:	200002ac 	.word	0x200002ac
 800097c:	2000013e 	.word	0x2000013e

08000980 <get_m2_dir>:
 8000980:	4b0a      	ldr	r3, [pc, #40]	@ (80009ac <get_m2_dir+0x2c>)
 8000982:	4a0b      	ldr	r2, [pc, #44]	@ (80009b0 <get_m2_dir+0x30>)
 8000984:	7819      	ldrb	r1, [r3, #0]
 8000986:	4b0b      	ldr	r3, [pc, #44]	@ (80009b4 <get_m2_dir+0x34>)
 8000988:	7890      	ldrb	r0, [r2, #2]
 800098a:	781b      	ldrb	r3, [r3, #0]
 800098c:	7051      	strb	r1, [r2, #1]
 800098e:	7013      	strb	r3, [r2, #0]
 8000990:	4043      	eors	r3, r0
 8000992:	78d0      	ldrb	r0, [r2, #3]
 8000994:	4043      	eors	r3, r0
 8000996:	7910      	ldrb	r0, [r2, #4]
 8000998:	4043      	eors	r3, r0
 800099a:	404b      	eors	r3, r1
 800099c:	7153      	strb	r3, [r2, #5]
 800099e:	2200      	movs	r2, #0
 80009a0:	4905      	ldr	r1, [pc, #20]	@ (80009b8 <get_m2_dir+0x38>)
 80009a2:	700b      	strb	r3, [r1, #0]
 80009a4:	4b05      	ldr	r3, [pc, #20]	@ (80009bc <get_m2_dir+0x3c>)
 80009a6:	701a      	strb	r2, [r3, #0]
 80009a8:	4770      	bx	lr
 80009aa:	46c0      	nop			@ (mov r8, r8)
 80009ac:	20000269 	.word	0x20000269
 80009b0:	200002bc 	.word	0x200002bc
 80009b4:	200005c0 	.word	0x200005c0
 80009b8:	200002ac 	.word	0x200002ac
 80009bc:	2000013e 	.word	0x2000013e

080009c0 <get_m2_enabled>:
 80009c0:	2201      	movs	r2, #1
 80009c2:	4b0b      	ldr	r3, [pc, #44]	@ (80009f0 <get_m2_enabled+0x30>)
 80009c4:	490b      	ldr	r1, [pc, #44]	@ (80009f4 <get_m2_enabled+0x34>)
 80009c6:	781b      	ldrb	r3, [r3, #0]
 80009c8:	7888      	ldrb	r0, [r1, #2]
 80009ca:	405a      	eors	r2, r3
 80009cc:	4b0a      	ldr	r3, [pc, #40]	@ (80009f8 <get_m2_enabled+0x38>)
 80009ce:	704a      	strb	r2, [r1, #1]
 80009d0:	781b      	ldrb	r3, [r3, #0]
 80009d2:	700b      	strb	r3, [r1, #0]
 80009d4:	4043      	eors	r3, r0
 80009d6:	78c8      	ldrb	r0, [r1, #3]
 80009d8:	4043      	eors	r3, r0
 80009da:	7908      	ldrb	r0, [r1, #4]
 80009dc:	4043      	eors	r3, r0
 80009de:	4053      	eors	r3, r2
 80009e0:	4a06      	ldr	r2, [pc, #24]	@ (80009fc <get_m2_enabled+0x3c>)
 80009e2:	714b      	strb	r3, [r1, #5]
 80009e4:	7013      	strb	r3, [r2, #0]
 80009e6:	2200      	movs	r2, #0
 80009e8:	4b05      	ldr	r3, [pc, #20]	@ (8000a00 <get_m2_enabled+0x40>)
 80009ea:	701a      	strb	r2, [r3, #0]
 80009ec:	4770      	bx	lr
 80009ee:	46c0      	nop			@ (mov r8, r8)
 80009f0:	2000012c 	.word	0x2000012c
 80009f4:	200002bc 	.word	0x200002bc
 80009f8:	200005c0 	.word	0x200005c0
 80009fc:	200002ac 	.word	0x200002ac
 8000a00:	2000013e 	.word	0x2000013e

08000a04 <get_m3_running>:
 8000a04:	4b0a      	ldr	r3, [pc, #40]	@ (8000a30 <get_m3_running+0x2c>)
 8000a06:	4a0b      	ldr	r2, [pc, #44]	@ (8000a34 <get_m3_running+0x30>)
 8000a08:	7819      	ldrb	r1, [r3, #0]
 8000a0a:	4b0b      	ldr	r3, [pc, #44]	@ (8000a38 <get_m3_running+0x34>)
 8000a0c:	7890      	ldrb	r0, [r2, #2]
 8000a0e:	781b      	ldrb	r3, [r3, #0]
 8000a10:	7051      	strb	r1, [r2, #1]
 8000a12:	7013      	strb	r3, [r2, #0]
 8000a14:	4043      	eors	r3, r0
 8000a16:	78d0      	ldrb	r0, [r2, #3]
 8000a18:	4043      	eors	r3, r0
 8000a1a:	7910      	ldrb	r0, [r2, #4]
 8000a1c:	4043      	eors	r3, r0
 8000a1e:	404b      	eors	r3, r1
 8000a20:	7153      	strb	r3, [r2, #5]
 8000a22:	2200      	movs	r2, #0
 8000a24:	4905      	ldr	r1, [pc, #20]	@ (8000a3c <get_m3_running+0x38>)
 8000a26:	700b      	strb	r3, [r1, #0]
 8000a28:	4b05      	ldr	r3, [pc, #20]	@ (8000a40 <get_m3_running+0x3c>)
 8000a2a:	701a      	strb	r2, [r3, #0]
 8000a2c:	4770      	bx	lr
 8000a2e:	46c0      	nop			@ (mov r8, r8)
 8000a30:	20000268 	.word	0x20000268
 8000a34:	200002bc 	.word	0x200002bc
 8000a38:	200005c0 	.word	0x200005c0
 8000a3c:	200002ac 	.word	0x200002ac
 8000a40:	2000013e 	.word	0x2000013e

08000a44 <get_m3_finite_mode>:
 8000a44:	4b0a      	ldr	r3, [pc, #40]	@ (8000a70 <get_m3_finite_mode+0x2c>)
 8000a46:	490b      	ldr	r1, [pc, #44]	@ (8000a74 <get_m3_finite_mode+0x30>)
 8000a48:	4a0b      	ldr	r2, [pc, #44]	@ (8000a78 <get_m3_finite_mode+0x34>)
 8000a4a:	7809      	ldrb	r1, [r1, #0]
 8000a4c:	781b      	ldrb	r3, [r3, #0]
 8000a4e:	7011      	strb	r1, [r2, #0]
 8000a50:	7053      	strb	r3, [r2, #1]
 8000a52:	404b      	eors	r3, r1
 8000a54:	7891      	ldrb	r1, [r2, #2]
 8000a56:	404b      	eors	r3, r1
 8000a58:	78d1      	ldrb	r1, [r2, #3]
 8000a5a:	404b      	eors	r3, r1
 8000a5c:	7911      	ldrb	r1, [r2, #4]
 8000a5e:	404b      	eors	r3, r1
 8000a60:	7153      	strb	r3, [r2, #5]
 8000a62:	2200      	movs	r2, #0
 8000a64:	4905      	ldr	r1, [pc, #20]	@ (8000a7c <get_m3_finite_mode+0x38>)
 8000a66:	700b      	strb	r3, [r1, #0]
 8000a68:	4b05      	ldr	r3, [pc, #20]	@ (8000a80 <get_m3_finite_mode+0x3c>)
 8000a6a:	701a      	strb	r2, [r3, #0]
 8000a6c:	4770      	bx	lr
 8000a6e:	46c0      	nop			@ (mov r8, r8)
 8000a70:	20000125 	.word	0x20000125
 8000a74:	200005c0 	.word	0x200005c0
 8000a78:	200002bc 	.word	0x200002bc
 8000a7c:	200002ac 	.word	0x200002ac
 8000a80:	2000013e 	.word	0x2000013e

08000a84 <set_m3_finite_mode>:
 8000a84:	4a0b      	ldr	r2, [pc, #44]	@ (8000ab4 <set_m3_finite_mode+0x30>)
 8000a86:	4b0c      	ldr	r3, [pc, #48]	@ (8000ab8 <set_m3_finite_mode+0x34>)
 8000a88:	7852      	ldrb	r2, [r2, #1]
 8000a8a:	701a      	strb	r2, [r3, #0]
 8000a8c:	23fd      	movs	r3, #253	@ 0xfd
 8000a8e:	4a0b      	ldr	r2, [pc, #44]	@ (8000abc <set_m3_finite_mode+0x38>)
 8000a90:	7911      	ldrb	r1, [r2, #4]
 8000a92:	7013      	strb	r3, [r2, #0]
 8000a94:	7853      	ldrb	r3, [r2, #1]
 8000a96:	404b      	eors	r3, r1
 8000a98:	7891      	ldrb	r1, [r2, #2]
 8000a9a:	404b      	eors	r3, r1
 8000a9c:	78d1      	ldrb	r1, [r2, #3]
 8000a9e:	404b      	eors	r3, r1
 8000aa0:	21fd      	movs	r1, #253	@ 0xfd
 8000aa2:	404b      	eors	r3, r1
 8000aa4:	7153      	strb	r3, [r2, #5]
 8000aa6:	2200      	movs	r2, #0
 8000aa8:	4905      	ldr	r1, [pc, #20]	@ (8000ac0 <set_m3_finite_mode+0x3c>)
 8000aaa:	700b      	strb	r3, [r1, #0]
 8000aac:	4b05      	ldr	r3, [pc, #20]	@ (8000ac4 <set_m3_finite_mode+0x40>)
 8000aae:	701a      	strb	r2, [r3, #0]
 8000ab0:	4770      	bx	lr
 8000ab2:	46c0      	nop			@ (mov r8, r8)
 8000ab4:	200005c0 	.word	0x200005c0
 8000ab8:	20000125 	.word	0x20000125
 8000abc:	200002bc 	.word	0x200002bc
 8000ac0:	200002ac 	.word	0x200002ac
 8000ac4:	2000013e 	.word	0x2000013e

08000ac8 <get_m3_dir>:
 8000ac8:	4b0a      	ldr	r3, [pc, #40]	@ (8000af4 <get_m3_dir+0x2c>)
 8000aca:	4a0b      	ldr	r2, [pc, #44]	@ (8000af8 <get_m3_dir+0x30>)
 8000acc:	7819      	ldrb	r1, [r3, #0]
 8000ace:	4b0b      	ldr	r3, [pc, #44]	@ (8000afc <get_m3_dir+0x34>)
 8000ad0:	7890      	ldrb	r0, [r2, #2]
 8000ad2:	781b      	ldrb	r3, [r3, #0]
 8000ad4:	7051      	strb	r1, [r2, #1]
 8000ad6:	7013      	strb	r3, [r2, #0]
 8000ad8:	4043      	eors	r3, r0
 8000ada:	78d0      	ldrb	r0, [r2, #3]
 8000adc:	4043      	eors	r3, r0
 8000ade:	7910      	ldrb	r0, [r2, #4]
 8000ae0:	4043      	eors	r3, r0
 8000ae2:	404b      	eors	r3, r1
 8000ae4:	7153      	strb	r3, [r2, #5]
 8000ae6:	2200      	movs	r2, #0
 8000ae8:	4905      	ldr	r1, [pc, #20]	@ (8000b00 <get_m3_dir+0x38>)
 8000aea:	700b      	strb	r3, [r1, #0]
 8000aec:	4b05      	ldr	r3, [pc, #20]	@ (8000b04 <get_m3_dir+0x3c>)
 8000aee:	701a      	strb	r2, [r3, #0]
 8000af0:	4770      	bx	lr
 8000af2:	46c0      	nop			@ (mov r8, r8)
 8000af4:	20000259 	.word	0x20000259
 8000af8:	200002bc 	.word	0x200002bc
 8000afc:	200005c0 	.word	0x200005c0
 8000b00:	200002ac 	.word	0x200002ac
 8000b04:	2000013e 	.word	0x2000013e

08000b08 <get_m3_enabled>:
 8000b08:	2201      	movs	r2, #1
 8000b0a:	4b0b      	ldr	r3, [pc, #44]	@ (8000b38 <get_m3_enabled+0x30>)
 8000b0c:	490b      	ldr	r1, [pc, #44]	@ (8000b3c <get_m3_enabled+0x34>)
 8000b0e:	781b      	ldrb	r3, [r3, #0]
 8000b10:	7888      	ldrb	r0, [r1, #2]
 8000b12:	405a      	eors	r2, r3
 8000b14:	4b0a      	ldr	r3, [pc, #40]	@ (8000b40 <get_m3_enabled+0x38>)
 8000b16:	704a      	strb	r2, [r1, #1]
 8000b18:	781b      	ldrb	r3, [r3, #0]
 8000b1a:	700b      	strb	r3, [r1, #0]
 8000b1c:	4043      	eors	r3, r0
 8000b1e:	78c8      	ldrb	r0, [r1, #3]
 8000b20:	4043      	eors	r3, r0
 8000b22:	7908      	ldrb	r0, [r1, #4]
 8000b24:	4043      	eors	r3, r0
 8000b26:	4053      	eors	r3, r2
 8000b28:	4a06      	ldr	r2, [pc, #24]	@ (8000b44 <get_m3_enabled+0x3c>)
 8000b2a:	714b      	strb	r3, [r1, #5]
 8000b2c:	7013      	strb	r3, [r2, #0]
 8000b2e:	2200      	movs	r2, #0
 8000b30:	4b05      	ldr	r3, [pc, #20]	@ (8000b48 <get_m3_enabled+0x40>)
 8000b32:	701a      	strb	r2, [r3, #0]
 8000b34:	4770      	bx	lr
 8000b36:	46c0      	nop			@ (mov r8, r8)
 8000b38:	20000124 	.word	0x20000124
 8000b3c:	200002bc 	.word	0x200002bc
 8000b40:	200005c0 	.word	0x200005c0
 8000b44:	200002ac 	.word	0x200002ac
 8000b48:	2000013e 	.word	0x2000013e

08000b4c <get_m0_var_ustep_support>:
 8000b4c:	2301      	movs	r3, #1
 8000b4e:	4a0a      	ldr	r2, [pc, #40]	@ (8000b78 <get_m0_var_ustep_support+0x2c>)
 8000b50:	7053      	strb	r3, [r2, #1]
 8000b52:	4b0a      	ldr	r3, [pc, #40]	@ (8000b7c <get_m0_var_ustep_support+0x30>)
 8000b54:	7911      	ldrb	r1, [r2, #4]
 8000b56:	781b      	ldrb	r3, [r3, #0]
 8000b58:	7013      	strb	r3, [r2, #0]
 8000b5a:	404b      	eors	r3, r1
 8000b5c:	7891      	ldrb	r1, [r2, #2]
 8000b5e:	404b      	eors	r3, r1
 8000b60:	78d1      	ldrb	r1, [r2, #3]
 8000b62:	404b      	eors	r3, r1
 8000b64:	2101      	movs	r1, #1
 8000b66:	404b      	eors	r3, r1
 8000b68:	7153      	strb	r3, [r2, #5]
 8000b6a:	2200      	movs	r2, #0
 8000b6c:	4904      	ldr	r1, [pc, #16]	@ (8000b80 <get_m0_var_ustep_support+0x34>)
 8000b6e:	700b      	strb	r3, [r1, #0]
 8000b70:	4b04      	ldr	r3, [pc, #16]	@ (8000b84 <get_m0_var_ustep_support+0x38>)
 8000b72:	701a      	strb	r2, [r3, #0]
 8000b74:	4770      	bx	lr
 8000b76:	46c0      	nop			@ (mov r8, r8)
 8000b78:	200002bc 	.word	0x200002bc
 8000b7c:	200005c0 	.word	0x200005c0
 8000b80:	200002ac 	.word	0x200002ac
 8000b84:	2000013e 	.word	0x2000013e

08000b88 <get_m0_usteps_exp>:
 8000b88:	4b0f      	ldr	r3, [pc, #60]	@ (8000bc8 <get_m0_usteps_exp+0x40>)
 8000b8a:	7ada      	ldrb	r2, [r3, #11]
 8000b8c:	2304      	movs	r3, #4
 8000b8e:	0712      	lsls	r2, r2, #28
 8000b90:	0f12      	lsrs	r2, r2, #28
 8000b92:	2a08      	cmp	r2, #8
 8000b94:	d802      	bhi.n	8000b9c <get_m0_usteps_exp+0x14>
 8000b96:	2308      	movs	r3, #8
 8000b98:	1a9b      	subs	r3, r3, r2
 8000b9a:	b2db      	uxtb	r3, r3
 8000b9c:	4a0b      	ldr	r2, [pc, #44]	@ (8000bcc <get_m0_usteps_exp+0x44>)
 8000b9e:	490c      	ldr	r1, [pc, #48]	@ (8000bd0 <get_m0_usteps_exp+0x48>)
 8000ba0:	7013      	strb	r3, [r2, #0]
 8000ba2:	4a0c      	ldr	r2, [pc, #48]	@ (8000bd4 <get_m0_usteps_exp+0x4c>)
 8000ba4:	7888      	ldrb	r0, [r1, #2]
 8000ba6:	7812      	ldrb	r2, [r2, #0]
 8000ba8:	704b      	strb	r3, [r1, #1]
 8000baa:	700a      	strb	r2, [r1, #0]
 8000bac:	4042      	eors	r2, r0
 8000bae:	78c8      	ldrb	r0, [r1, #3]
 8000bb0:	4042      	eors	r2, r0
 8000bb2:	7908      	ldrb	r0, [r1, #4]
 8000bb4:	4042      	eors	r2, r0
 8000bb6:	4053      	eors	r3, r2
 8000bb8:	4a07      	ldr	r2, [pc, #28]	@ (8000bd8 <get_m0_usteps_exp+0x50>)
 8000bba:	714b      	strb	r3, [r1, #5]
 8000bbc:	7013      	strb	r3, [r2, #0]
 8000bbe:	2200      	movs	r2, #0
 8000bc0:	4b06      	ldr	r3, [pc, #24]	@ (8000bdc <get_m0_usteps_exp+0x54>)
 8000bc2:	701a      	strb	r2, [r3, #0]
 8000bc4:	4770      	bx	lr
 8000bc6:	46c0      	nop			@ (mov r8, r8)
 8000bc8:	200008c0 	.word	0x200008c0
 8000bcc:	20000258 	.word	0x20000258
 8000bd0:	200002bc 	.word	0x200002bc
 8000bd4:	200005c0 	.word	0x200005c0
 8000bd8:	200002ac 	.word	0x200002ac
 8000bdc:	2000013e 	.word	0x2000013e

08000be0 <get_m1_usteps_exp>:
 8000be0:	2243      	movs	r2, #67	@ 0x43
 8000be2:	4b0f      	ldr	r3, [pc, #60]	@ (8000c20 <get_m1_usteps_exp+0x40>)
 8000be4:	5c9a      	ldrb	r2, [r3, r2]
 8000be6:	2304      	movs	r3, #4
 8000be8:	0712      	lsls	r2, r2, #28
 8000bea:	0f12      	lsrs	r2, r2, #28
 8000bec:	2a08      	cmp	r2, #8
 8000bee:	d802      	bhi.n	8000bf6 <get_m1_usteps_exp+0x16>
 8000bf0:	2308      	movs	r3, #8
 8000bf2:	1a9b      	subs	r3, r3, r2
 8000bf4:	b2db      	uxtb	r3, r3
 8000bf6:	4a0b      	ldr	r2, [pc, #44]	@ (8000c24 <get_m1_usteps_exp+0x44>)
 8000bf8:	490b      	ldr	r1, [pc, #44]	@ (8000c28 <get_m1_usteps_exp+0x48>)
 8000bfa:	7013      	strb	r3, [r2, #0]
 8000bfc:	4a0b      	ldr	r2, [pc, #44]	@ (8000c2c <get_m1_usteps_exp+0x4c>)
 8000bfe:	7888      	ldrb	r0, [r1, #2]
 8000c00:	7812      	ldrb	r2, [r2, #0]
 8000c02:	704b      	strb	r3, [r1, #1]
 8000c04:	700a      	strb	r2, [r1, #0]
 8000c06:	4042      	eors	r2, r0
 8000c08:	78c8      	ldrb	r0, [r1, #3]
 8000c0a:	4042      	eors	r2, r0
 8000c0c:	7908      	ldrb	r0, [r1, #4]
 8000c0e:	4042      	eors	r2, r0
 8000c10:	4053      	eors	r3, r2
 8000c12:	4a07      	ldr	r2, [pc, #28]	@ (8000c30 <get_m1_usteps_exp+0x50>)
 8000c14:	714b      	strb	r3, [r1, #5]
 8000c16:	7013      	strb	r3, [r2, #0]
 8000c18:	2200      	movs	r2, #0
 8000c1a:	4b06      	ldr	r3, [pc, #24]	@ (8000c34 <get_m1_usteps_exp+0x54>)
 8000c1c:	701a      	strb	r2, [r3, #0]
 8000c1e:	4770      	bx	lr
 8000c20:	200008c0 	.word	0x200008c0
 8000c24:	20000258 	.word	0x20000258
 8000c28:	200002bc 	.word	0x200002bc
 8000c2c:	200005c0 	.word	0x200005c0
 8000c30:	200002ac 	.word	0x200002ac
 8000c34:	2000013e 	.word	0x2000013e

08000c38 <get_m2_usteps_exp>:
 8000c38:	227b      	movs	r2, #123	@ 0x7b
 8000c3a:	4b0f      	ldr	r3, [pc, #60]	@ (8000c78 <get_m2_usteps_exp+0x40>)
 8000c3c:	5c9a      	ldrb	r2, [r3, r2]
 8000c3e:	2304      	movs	r3, #4
 8000c40:	0712      	lsls	r2, r2, #28
 8000c42:	0f12      	lsrs	r2, r2, #28
 8000c44:	2a08      	cmp	r2, #8
 8000c46:	d802      	bhi.n	8000c4e <get_m2_usteps_exp+0x16>
 8000c48:	2308      	movs	r3, #8
 8000c4a:	1a9b      	subs	r3, r3, r2
 8000c4c:	b2db      	uxtb	r3, r3
 8000c4e:	4a0b      	ldr	r2, [pc, #44]	@ (8000c7c <get_m2_usteps_exp+0x44>)
 8000c50:	490b      	ldr	r1, [pc, #44]	@ (8000c80 <get_m2_usteps_exp+0x48>)
 8000c52:	7013      	strb	r3, [r2, #0]
 8000c54:	4a0b      	ldr	r2, [pc, #44]	@ (8000c84 <get_m2_usteps_exp+0x4c>)
 8000c56:	7888      	ldrb	r0, [r1, #2]
 8000c58:	7812      	ldrb	r2, [r2, #0]
 8000c5a:	704b      	strb	r3, [r1, #1]
 8000c5c:	700a      	strb	r2, [r1, #0]
 8000c5e:	4042      	eors	r2, r0
 8000c60:	78c8      	ldrb	r0, [r1, #3]
 8000c62:	4042      	eors	r2, r0
 8000c64:	7908      	ldrb	r0, [r1, #4]
 8000c66:	4042      	eors	r2, r0
 8000c68:	4053      	eors	r3, r2
 8000c6a:	4a07      	ldr	r2, [pc, #28]	@ (8000c88 <get_m2_usteps_exp+0x50>)
 8000c6c:	714b      	strb	r3, [r1, #5]
 8000c6e:	7013      	strb	r3, [r2, #0]
 8000c70:	2200      	movs	r2, #0
 8000c72:	4b06      	ldr	r3, [pc, #24]	@ (8000c8c <get_m2_usteps_exp+0x54>)
 8000c74:	701a      	strb	r2, [r3, #0]
 8000c76:	4770      	bx	lr
 8000c78:	200008c0 	.word	0x200008c0
 8000c7c:	20000258 	.word	0x20000258
 8000c80:	200002bc 	.word	0x200002bc
 8000c84:	200005c0 	.word	0x200005c0
 8000c88:	200002ac 	.word	0x200002ac
 8000c8c:	2000013e 	.word	0x2000013e

08000c90 <get_m3_usteps_exp>:
 8000c90:	22b3      	movs	r2, #179	@ 0xb3
 8000c92:	4b0f      	ldr	r3, [pc, #60]	@ (8000cd0 <get_m3_usteps_exp+0x40>)
 8000c94:	5c9a      	ldrb	r2, [r3, r2]
 8000c96:	2304      	movs	r3, #4
 8000c98:	0712      	lsls	r2, r2, #28
 8000c9a:	0f12      	lsrs	r2, r2, #28
 8000c9c:	2a08      	cmp	r2, #8
 8000c9e:	d802      	bhi.n	8000ca6 <get_m3_usteps_exp+0x16>
 8000ca0:	2308      	movs	r3, #8
 8000ca2:	1a9b      	subs	r3, r3, r2
 8000ca4:	b2db      	uxtb	r3, r3
 8000ca6:	4a0b      	ldr	r2, [pc, #44]	@ (8000cd4 <get_m3_usteps_exp+0x44>)
 8000ca8:	490b      	ldr	r1, [pc, #44]	@ (8000cd8 <get_m3_usteps_exp+0x48>)
 8000caa:	7013      	strb	r3, [r2, #0]
 8000cac:	4a0b      	ldr	r2, [pc, #44]	@ (8000cdc <get_m3_usteps_exp+0x4c>)
 8000cae:	7888      	ldrb	r0, [r1, #2]
 8000cb0:	7812      	ldrb	r2, [r2, #0]
 8000cb2:	704b      	strb	r3, [r1, #1]
 8000cb4:	700a      	strb	r2, [r1, #0]
 8000cb6:	4042      	eors	r2, r0
 8000cb8:	78c8      	ldrb	r0, [r1, #3]
 8000cba:	4042      	eors	r2, r0
 8000cbc:	7908      	ldrb	r0, [r1, #4]
 8000cbe:	4042      	eors	r2, r0
 8000cc0:	4053      	eors	r3, r2
 8000cc2:	4a07      	ldr	r2, [pc, #28]	@ (8000ce0 <get_m3_usteps_exp+0x50>)
 8000cc4:	714b      	strb	r3, [r1, #5]
 8000cc6:	7013      	strb	r3, [r2, #0]
 8000cc8:	2200      	movs	r2, #0
 8000cca:	4b06      	ldr	r3, [pc, #24]	@ (8000ce4 <get_m3_usteps_exp+0x54>)
 8000ccc:	701a      	strb	r2, [r3, #0]
 8000cce:	4770      	bx	lr
 8000cd0:	200008c0 	.word	0x200008c0
 8000cd4:	20000258 	.word	0x20000258
 8000cd8:	200002bc 	.word	0x200002bc
 8000cdc:	200005c0 	.word	0x200005c0
 8000ce0:	200002ac 	.word	0x200002ac
 8000ce4:	2000013e 	.word	0x2000013e

08000ce8 <set_m0_dir>:
 8000ce8:	b510      	push	{r4, lr}
 8000cea:	4b0f      	ldr	r3, [pc, #60]	@ (8000d28 <set_m0_dir+0x40>)
 8000cec:	2180      	movs	r1, #128	@ 0x80
 8000cee:	785a      	ldrb	r2, [r3, #1]
 8000cf0:	0149      	lsls	r1, r1, #5
 8000cf2:	1e53      	subs	r3, r2, #1
 8000cf4:	419a      	sbcs	r2, r3
 8000cf6:	4b0d      	ldr	r3, [pc, #52]	@ (8000d2c <set_m0_dir+0x44>)
 8000cf8:	b2d2      	uxtb	r2, r2
 8000cfa:	480d      	ldr	r0, [pc, #52]	@ (8000d30 <set_m0_dir+0x48>)
 8000cfc:	701a      	strb	r2, [r3, #0]
 8000cfe:	f003 f963 	bl	8003fc8 <HAL_GPIO_WritePin>
 8000d02:	23fd      	movs	r3, #253	@ 0xfd
 8000d04:	4a0b      	ldr	r2, [pc, #44]	@ (8000d34 <set_m0_dir+0x4c>)
 8000d06:	7911      	ldrb	r1, [r2, #4]
 8000d08:	7013      	strb	r3, [r2, #0]
 8000d0a:	7853      	ldrb	r3, [r2, #1]
 8000d0c:	404b      	eors	r3, r1
 8000d0e:	7891      	ldrb	r1, [r2, #2]
 8000d10:	404b      	eors	r3, r1
 8000d12:	78d1      	ldrb	r1, [r2, #3]
 8000d14:	404b      	eors	r3, r1
 8000d16:	21fd      	movs	r1, #253	@ 0xfd
 8000d18:	404b      	eors	r3, r1
 8000d1a:	7153      	strb	r3, [r2, #5]
 8000d1c:	2200      	movs	r2, #0
 8000d1e:	4906      	ldr	r1, [pc, #24]	@ (8000d38 <set_m0_dir+0x50>)
 8000d20:	700b      	strb	r3, [r1, #0]
 8000d22:	4b06      	ldr	r3, [pc, #24]	@ (8000d3c <set_m0_dir+0x54>)
 8000d24:	701a      	strb	r2, [r3, #0]
 8000d26:	bd10      	pop	{r4, pc}
 8000d28:	200005c0 	.word	0x200005c0
 8000d2c:	20000289 	.word	0x20000289
 8000d30:	50000400 	.word	0x50000400
 8000d34:	200002bc 	.word	0x200002bc
 8000d38:	200002ac 	.word	0x200002ac
 8000d3c:	2000013e 	.word	0x2000013e

08000d40 <set_m0_enabled>:
 8000d40:	b510      	push	{r4, lr}
 8000d42:	4b0f      	ldr	r3, [pc, #60]	@ (8000d80 <set_m0_enabled+0x40>)
 8000d44:	2180      	movs	r1, #128	@ 0x80
 8000d46:	785a      	ldrb	r2, [r3, #1]
 8000d48:	01c9      	lsls	r1, r1, #7
 8000d4a:	4253      	negs	r3, r2
 8000d4c:	415a      	adcs	r2, r3
 8000d4e:	4b0d      	ldr	r3, [pc, #52]	@ (8000d84 <set_m0_enabled+0x44>)
 8000d50:	b2d2      	uxtb	r2, r2
 8000d52:	480d      	ldr	r0, [pc, #52]	@ (8000d88 <set_m0_enabled+0x48>)
 8000d54:	701a      	strb	r2, [r3, #0]
 8000d56:	f003 f937 	bl	8003fc8 <HAL_GPIO_WritePin>
 8000d5a:	23fd      	movs	r3, #253	@ 0xfd
 8000d5c:	4a0b      	ldr	r2, [pc, #44]	@ (8000d8c <set_m0_enabled+0x4c>)
 8000d5e:	7911      	ldrb	r1, [r2, #4]
 8000d60:	7013      	strb	r3, [r2, #0]
 8000d62:	7853      	ldrb	r3, [r2, #1]
 8000d64:	404b      	eors	r3, r1
 8000d66:	7891      	ldrb	r1, [r2, #2]
 8000d68:	404b      	eors	r3, r1
 8000d6a:	78d1      	ldrb	r1, [r2, #3]
 8000d6c:	404b      	eors	r3, r1
 8000d6e:	21fd      	movs	r1, #253	@ 0xfd
 8000d70:	404b      	eors	r3, r1
 8000d72:	7153      	strb	r3, [r2, #5]
 8000d74:	2200      	movs	r2, #0
 8000d76:	4906      	ldr	r1, [pc, #24]	@ (8000d90 <set_m0_enabled+0x50>)
 8000d78:	700b      	strb	r3, [r1, #0]
 8000d7a:	4b06      	ldr	r3, [pc, #24]	@ (8000d94 <set_m0_enabled+0x54>)
 8000d7c:	701a      	strb	r2, [r3, #0]
 8000d7e:	bd10      	pop	{r4, pc}
 8000d80:	200005c0 	.word	0x200005c0
 8000d84:	2000013c 	.word	0x2000013c
 8000d88:	50000400 	.word	0x50000400
 8000d8c:	200002bc 	.word	0x200002bc
 8000d90:	200002ac 	.word	0x200002ac
 8000d94:	2000013e 	.word	0x2000013e

08000d98 <set_m1_dir>:
 8000d98:	b510      	push	{r4, lr}
 8000d9a:	4b0f      	ldr	r3, [pc, #60]	@ (8000dd8 <set_m1_dir+0x40>)
 8000d9c:	2104      	movs	r1, #4
 8000d9e:	785a      	ldrb	r2, [r3, #1]
 8000da0:	480e      	ldr	r0, [pc, #56]	@ (8000ddc <set_m1_dir+0x44>)
 8000da2:	1e53      	subs	r3, r2, #1
 8000da4:	419a      	sbcs	r2, r3
 8000da6:	4b0e      	ldr	r3, [pc, #56]	@ (8000de0 <set_m1_dir+0x48>)
 8000da8:	b2d2      	uxtb	r2, r2
 8000daa:	701a      	strb	r2, [r3, #0]
 8000dac:	f003 f90c 	bl	8003fc8 <HAL_GPIO_WritePin>
 8000db0:	23fd      	movs	r3, #253	@ 0xfd
 8000db2:	4a0c      	ldr	r2, [pc, #48]	@ (8000de4 <set_m1_dir+0x4c>)
 8000db4:	7911      	ldrb	r1, [r2, #4]
 8000db6:	7013      	strb	r3, [r2, #0]
 8000db8:	7853      	ldrb	r3, [r2, #1]
 8000dba:	404b      	eors	r3, r1
 8000dbc:	7891      	ldrb	r1, [r2, #2]
 8000dbe:	404b      	eors	r3, r1
 8000dc0:	78d1      	ldrb	r1, [r2, #3]
 8000dc2:	404b      	eors	r3, r1
 8000dc4:	21fd      	movs	r1, #253	@ 0xfd
 8000dc6:	404b      	eors	r3, r1
 8000dc8:	7153      	strb	r3, [r2, #5]
 8000dca:	2200      	movs	r2, #0
 8000dcc:	4906      	ldr	r1, [pc, #24]	@ (8000de8 <set_m1_dir+0x50>)
 8000dce:	700b      	strb	r3, [r1, #0]
 8000dd0:	4b06      	ldr	r3, [pc, #24]	@ (8000dec <set_m1_dir+0x54>)
 8000dd2:	701a      	strb	r2, [r3, #0]
 8000dd4:	bd10      	pop	{r4, pc}
 8000dd6:	46c0      	nop			@ (mov r8, r8)
 8000dd8:	200005c0 	.word	0x200005c0
 8000ddc:	50000400 	.word	0x50000400
 8000de0:	20000279 	.word	0x20000279
 8000de4:	200002bc 	.word	0x200002bc
 8000de8:	200002ac 	.word	0x200002ac
 8000dec:	2000013e 	.word	0x2000013e

08000df0 <set_m1_enabled>:
 8000df0:	b510      	push	{r4, lr}
 8000df2:	4b0f      	ldr	r3, [pc, #60]	@ (8000e30 <set_m1_enabled+0x40>)
 8000df4:	2180      	movs	r1, #128	@ 0x80
 8000df6:	785a      	ldrb	r2, [r3, #1]
 8000df8:	0109      	lsls	r1, r1, #4
 8000dfa:	4253      	negs	r3, r2
 8000dfc:	415a      	adcs	r2, r3
 8000dfe:	4b0d      	ldr	r3, [pc, #52]	@ (8000e34 <set_m1_enabled+0x44>)
 8000e00:	b2d2      	uxtb	r2, r2
 8000e02:	480d      	ldr	r0, [pc, #52]	@ (8000e38 <set_m1_enabled+0x48>)
 8000e04:	701a      	strb	r2, [r3, #0]
 8000e06:	f003 f8df 	bl	8003fc8 <HAL_GPIO_WritePin>
 8000e0a:	23fd      	movs	r3, #253	@ 0xfd
 8000e0c:	4a0b      	ldr	r2, [pc, #44]	@ (8000e3c <set_m1_enabled+0x4c>)
 8000e0e:	7911      	ldrb	r1, [r2, #4]
 8000e10:	7013      	strb	r3, [r2, #0]
 8000e12:	7853      	ldrb	r3, [r2, #1]
 8000e14:	404b      	eors	r3, r1
 8000e16:	7891      	ldrb	r1, [r2, #2]
 8000e18:	404b      	eors	r3, r1
 8000e1a:	78d1      	ldrb	r1, [r2, #3]
 8000e1c:	404b      	eors	r3, r1
 8000e1e:	21fd      	movs	r1, #253	@ 0xfd
 8000e20:	404b      	eors	r3, r1
 8000e22:	7153      	strb	r3, [r2, #5]
 8000e24:	2200      	movs	r2, #0
 8000e26:	4906      	ldr	r1, [pc, #24]	@ (8000e40 <set_m1_enabled+0x50>)
 8000e28:	700b      	strb	r3, [r1, #0]
 8000e2a:	4b06      	ldr	r3, [pc, #24]	@ (8000e44 <set_m1_enabled+0x54>)
 8000e2c:	701a      	strb	r2, [r3, #0]
 8000e2e:	bd10      	pop	{r4, pc}
 8000e30:	200005c0 	.word	0x200005c0
 8000e34:	20000134 	.word	0x20000134
 8000e38:	50000400 	.word	0x50000400
 8000e3c:	200002bc 	.word	0x200002bc
 8000e40:	200002ac 	.word	0x200002ac
 8000e44:	2000013e 	.word	0x2000013e

08000e48 <set_m2_dir>:
 8000e48:	b510      	push	{r4, lr}
 8000e4a:	4b0f      	ldr	r3, [pc, #60]	@ (8000e88 <set_m2_dir+0x40>)
 8000e4c:	2120      	movs	r1, #32
 8000e4e:	785a      	ldrb	r2, [r3, #1]
 8000e50:	480e      	ldr	r0, [pc, #56]	@ (8000e8c <set_m2_dir+0x44>)
 8000e52:	1e53      	subs	r3, r2, #1
 8000e54:	419a      	sbcs	r2, r3
 8000e56:	4b0e      	ldr	r3, [pc, #56]	@ (8000e90 <set_m2_dir+0x48>)
 8000e58:	b2d2      	uxtb	r2, r2
 8000e5a:	701a      	strb	r2, [r3, #0]
 8000e5c:	f003 f8b4 	bl	8003fc8 <HAL_GPIO_WritePin>
 8000e60:	23fd      	movs	r3, #253	@ 0xfd
 8000e62:	4a0c      	ldr	r2, [pc, #48]	@ (8000e94 <set_m2_dir+0x4c>)
 8000e64:	7911      	ldrb	r1, [r2, #4]
 8000e66:	7013      	strb	r3, [r2, #0]
 8000e68:	7853      	ldrb	r3, [r2, #1]
 8000e6a:	404b      	eors	r3, r1
 8000e6c:	7891      	ldrb	r1, [r2, #2]
 8000e6e:	404b      	eors	r3, r1
 8000e70:	78d1      	ldrb	r1, [r2, #3]
 8000e72:	404b      	eors	r3, r1
 8000e74:	21fd      	movs	r1, #253	@ 0xfd
 8000e76:	404b      	eors	r3, r1
 8000e78:	7153      	strb	r3, [r2, #5]
 8000e7a:	2200      	movs	r2, #0
 8000e7c:	4906      	ldr	r1, [pc, #24]	@ (8000e98 <set_m2_dir+0x50>)
 8000e7e:	700b      	strb	r3, [r1, #0]
 8000e80:	4b06      	ldr	r3, [pc, #24]	@ (8000e9c <set_m2_dir+0x54>)
 8000e82:	701a      	strb	r2, [r3, #0]
 8000e84:	bd10      	pop	{r4, pc}
 8000e86:	46c0      	nop			@ (mov r8, r8)
 8000e88:	200005c0 	.word	0x200005c0
 8000e8c:	50000800 	.word	0x50000800
 8000e90:	20000269 	.word	0x20000269
 8000e94:	200002bc 	.word	0x200002bc
 8000e98:	200002ac 	.word	0x200002ac
 8000e9c:	2000013e 	.word	0x2000013e

08000ea0 <set_m2_enabled>:
 8000ea0:	b510      	push	{r4, lr}
 8000ea2:	4b0f      	ldr	r3, [pc, #60]	@ (8000ee0 <set_m2_enabled+0x40>)
 8000ea4:	2102      	movs	r1, #2
 8000ea6:	785a      	ldrb	r2, [r3, #1]
 8000ea8:	480e      	ldr	r0, [pc, #56]	@ (8000ee4 <set_m2_enabled+0x44>)
 8000eaa:	4253      	negs	r3, r2
 8000eac:	415a      	adcs	r2, r3
 8000eae:	4b0e      	ldr	r3, [pc, #56]	@ (8000ee8 <set_m2_enabled+0x48>)
 8000eb0:	b2d2      	uxtb	r2, r2
 8000eb2:	701a      	strb	r2, [r3, #0]
 8000eb4:	f003 f888 	bl	8003fc8 <HAL_GPIO_WritePin>
 8000eb8:	23fd      	movs	r3, #253	@ 0xfd
 8000eba:	4a0c      	ldr	r2, [pc, #48]	@ (8000eec <set_m2_enabled+0x4c>)
 8000ebc:	7911      	ldrb	r1, [r2, #4]
 8000ebe:	7013      	strb	r3, [r2, #0]
 8000ec0:	7853      	ldrb	r3, [r2, #1]
 8000ec2:	404b      	eors	r3, r1
 8000ec4:	7891      	ldrb	r1, [r2, #2]
 8000ec6:	404b      	eors	r3, r1
 8000ec8:	78d1      	ldrb	r1, [r2, #3]
 8000eca:	404b      	eors	r3, r1
 8000ecc:	21fd      	movs	r1, #253	@ 0xfd
 8000ece:	404b      	eors	r3, r1
 8000ed0:	7153      	strb	r3, [r2, #5]
 8000ed2:	2200      	movs	r2, #0
 8000ed4:	4906      	ldr	r1, [pc, #24]	@ (8000ef0 <set_m2_enabled+0x50>)
 8000ed6:	700b      	strb	r3, [r1, #0]
 8000ed8:	4b06      	ldr	r3, [pc, #24]	@ (8000ef4 <set_m2_enabled+0x54>)
 8000eda:	701a      	strb	r2, [r3, #0]
 8000edc:	bd10      	pop	{r4, pc}
 8000ede:	46c0      	nop			@ (mov r8, r8)
 8000ee0:	200005c0 	.word	0x200005c0
 8000ee4:	50000400 	.word	0x50000400
 8000ee8:	2000012c 	.word	0x2000012c
 8000eec:	200002bc 	.word	0x200002bc
 8000ef0:	200002ac 	.word	0x200002ac
 8000ef4:	2000013e 	.word	0x2000013e

08000ef8 <set_m3_dir>:
 8000ef8:	b510      	push	{r4, lr}
 8000efa:	4b0f      	ldr	r3, [pc, #60]	@ (8000f38 <set_m3_dir+0x40>)
 8000efc:	2110      	movs	r1, #16
 8000efe:	785a      	ldrb	r2, [r3, #1]
 8000f00:	480e      	ldr	r0, [pc, #56]	@ (8000f3c <set_m3_dir+0x44>)
 8000f02:	1e53      	subs	r3, r2, #1
 8000f04:	419a      	sbcs	r2, r3
 8000f06:	4b0e      	ldr	r3, [pc, #56]	@ (8000f40 <set_m3_dir+0x48>)
 8000f08:	b2d2      	uxtb	r2, r2
 8000f0a:	701a      	strb	r2, [r3, #0]
 8000f0c:	f003 f85c 	bl	8003fc8 <HAL_GPIO_WritePin>
 8000f10:	23fd      	movs	r3, #253	@ 0xfd
 8000f12:	4a0c      	ldr	r2, [pc, #48]	@ (8000f44 <set_m3_dir+0x4c>)
 8000f14:	7911      	ldrb	r1, [r2, #4]
 8000f16:	7013      	strb	r3, [r2, #0]
 8000f18:	7853      	ldrb	r3, [r2, #1]
 8000f1a:	404b      	eors	r3, r1
 8000f1c:	7891      	ldrb	r1, [r2, #2]
 8000f1e:	404b      	eors	r3, r1
 8000f20:	78d1      	ldrb	r1, [r2, #3]
 8000f22:	404b      	eors	r3, r1
 8000f24:	21fd      	movs	r1, #253	@ 0xfd
 8000f26:	404b      	eors	r3, r1
 8000f28:	7153      	strb	r3, [r2, #5]
 8000f2a:	2200      	movs	r2, #0
 8000f2c:	4906      	ldr	r1, [pc, #24]	@ (8000f48 <set_m3_dir+0x50>)
 8000f2e:	700b      	strb	r3, [r1, #0]
 8000f30:	4b06      	ldr	r3, [pc, #24]	@ (8000f4c <set_m3_dir+0x54>)
 8000f32:	701a      	strb	r2, [r3, #0]
 8000f34:	bd10      	pop	{r4, pc}
 8000f36:	46c0      	nop			@ (mov r8, r8)
 8000f38:	200005c0 	.word	0x200005c0
 8000f3c:	50000400 	.word	0x50000400
 8000f40:	20000259 	.word	0x20000259
 8000f44:	200002bc 	.word	0x200002bc
 8000f48:	200002ac 	.word	0x200002ac
 8000f4c:	2000013e 	.word	0x2000013e

08000f50 <set_m3_enabled>:
 8000f50:	b510      	push	{r4, lr}
 8000f52:	4b0f      	ldr	r3, [pc, #60]	@ (8000f90 <set_m3_enabled+0x40>)
 8000f54:	2102      	movs	r1, #2
 8000f56:	785a      	ldrb	r2, [r3, #1]
 8000f58:	480e      	ldr	r0, [pc, #56]	@ (8000f94 <set_m3_enabled+0x44>)
 8000f5a:	4253      	negs	r3, r2
 8000f5c:	415a      	adcs	r2, r3
 8000f5e:	4b0e      	ldr	r3, [pc, #56]	@ (8000f98 <set_m3_enabled+0x48>)
 8000f60:	b2d2      	uxtb	r2, r2
 8000f62:	701a      	strb	r2, [r3, #0]
 8000f64:	f003 f830 	bl	8003fc8 <HAL_GPIO_WritePin>
 8000f68:	23fd      	movs	r3, #253	@ 0xfd
 8000f6a:	4a0c      	ldr	r2, [pc, #48]	@ (8000f9c <set_m3_enabled+0x4c>)
 8000f6c:	7911      	ldrb	r1, [r2, #4]
 8000f6e:	7013      	strb	r3, [r2, #0]
 8000f70:	7853      	ldrb	r3, [r2, #1]
 8000f72:	404b      	eors	r3, r1
 8000f74:	7891      	ldrb	r1, [r2, #2]
 8000f76:	404b      	eors	r3, r1
 8000f78:	78d1      	ldrb	r1, [r2, #3]
 8000f7a:	404b      	eors	r3, r1
 8000f7c:	21fd      	movs	r1, #253	@ 0xfd
 8000f7e:	404b      	eors	r3, r1
 8000f80:	7153      	strb	r3, [r2, #5]
 8000f82:	2200      	movs	r2, #0
 8000f84:	4906      	ldr	r1, [pc, #24]	@ (8000fa0 <set_m3_enabled+0x50>)
 8000f86:	700b      	strb	r3, [r1, #0]
 8000f88:	4b06      	ldr	r3, [pc, #24]	@ (8000fa4 <set_m3_enabled+0x54>)
 8000f8a:	701a      	strb	r2, [r3, #0]
 8000f8c:	bd10      	pop	{r4, pc}
 8000f8e:	46c0      	nop			@ (mov r8, r8)
 8000f90:	200005c0 	.word	0x200005c0
 8000f94:	50000c00 	.word	0x50000c00
 8000f98:	20000124 	.word	0x20000124
 8000f9c:	200002bc 	.word	0x200002bc
 8000fa0:	200002ac 	.word	0x200002ac
 8000fa4:	2000013e 	.word	0x2000013e

08000fa8 <get_m0_steps>:
 8000fa8:	480c      	ldr	r0, [pc, #48]	@ (8000fdc <get_m0_steps+0x34>)
 8000faa:	b510      	push	{r4, lr}
 8000fac:	0004      	movs	r4, r0
 8000fae:	2204      	movs	r2, #4
 8000fb0:	490b      	ldr	r1, [pc, #44]	@ (8000fe0 <get_m0_steps+0x38>)
 8000fb2:	f008 fbef 	bl	8009794 <memcpy>
 8000fb6:	4b0b      	ldr	r3, [pc, #44]	@ (8000fe4 <get_m0_steps+0x3c>)
 8000fb8:	7822      	ldrb	r2, [r4, #0]
 8000fba:	781b      	ldrb	r3, [r3, #0]
 8000fbc:	3c01      	subs	r4, #1
 8000fbe:	7023      	strb	r3, [r4, #0]
 8000fc0:	4053      	eors	r3, r2
 8000fc2:	78a2      	ldrb	r2, [r4, #2]
 8000fc4:	4053      	eors	r3, r2
 8000fc6:	78e2      	ldrb	r2, [r4, #3]
 8000fc8:	4053      	eors	r3, r2
 8000fca:	7922      	ldrb	r2, [r4, #4]
 8000fcc:	4053      	eors	r3, r2
 8000fce:	4a06      	ldr	r2, [pc, #24]	@ (8000fe8 <get_m0_steps+0x40>)
 8000fd0:	7163      	strb	r3, [r4, #5]
 8000fd2:	7013      	strb	r3, [r2, #0]
 8000fd4:	2200      	movs	r2, #0
 8000fd6:	4b05      	ldr	r3, [pc, #20]	@ (8000fec <get_m0_steps+0x44>)
 8000fd8:	701a      	strb	r2, [r3, #0]
 8000fda:	bd10      	pop	{r4, pc}
 8000fdc:	200002bd 	.word	0x200002bd
 8000fe0:	20000290 	.word	0x20000290
 8000fe4:	200005c0 	.word	0x200005c0
 8000fe8:	200002ac 	.word	0x200002ac
 8000fec:	2000013e 	.word	0x2000013e

08000ff0 <get_m0_target_steps>:
 8000ff0:	480c      	ldr	r0, [pc, #48]	@ (8001024 <get_m0_target_steps+0x34>)
 8000ff2:	b510      	push	{r4, lr}
 8000ff4:	0004      	movs	r4, r0
 8000ff6:	2204      	movs	r2, #4
 8000ff8:	490b      	ldr	r1, [pc, #44]	@ (8001028 <get_m0_target_steps+0x38>)
 8000ffa:	f008 fbcb 	bl	8009794 <memcpy>
 8000ffe:	4b0b      	ldr	r3, [pc, #44]	@ (800102c <get_m0_target_steps+0x3c>)
 8001000:	7822      	ldrb	r2, [r4, #0]
 8001002:	781b      	ldrb	r3, [r3, #0]
 8001004:	3c01      	subs	r4, #1
 8001006:	7023      	strb	r3, [r4, #0]
 8001008:	4053      	eors	r3, r2
 800100a:	78a2      	ldrb	r2, [r4, #2]
 800100c:	4053      	eors	r3, r2
 800100e:	78e2      	ldrb	r2, [r4, #3]
 8001010:	4053      	eors	r3, r2
 8001012:	7922      	ldrb	r2, [r4, #4]
 8001014:	4053      	eors	r3, r2
 8001016:	4a06      	ldr	r2, [pc, #24]	@ (8001030 <get_m0_target_steps+0x40>)
 8001018:	7163      	strb	r3, [r4, #5]
 800101a:	7013      	strb	r3, [r2, #0]
 800101c:	2200      	movs	r2, #0
 800101e:	4b05      	ldr	r3, [pc, #20]	@ (8001034 <get_m0_target_steps+0x44>)
 8001020:	701a      	strb	r2, [r3, #0]
 8001022:	bd10      	pop	{r4, pc}
 8001024:	200002bd 	.word	0x200002bd
 8001028:	2000028c 	.word	0x2000028c
 800102c:	200005c0 	.word	0x200005c0
 8001030:	200002ac 	.word	0x200002ac
 8001034:	2000013e 	.word	0x2000013e

08001038 <get_m0_step_interval>:
 8001038:	480c      	ldr	r0, [pc, #48]	@ (800106c <get_m0_step_interval+0x34>)
 800103a:	b510      	push	{r4, lr}
 800103c:	0004      	movs	r4, r0
 800103e:	2204      	movs	r2, #4
 8001040:	490b      	ldr	r1, [pc, #44]	@ (8001070 <get_m0_step_interval+0x38>)
 8001042:	f008 fba7 	bl	8009794 <memcpy>
 8001046:	4b0b      	ldr	r3, [pc, #44]	@ (8001074 <get_m0_step_interval+0x3c>)
 8001048:	7822      	ldrb	r2, [r4, #0]
 800104a:	781b      	ldrb	r3, [r3, #0]
 800104c:	3c01      	subs	r4, #1
 800104e:	7023      	strb	r3, [r4, #0]
 8001050:	4053      	eors	r3, r2
 8001052:	78a2      	ldrb	r2, [r4, #2]
 8001054:	4053      	eors	r3, r2
 8001056:	78e2      	ldrb	r2, [r4, #3]
 8001058:	4053      	eors	r3, r2
 800105a:	7922      	ldrb	r2, [r4, #4]
 800105c:	4053      	eors	r3, r2
 800105e:	4a06      	ldr	r2, [pc, #24]	@ (8001078 <get_m0_step_interval+0x40>)
 8001060:	7163      	strb	r3, [r4, #5]
 8001062:	7013      	strb	r3, [r2, #0]
 8001064:	2200      	movs	r2, #0
 8001066:	4b05      	ldr	r3, [pc, #20]	@ (800107c <get_m0_step_interval+0x44>)
 8001068:	701a      	strb	r2, [r3, #0]
 800106a:	bd10      	pop	{r4, pc}
 800106c:	200002bd 	.word	0x200002bd
 8001070:	20000138 	.word	0x20000138
 8001074:	200005c0 	.word	0x200005c0
 8001078:	200002ac 	.word	0x200002ac
 800107c:	2000013e 	.word	0x2000013e

08001080 <get_m1_steps>:
 8001080:	480c      	ldr	r0, [pc, #48]	@ (80010b4 <get_m1_steps+0x34>)
 8001082:	b510      	push	{r4, lr}
 8001084:	0004      	movs	r4, r0
 8001086:	2204      	movs	r2, #4
 8001088:	490b      	ldr	r1, [pc, #44]	@ (80010b8 <get_m1_steps+0x38>)
 800108a:	f008 fb83 	bl	8009794 <memcpy>
 800108e:	4b0b      	ldr	r3, [pc, #44]	@ (80010bc <get_m1_steps+0x3c>)
 8001090:	7822      	ldrb	r2, [r4, #0]
 8001092:	781b      	ldrb	r3, [r3, #0]
 8001094:	3c01      	subs	r4, #1
 8001096:	7023      	strb	r3, [r4, #0]
 8001098:	4053      	eors	r3, r2
 800109a:	78a2      	ldrb	r2, [r4, #2]
 800109c:	4053      	eors	r3, r2
 800109e:	78e2      	ldrb	r2, [r4, #3]
 80010a0:	4053      	eors	r3, r2
 80010a2:	7922      	ldrb	r2, [r4, #4]
 80010a4:	4053      	eors	r3, r2
 80010a6:	4a06      	ldr	r2, [pc, #24]	@ (80010c0 <get_m1_steps+0x40>)
 80010a8:	7163      	strb	r3, [r4, #5]
 80010aa:	7013      	strb	r3, [r2, #0]
 80010ac:	2200      	movs	r2, #0
 80010ae:	4b05      	ldr	r3, [pc, #20]	@ (80010c4 <get_m1_steps+0x44>)
 80010b0:	701a      	strb	r2, [r3, #0]
 80010b2:	bd10      	pop	{r4, pc}
 80010b4:	200002bd 	.word	0x200002bd
 80010b8:	20000280 	.word	0x20000280
 80010bc:	200005c0 	.word	0x200005c0
 80010c0:	200002ac 	.word	0x200002ac
 80010c4:	2000013e 	.word	0x2000013e

080010c8 <get_m1_target_steps>:
 80010c8:	480c      	ldr	r0, [pc, #48]	@ (80010fc <get_m1_target_steps+0x34>)
 80010ca:	b510      	push	{r4, lr}
 80010cc:	0004      	movs	r4, r0
 80010ce:	2204      	movs	r2, #4
 80010d0:	490b      	ldr	r1, [pc, #44]	@ (8001100 <get_m1_target_steps+0x38>)
 80010d2:	f008 fb5f 	bl	8009794 <memcpy>
 80010d6:	4b0b      	ldr	r3, [pc, #44]	@ (8001104 <get_m1_target_steps+0x3c>)
 80010d8:	7822      	ldrb	r2, [r4, #0]
 80010da:	781b      	ldrb	r3, [r3, #0]
 80010dc:	3c01      	subs	r4, #1
 80010de:	7023      	strb	r3, [r4, #0]
 80010e0:	4053      	eors	r3, r2
 80010e2:	78a2      	ldrb	r2, [r4, #2]
 80010e4:	4053      	eors	r3, r2
 80010e6:	78e2      	ldrb	r2, [r4, #3]
 80010e8:	4053      	eors	r3, r2
 80010ea:	7922      	ldrb	r2, [r4, #4]
 80010ec:	4053      	eors	r3, r2
 80010ee:	4a06      	ldr	r2, [pc, #24]	@ (8001108 <get_m1_target_steps+0x40>)
 80010f0:	7163      	strb	r3, [r4, #5]
 80010f2:	7013      	strb	r3, [r2, #0]
 80010f4:	2200      	movs	r2, #0
 80010f6:	4b05      	ldr	r3, [pc, #20]	@ (800110c <get_m1_target_steps+0x44>)
 80010f8:	701a      	strb	r2, [r3, #0]
 80010fa:	bd10      	pop	{r4, pc}
 80010fc:	200002bd 	.word	0x200002bd
 8001100:	2000027c 	.word	0x2000027c
 8001104:	200005c0 	.word	0x200005c0
 8001108:	200002ac 	.word	0x200002ac
 800110c:	2000013e 	.word	0x2000013e

08001110 <get_m1_step_interval>:
 8001110:	480c      	ldr	r0, [pc, #48]	@ (8001144 <get_m1_step_interval+0x34>)
 8001112:	b510      	push	{r4, lr}
 8001114:	0004      	movs	r4, r0
 8001116:	2204      	movs	r2, #4
 8001118:	490b      	ldr	r1, [pc, #44]	@ (8001148 <get_m1_step_interval+0x38>)
 800111a:	f008 fb3b 	bl	8009794 <memcpy>
 800111e:	4b0b      	ldr	r3, [pc, #44]	@ (800114c <get_m1_step_interval+0x3c>)
 8001120:	7822      	ldrb	r2, [r4, #0]
 8001122:	781b      	ldrb	r3, [r3, #0]
 8001124:	3c01      	subs	r4, #1
 8001126:	7023      	strb	r3, [r4, #0]
 8001128:	4053      	eors	r3, r2
 800112a:	78a2      	ldrb	r2, [r4, #2]
 800112c:	4053      	eors	r3, r2
 800112e:	78e2      	ldrb	r2, [r4, #3]
 8001130:	4053      	eors	r3, r2
 8001132:	7922      	ldrb	r2, [r4, #4]
 8001134:	4053      	eors	r3, r2
 8001136:	4a06      	ldr	r2, [pc, #24]	@ (8001150 <get_m1_step_interval+0x40>)
 8001138:	7163      	strb	r3, [r4, #5]
 800113a:	7013      	strb	r3, [r2, #0]
 800113c:	2200      	movs	r2, #0
 800113e:	4b05      	ldr	r3, [pc, #20]	@ (8001154 <get_m1_step_interval+0x44>)
 8001140:	701a      	strb	r2, [r3, #0]
 8001142:	bd10      	pop	{r4, pc}
 8001144:	200002bd 	.word	0x200002bd
 8001148:	20000130 	.word	0x20000130
 800114c:	200005c0 	.word	0x200005c0
 8001150:	200002ac 	.word	0x200002ac
 8001154:	2000013e 	.word	0x2000013e

08001158 <get_m2_steps>:
 8001158:	480c      	ldr	r0, [pc, #48]	@ (800118c <get_m2_steps+0x34>)
 800115a:	b510      	push	{r4, lr}
 800115c:	0004      	movs	r4, r0
 800115e:	2204      	movs	r2, #4
 8001160:	490b      	ldr	r1, [pc, #44]	@ (8001190 <get_m2_steps+0x38>)
 8001162:	f008 fb17 	bl	8009794 <memcpy>
 8001166:	4b0b      	ldr	r3, [pc, #44]	@ (8001194 <get_m2_steps+0x3c>)
 8001168:	7822      	ldrb	r2, [r4, #0]
 800116a:	781b      	ldrb	r3, [r3, #0]
 800116c:	3c01      	subs	r4, #1
 800116e:	7023      	strb	r3, [r4, #0]
 8001170:	4053      	eors	r3, r2
 8001172:	78a2      	ldrb	r2, [r4, #2]
 8001174:	4053      	eors	r3, r2
 8001176:	78e2      	ldrb	r2, [r4, #3]
 8001178:	4053      	eors	r3, r2
 800117a:	7922      	ldrb	r2, [r4, #4]
 800117c:	4053      	eors	r3, r2
 800117e:	4a06      	ldr	r2, [pc, #24]	@ (8001198 <get_m2_steps+0x40>)
 8001180:	7163      	strb	r3, [r4, #5]
 8001182:	7013      	strb	r3, [r2, #0]
 8001184:	2200      	movs	r2, #0
 8001186:	4b05      	ldr	r3, [pc, #20]	@ (800119c <get_m2_steps+0x44>)
 8001188:	701a      	strb	r2, [r3, #0]
 800118a:	bd10      	pop	{r4, pc}
 800118c:	200002bd 	.word	0x200002bd
 8001190:	20000270 	.word	0x20000270
 8001194:	200005c0 	.word	0x200005c0
 8001198:	200002ac 	.word	0x200002ac
 800119c:	2000013e 	.word	0x2000013e

080011a0 <get_m2_target_steps>:
 80011a0:	480c      	ldr	r0, [pc, #48]	@ (80011d4 <get_m2_target_steps+0x34>)
 80011a2:	b510      	push	{r4, lr}
 80011a4:	0004      	movs	r4, r0
 80011a6:	2204      	movs	r2, #4
 80011a8:	490b      	ldr	r1, [pc, #44]	@ (80011d8 <get_m2_target_steps+0x38>)
 80011aa:	f008 faf3 	bl	8009794 <memcpy>
 80011ae:	4b0b      	ldr	r3, [pc, #44]	@ (80011dc <get_m2_target_steps+0x3c>)
 80011b0:	7822      	ldrb	r2, [r4, #0]
 80011b2:	781b      	ldrb	r3, [r3, #0]
 80011b4:	3c01      	subs	r4, #1
 80011b6:	7023      	strb	r3, [r4, #0]
 80011b8:	4053      	eors	r3, r2
 80011ba:	78a2      	ldrb	r2, [r4, #2]
 80011bc:	4053      	eors	r3, r2
 80011be:	78e2      	ldrb	r2, [r4, #3]
 80011c0:	4053      	eors	r3, r2
 80011c2:	7922      	ldrb	r2, [r4, #4]
 80011c4:	4053      	eors	r3, r2
 80011c6:	4a06      	ldr	r2, [pc, #24]	@ (80011e0 <get_m2_target_steps+0x40>)
 80011c8:	7163      	strb	r3, [r4, #5]
 80011ca:	7013      	strb	r3, [r2, #0]
 80011cc:	2200      	movs	r2, #0
 80011ce:	4b05      	ldr	r3, [pc, #20]	@ (80011e4 <get_m2_target_steps+0x44>)
 80011d0:	701a      	strb	r2, [r3, #0]
 80011d2:	bd10      	pop	{r4, pc}
 80011d4:	200002bd 	.word	0x200002bd
 80011d8:	2000026c 	.word	0x2000026c
 80011dc:	200005c0 	.word	0x200005c0
 80011e0:	200002ac 	.word	0x200002ac
 80011e4:	2000013e 	.word	0x2000013e

080011e8 <get_m2_step_interval>:
 80011e8:	480c      	ldr	r0, [pc, #48]	@ (800121c <get_m2_step_interval+0x34>)
 80011ea:	b510      	push	{r4, lr}
 80011ec:	0004      	movs	r4, r0
 80011ee:	2204      	movs	r2, #4
 80011f0:	490b      	ldr	r1, [pc, #44]	@ (8001220 <get_m2_step_interval+0x38>)
 80011f2:	f008 facf 	bl	8009794 <memcpy>
 80011f6:	4b0b      	ldr	r3, [pc, #44]	@ (8001224 <get_m2_step_interval+0x3c>)
 80011f8:	7822      	ldrb	r2, [r4, #0]
 80011fa:	781b      	ldrb	r3, [r3, #0]
 80011fc:	3c01      	subs	r4, #1
 80011fe:	7023      	strb	r3, [r4, #0]
 8001200:	4053      	eors	r3, r2
 8001202:	78a2      	ldrb	r2, [r4, #2]
 8001204:	4053      	eors	r3, r2
 8001206:	78e2      	ldrb	r2, [r4, #3]
 8001208:	4053      	eors	r3, r2
 800120a:	7922      	ldrb	r2, [r4, #4]
 800120c:	4053      	eors	r3, r2
 800120e:	4a06      	ldr	r2, [pc, #24]	@ (8001228 <get_m2_step_interval+0x40>)
 8001210:	7163      	strb	r3, [r4, #5]
 8001212:	7013      	strb	r3, [r2, #0]
 8001214:	2200      	movs	r2, #0
 8001216:	4b05      	ldr	r3, [pc, #20]	@ (800122c <get_m2_step_interval+0x44>)
 8001218:	701a      	strb	r2, [r3, #0]
 800121a:	bd10      	pop	{r4, pc}
 800121c:	200002bd 	.word	0x200002bd
 8001220:	20000128 	.word	0x20000128
 8001224:	200005c0 	.word	0x200005c0
 8001228:	200002ac 	.word	0x200002ac
 800122c:	2000013e 	.word	0x2000013e

08001230 <get_m3_steps>:
 8001230:	480c      	ldr	r0, [pc, #48]	@ (8001264 <get_m3_steps+0x34>)
 8001232:	b510      	push	{r4, lr}
 8001234:	0004      	movs	r4, r0
 8001236:	2204      	movs	r2, #4
 8001238:	490b      	ldr	r1, [pc, #44]	@ (8001268 <get_m3_steps+0x38>)
 800123a:	f008 faab 	bl	8009794 <memcpy>
 800123e:	4b0b      	ldr	r3, [pc, #44]	@ (800126c <get_m3_steps+0x3c>)
 8001240:	7822      	ldrb	r2, [r4, #0]
 8001242:	781b      	ldrb	r3, [r3, #0]
 8001244:	3c01      	subs	r4, #1
 8001246:	7023      	strb	r3, [r4, #0]
 8001248:	4053      	eors	r3, r2
 800124a:	78a2      	ldrb	r2, [r4, #2]
 800124c:	4053      	eors	r3, r2
 800124e:	78e2      	ldrb	r2, [r4, #3]
 8001250:	4053      	eors	r3, r2
 8001252:	7922      	ldrb	r2, [r4, #4]
 8001254:	4053      	eors	r3, r2
 8001256:	4a06      	ldr	r2, [pc, #24]	@ (8001270 <get_m3_steps+0x40>)
 8001258:	7163      	strb	r3, [r4, #5]
 800125a:	7013      	strb	r3, [r2, #0]
 800125c:	2200      	movs	r2, #0
 800125e:	4b05      	ldr	r3, [pc, #20]	@ (8001274 <get_m3_steps+0x44>)
 8001260:	701a      	strb	r2, [r3, #0]
 8001262:	bd10      	pop	{r4, pc}
 8001264:	200002bd 	.word	0x200002bd
 8001268:	20000260 	.word	0x20000260
 800126c:	200005c0 	.word	0x200005c0
 8001270:	200002ac 	.word	0x200002ac
 8001274:	2000013e 	.word	0x2000013e

08001278 <get_m3_target_steps>:
 8001278:	480c      	ldr	r0, [pc, #48]	@ (80012ac <get_m3_target_steps+0x34>)
 800127a:	b510      	push	{r4, lr}
 800127c:	0004      	movs	r4, r0
 800127e:	2204      	movs	r2, #4
 8001280:	490b      	ldr	r1, [pc, #44]	@ (80012b0 <get_m3_target_steps+0x38>)
 8001282:	f008 fa87 	bl	8009794 <memcpy>
 8001286:	4b0b      	ldr	r3, [pc, #44]	@ (80012b4 <get_m3_target_steps+0x3c>)
 8001288:	7822      	ldrb	r2, [r4, #0]
 800128a:	781b      	ldrb	r3, [r3, #0]
 800128c:	3c01      	subs	r4, #1
 800128e:	7023      	strb	r3, [r4, #0]
 8001290:	4053      	eors	r3, r2
 8001292:	78a2      	ldrb	r2, [r4, #2]
 8001294:	4053      	eors	r3, r2
 8001296:	78e2      	ldrb	r2, [r4, #3]
 8001298:	4053      	eors	r3, r2
 800129a:	7922      	ldrb	r2, [r4, #4]
 800129c:	4053      	eors	r3, r2
 800129e:	4a06      	ldr	r2, [pc, #24]	@ (80012b8 <get_m3_target_steps+0x40>)
 80012a0:	7163      	strb	r3, [r4, #5]
 80012a2:	7013      	strb	r3, [r2, #0]
 80012a4:	2200      	movs	r2, #0
 80012a6:	4b05      	ldr	r3, [pc, #20]	@ (80012bc <get_m3_target_steps+0x44>)
 80012a8:	701a      	strb	r2, [r3, #0]
 80012aa:	bd10      	pop	{r4, pc}
 80012ac:	200002bd 	.word	0x200002bd
 80012b0:	2000025c 	.word	0x2000025c
 80012b4:	200005c0 	.word	0x200005c0
 80012b8:	200002ac 	.word	0x200002ac
 80012bc:	2000013e 	.word	0x2000013e

080012c0 <get_m3_step_interval>:
 80012c0:	480c      	ldr	r0, [pc, #48]	@ (80012f4 <get_m3_step_interval+0x34>)
 80012c2:	b510      	push	{r4, lr}
 80012c4:	0004      	movs	r4, r0
 80012c6:	2204      	movs	r2, #4
 80012c8:	490b      	ldr	r1, [pc, #44]	@ (80012f8 <get_m3_step_interval+0x38>)
 80012ca:	f008 fa63 	bl	8009794 <memcpy>
 80012ce:	4b0b      	ldr	r3, [pc, #44]	@ (80012fc <get_m3_step_interval+0x3c>)
 80012d0:	7822      	ldrb	r2, [r4, #0]
 80012d2:	781b      	ldrb	r3, [r3, #0]
 80012d4:	3c01      	subs	r4, #1
 80012d6:	7023      	strb	r3, [r4, #0]
 80012d8:	4053      	eors	r3, r2
 80012da:	78a2      	ldrb	r2, [r4, #2]
 80012dc:	4053      	eors	r3, r2
 80012de:	78e2      	ldrb	r2, [r4, #3]
 80012e0:	4053      	eors	r3, r2
 80012e2:	7922      	ldrb	r2, [r4, #4]
 80012e4:	4053      	eors	r3, r2
 80012e6:	4a06      	ldr	r2, [pc, #24]	@ (8001300 <get_m3_step_interval+0x40>)
 80012e8:	7163      	strb	r3, [r4, #5]
 80012ea:	7013      	strb	r3, [r2, #0]
 80012ec:	2200      	movs	r2, #0
 80012ee:	4b05      	ldr	r3, [pc, #20]	@ (8001304 <get_m3_step_interval+0x44>)
 80012f0:	701a      	strb	r2, [r3, #0]
 80012f2:	bd10      	pop	{r4, pc}
 80012f4:	200002bd 	.word	0x200002bd
 80012f8:	20000120 	.word	0x20000120
 80012fc:	200005c0 	.word	0x200005c0
 8001300:	200002ac 	.word	0x200002ac
 8001304:	2000013e 	.word	0x2000013e

08001308 <get_sub_us_divider>:
 8001308:	b510      	push	{r4, lr}
 800130a:	4c09      	ldr	r4, [pc, #36]	@ (8001330 <get_sub_us_divider+0x28>)
 800130c:	2204      	movs	r2, #4
 800130e:	0020      	movs	r0, r4
 8001310:	4908      	ldr	r1, [pc, #32]	@ (8001334 <get_sub_us_divider+0x2c>)
 8001312:	f008 fa3f 	bl	8009794 <memcpy>
 8001316:	2210      	movs	r2, #16
 8001318:	4b07      	ldr	r3, [pc, #28]	@ (8001338 <get_sub_us_divider+0x30>)
 800131a:	3c01      	subs	r4, #1
 800131c:	781b      	ldrb	r3, [r3, #0]
 800131e:	7023      	strb	r3, [r4, #0]
 8001320:	4053      	eors	r3, r2
 8001322:	4a06      	ldr	r2, [pc, #24]	@ (800133c <get_sub_us_divider+0x34>)
 8001324:	7163      	strb	r3, [r4, #5]
 8001326:	7013      	strb	r3, [r2, #0]
 8001328:	2200      	movs	r2, #0
 800132a:	4b05      	ldr	r3, [pc, #20]	@ (8001340 <get_sub_us_divider+0x38>)
 800132c:	701a      	strb	r2, [r3, #0]
 800132e:	bd10      	pop	{r4, pc}
 8001330:	200002bd 	.word	0x200002bd
 8001334:	080097c0 	.word	0x080097c0
 8001338:	200005c0 	.word	0x200005c0
 800133c:	200002ac 	.word	0x200002ac
 8001340:	2000013e 	.word	0x2000013e

08001344 <set_m0_steps>:
 8001344:	b510      	push	{r4, lr}
 8001346:	4c0e      	ldr	r4, [pc, #56]	@ (8001380 <set_m0_steps+0x3c>)
 8001348:	2204      	movs	r2, #4
 800134a:	0020      	movs	r0, r4
 800134c:	490d      	ldr	r1, [pc, #52]	@ (8001384 <set_m0_steps+0x40>)
 800134e:	f008 fa21 	bl	8009794 <memcpy>
 8001352:	4b0d      	ldr	r3, [pc, #52]	@ (8001388 <set_m0_steps+0x44>)
 8001354:	6822      	ldr	r2, [r4, #0]
 8001356:	601a      	str	r2, [r3, #0]
 8001358:	23fd      	movs	r3, #253	@ 0xfd
 800135a:	4a0c      	ldr	r2, [pc, #48]	@ (800138c <set_m0_steps+0x48>)
 800135c:	7911      	ldrb	r1, [r2, #4]
 800135e:	7013      	strb	r3, [r2, #0]
 8001360:	7853      	ldrb	r3, [r2, #1]
 8001362:	404b      	eors	r3, r1
 8001364:	7891      	ldrb	r1, [r2, #2]
 8001366:	404b      	eors	r3, r1
 8001368:	78d1      	ldrb	r1, [r2, #3]
 800136a:	404b      	eors	r3, r1
 800136c:	21fd      	movs	r1, #253	@ 0xfd
 800136e:	404b      	eors	r3, r1
 8001370:	7153      	strb	r3, [r2, #5]
 8001372:	2200      	movs	r2, #0
 8001374:	4906      	ldr	r1, [pc, #24]	@ (8001390 <set_m0_steps+0x4c>)
 8001376:	700b      	strb	r3, [r1, #0]
 8001378:	4b06      	ldr	r3, [pc, #24]	@ (8001394 <set_m0_steps+0x50>)
 800137a:	701a      	strb	r2, [r3, #0]
 800137c:	bd10      	pop	{r4, pc}
 800137e:	46c0      	nop			@ (mov r8, r8)
 8001380:	20000290 	.word	0x20000290
 8001384:	200005c1 	.word	0x200005c1
 8001388:	2000028c 	.word	0x2000028c
 800138c:	200002bc 	.word	0x200002bc
 8001390:	200002ac 	.word	0x200002ac
 8001394:	2000013e 	.word	0x2000013e

08001398 <set_m0_target_steps>:
 8001398:	2204      	movs	r2, #4
 800139a:	b510      	push	{r4, lr}
 800139c:	490b      	ldr	r1, [pc, #44]	@ (80013cc <set_m0_target_steps+0x34>)
 800139e:	480c      	ldr	r0, [pc, #48]	@ (80013d0 <set_m0_target_steps+0x38>)
 80013a0:	f008 f9f8 	bl	8009794 <memcpy>
 80013a4:	23fd      	movs	r3, #253	@ 0xfd
 80013a6:	4a0b      	ldr	r2, [pc, #44]	@ (80013d4 <set_m0_target_steps+0x3c>)
 80013a8:	7911      	ldrb	r1, [r2, #4]
 80013aa:	7013      	strb	r3, [r2, #0]
 80013ac:	7853      	ldrb	r3, [r2, #1]
 80013ae:	404b      	eors	r3, r1
 80013b0:	7891      	ldrb	r1, [r2, #2]
 80013b2:	404b      	eors	r3, r1
 80013b4:	78d1      	ldrb	r1, [r2, #3]
 80013b6:	404b      	eors	r3, r1
 80013b8:	21fd      	movs	r1, #253	@ 0xfd
 80013ba:	404b      	eors	r3, r1
 80013bc:	7153      	strb	r3, [r2, #5]
 80013be:	2200      	movs	r2, #0
 80013c0:	4905      	ldr	r1, [pc, #20]	@ (80013d8 <set_m0_target_steps+0x40>)
 80013c2:	700b      	strb	r3, [r1, #0]
 80013c4:	4b05      	ldr	r3, [pc, #20]	@ (80013dc <set_m0_target_steps+0x44>)
 80013c6:	701a      	strb	r2, [r3, #0]
 80013c8:	bd10      	pop	{r4, pc}
 80013ca:	46c0      	nop			@ (mov r8, r8)
 80013cc:	200005c1 	.word	0x200005c1
 80013d0:	2000028c 	.word	0x2000028c
 80013d4:	200002bc 	.word	0x200002bc
 80013d8:	200002ac 	.word	0x200002ac
 80013dc:	2000013e 	.word	0x2000013e

080013e0 <set_m0_step_interval>:
 80013e0:	2204      	movs	r2, #4
 80013e2:	b510      	push	{r4, lr}
 80013e4:	490b      	ldr	r1, [pc, #44]	@ (8001414 <set_m0_step_interval+0x34>)
 80013e6:	480c      	ldr	r0, [pc, #48]	@ (8001418 <set_m0_step_interval+0x38>)
 80013e8:	f008 f9d4 	bl	8009794 <memcpy>
 80013ec:	23fd      	movs	r3, #253	@ 0xfd
 80013ee:	4a0b      	ldr	r2, [pc, #44]	@ (800141c <set_m0_step_interval+0x3c>)
 80013f0:	7911      	ldrb	r1, [r2, #4]
 80013f2:	7013      	strb	r3, [r2, #0]
 80013f4:	7853      	ldrb	r3, [r2, #1]
 80013f6:	404b      	eors	r3, r1
 80013f8:	7891      	ldrb	r1, [r2, #2]
 80013fa:	404b      	eors	r3, r1
 80013fc:	78d1      	ldrb	r1, [r2, #3]
 80013fe:	404b      	eors	r3, r1
 8001400:	21fd      	movs	r1, #253	@ 0xfd
 8001402:	404b      	eors	r3, r1
 8001404:	7153      	strb	r3, [r2, #5]
 8001406:	2200      	movs	r2, #0
 8001408:	4905      	ldr	r1, [pc, #20]	@ (8001420 <set_m0_step_interval+0x40>)
 800140a:	700b      	strb	r3, [r1, #0]
 800140c:	4b05      	ldr	r3, [pc, #20]	@ (8001424 <set_m0_step_interval+0x44>)
 800140e:	701a      	strb	r2, [r3, #0]
 8001410:	bd10      	pop	{r4, pc}
 8001412:	46c0      	nop			@ (mov r8, r8)
 8001414:	200005c1 	.word	0x200005c1
 8001418:	20000138 	.word	0x20000138
 800141c:	200002bc 	.word	0x200002bc
 8001420:	200002ac 	.word	0x200002ac
 8001424:	2000013e 	.word	0x2000013e

08001428 <set_m1_steps>:
 8001428:	b510      	push	{r4, lr}
 800142a:	4c0e      	ldr	r4, [pc, #56]	@ (8001464 <set_m1_steps+0x3c>)
 800142c:	2204      	movs	r2, #4
 800142e:	0020      	movs	r0, r4
 8001430:	490d      	ldr	r1, [pc, #52]	@ (8001468 <set_m1_steps+0x40>)
 8001432:	f008 f9af 	bl	8009794 <memcpy>
 8001436:	4b0d      	ldr	r3, [pc, #52]	@ (800146c <set_m1_steps+0x44>)
 8001438:	6822      	ldr	r2, [r4, #0]
 800143a:	601a      	str	r2, [r3, #0]
 800143c:	23fd      	movs	r3, #253	@ 0xfd
 800143e:	4a0c      	ldr	r2, [pc, #48]	@ (8001470 <set_m1_steps+0x48>)
 8001440:	7911      	ldrb	r1, [r2, #4]
 8001442:	7013      	strb	r3, [r2, #0]
 8001444:	7853      	ldrb	r3, [r2, #1]
 8001446:	404b      	eors	r3, r1
 8001448:	7891      	ldrb	r1, [r2, #2]
 800144a:	404b      	eors	r3, r1
 800144c:	78d1      	ldrb	r1, [r2, #3]
 800144e:	404b      	eors	r3, r1
 8001450:	21fd      	movs	r1, #253	@ 0xfd
 8001452:	404b      	eors	r3, r1
 8001454:	7153      	strb	r3, [r2, #5]
 8001456:	2200      	movs	r2, #0
 8001458:	4906      	ldr	r1, [pc, #24]	@ (8001474 <set_m1_steps+0x4c>)
 800145a:	700b      	strb	r3, [r1, #0]
 800145c:	4b06      	ldr	r3, [pc, #24]	@ (8001478 <set_m1_steps+0x50>)
 800145e:	701a      	strb	r2, [r3, #0]
 8001460:	bd10      	pop	{r4, pc}
 8001462:	46c0      	nop			@ (mov r8, r8)
 8001464:	20000280 	.word	0x20000280
 8001468:	200005c1 	.word	0x200005c1
 800146c:	2000027c 	.word	0x2000027c
 8001470:	200002bc 	.word	0x200002bc
 8001474:	200002ac 	.word	0x200002ac
 8001478:	2000013e 	.word	0x2000013e

0800147c <set_m1_target_steps>:
 800147c:	2204      	movs	r2, #4
 800147e:	b510      	push	{r4, lr}
 8001480:	490b      	ldr	r1, [pc, #44]	@ (80014b0 <set_m1_target_steps+0x34>)
 8001482:	480c      	ldr	r0, [pc, #48]	@ (80014b4 <set_m1_target_steps+0x38>)
 8001484:	f008 f986 	bl	8009794 <memcpy>
 8001488:	23fd      	movs	r3, #253	@ 0xfd
 800148a:	4a0b      	ldr	r2, [pc, #44]	@ (80014b8 <set_m1_target_steps+0x3c>)
 800148c:	7911      	ldrb	r1, [r2, #4]
 800148e:	7013      	strb	r3, [r2, #0]
 8001490:	7853      	ldrb	r3, [r2, #1]
 8001492:	404b      	eors	r3, r1
 8001494:	7891      	ldrb	r1, [r2, #2]
 8001496:	404b      	eors	r3, r1
 8001498:	78d1      	ldrb	r1, [r2, #3]
 800149a:	404b      	eors	r3, r1
 800149c:	21fd      	movs	r1, #253	@ 0xfd
 800149e:	404b      	eors	r3, r1
 80014a0:	7153      	strb	r3, [r2, #5]
 80014a2:	2200      	movs	r2, #0
 80014a4:	4905      	ldr	r1, [pc, #20]	@ (80014bc <set_m1_target_steps+0x40>)
 80014a6:	700b      	strb	r3, [r1, #0]
 80014a8:	4b05      	ldr	r3, [pc, #20]	@ (80014c0 <set_m1_target_steps+0x44>)
 80014aa:	701a      	strb	r2, [r3, #0]
 80014ac:	bd10      	pop	{r4, pc}
 80014ae:	46c0      	nop			@ (mov r8, r8)
 80014b0:	200005c1 	.word	0x200005c1
 80014b4:	2000027c 	.word	0x2000027c
 80014b8:	200002bc 	.word	0x200002bc
 80014bc:	200002ac 	.word	0x200002ac
 80014c0:	2000013e 	.word	0x2000013e

080014c4 <set_m1_step_interval>:
 80014c4:	2204      	movs	r2, #4
 80014c6:	b510      	push	{r4, lr}
 80014c8:	490b      	ldr	r1, [pc, #44]	@ (80014f8 <set_m1_step_interval+0x34>)
 80014ca:	480c      	ldr	r0, [pc, #48]	@ (80014fc <set_m1_step_interval+0x38>)
 80014cc:	f008 f962 	bl	8009794 <memcpy>
 80014d0:	23fd      	movs	r3, #253	@ 0xfd
 80014d2:	4a0b      	ldr	r2, [pc, #44]	@ (8001500 <set_m1_step_interval+0x3c>)
 80014d4:	7911      	ldrb	r1, [r2, #4]
 80014d6:	7013      	strb	r3, [r2, #0]
 80014d8:	7853      	ldrb	r3, [r2, #1]
 80014da:	404b      	eors	r3, r1
 80014dc:	7891      	ldrb	r1, [r2, #2]
 80014de:	404b      	eors	r3, r1
 80014e0:	78d1      	ldrb	r1, [r2, #3]
 80014e2:	404b      	eors	r3, r1
 80014e4:	21fd      	movs	r1, #253	@ 0xfd
 80014e6:	404b      	eors	r3, r1
 80014e8:	7153      	strb	r3, [r2, #5]
 80014ea:	2200      	movs	r2, #0
 80014ec:	4905      	ldr	r1, [pc, #20]	@ (8001504 <set_m1_step_interval+0x40>)
 80014ee:	700b      	strb	r3, [r1, #0]
 80014f0:	4b05      	ldr	r3, [pc, #20]	@ (8001508 <set_m1_step_interval+0x44>)
 80014f2:	701a      	strb	r2, [r3, #0]
 80014f4:	bd10      	pop	{r4, pc}
 80014f6:	46c0      	nop			@ (mov r8, r8)
 80014f8:	200005c1 	.word	0x200005c1
 80014fc:	20000130 	.word	0x20000130
 8001500:	200002bc 	.word	0x200002bc
 8001504:	200002ac 	.word	0x200002ac
 8001508:	2000013e 	.word	0x2000013e

0800150c <set_m2_steps>:
 800150c:	b510      	push	{r4, lr}
 800150e:	4c0e      	ldr	r4, [pc, #56]	@ (8001548 <set_m2_steps+0x3c>)
 8001510:	2204      	movs	r2, #4
 8001512:	0020      	movs	r0, r4
 8001514:	490d      	ldr	r1, [pc, #52]	@ (800154c <set_m2_steps+0x40>)
 8001516:	f008 f93d 	bl	8009794 <memcpy>
 800151a:	4b0d      	ldr	r3, [pc, #52]	@ (8001550 <set_m2_steps+0x44>)
 800151c:	6822      	ldr	r2, [r4, #0]
 800151e:	601a      	str	r2, [r3, #0]
 8001520:	23fd      	movs	r3, #253	@ 0xfd
 8001522:	4a0c      	ldr	r2, [pc, #48]	@ (8001554 <set_m2_steps+0x48>)
 8001524:	7911      	ldrb	r1, [r2, #4]
 8001526:	7013      	strb	r3, [r2, #0]
 8001528:	7853      	ldrb	r3, [r2, #1]
 800152a:	404b      	eors	r3, r1
 800152c:	7891      	ldrb	r1, [r2, #2]
 800152e:	404b      	eors	r3, r1
 8001530:	78d1      	ldrb	r1, [r2, #3]
 8001532:	404b      	eors	r3, r1
 8001534:	21fd      	movs	r1, #253	@ 0xfd
 8001536:	404b      	eors	r3, r1
 8001538:	7153      	strb	r3, [r2, #5]
 800153a:	2200      	movs	r2, #0
 800153c:	4906      	ldr	r1, [pc, #24]	@ (8001558 <set_m2_steps+0x4c>)
 800153e:	700b      	strb	r3, [r1, #0]
 8001540:	4b06      	ldr	r3, [pc, #24]	@ (800155c <set_m2_steps+0x50>)
 8001542:	701a      	strb	r2, [r3, #0]
 8001544:	bd10      	pop	{r4, pc}
 8001546:	46c0      	nop			@ (mov r8, r8)
 8001548:	20000270 	.word	0x20000270
 800154c:	200005c1 	.word	0x200005c1
 8001550:	2000026c 	.word	0x2000026c
 8001554:	200002bc 	.word	0x200002bc
 8001558:	200002ac 	.word	0x200002ac
 800155c:	2000013e 	.word	0x2000013e

08001560 <set_m2_target_steps>:
 8001560:	2204      	movs	r2, #4
 8001562:	b510      	push	{r4, lr}
 8001564:	490b      	ldr	r1, [pc, #44]	@ (8001594 <set_m2_target_steps+0x34>)
 8001566:	480c      	ldr	r0, [pc, #48]	@ (8001598 <set_m2_target_steps+0x38>)
 8001568:	f008 f914 	bl	8009794 <memcpy>
 800156c:	23fd      	movs	r3, #253	@ 0xfd
 800156e:	4a0b      	ldr	r2, [pc, #44]	@ (800159c <set_m2_target_steps+0x3c>)
 8001570:	7911      	ldrb	r1, [r2, #4]
 8001572:	7013      	strb	r3, [r2, #0]
 8001574:	7853      	ldrb	r3, [r2, #1]
 8001576:	404b      	eors	r3, r1
 8001578:	7891      	ldrb	r1, [r2, #2]
 800157a:	404b      	eors	r3, r1
 800157c:	78d1      	ldrb	r1, [r2, #3]
 800157e:	404b      	eors	r3, r1
 8001580:	21fd      	movs	r1, #253	@ 0xfd
 8001582:	404b      	eors	r3, r1
 8001584:	7153      	strb	r3, [r2, #5]
 8001586:	2200      	movs	r2, #0
 8001588:	4905      	ldr	r1, [pc, #20]	@ (80015a0 <set_m2_target_steps+0x40>)
 800158a:	700b      	strb	r3, [r1, #0]
 800158c:	4b05      	ldr	r3, [pc, #20]	@ (80015a4 <set_m2_target_steps+0x44>)
 800158e:	701a      	strb	r2, [r3, #0]
 8001590:	bd10      	pop	{r4, pc}
 8001592:	46c0      	nop			@ (mov r8, r8)
 8001594:	200005c1 	.word	0x200005c1
 8001598:	2000026c 	.word	0x2000026c
 800159c:	200002bc 	.word	0x200002bc
 80015a0:	200002ac 	.word	0x200002ac
 80015a4:	2000013e 	.word	0x2000013e

080015a8 <set_m2_step_interval>:
 80015a8:	2204      	movs	r2, #4
 80015aa:	b510      	push	{r4, lr}
 80015ac:	490b      	ldr	r1, [pc, #44]	@ (80015dc <set_m2_step_interval+0x34>)
 80015ae:	480c      	ldr	r0, [pc, #48]	@ (80015e0 <set_m2_step_interval+0x38>)
 80015b0:	f008 f8f0 	bl	8009794 <memcpy>
 80015b4:	23fd      	movs	r3, #253	@ 0xfd
 80015b6:	4a0b      	ldr	r2, [pc, #44]	@ (80015e4 <set_m2_step_interval+0x3c>)
 80015b8:	7911      	ldrb	r1, [r2, #4]
 80015ba:	7013      	strb	r3, [r2, #0]
 80015bc:	7853      	ldrb	r3, [r2, #1]
 80015be:	404b      	eors	r3, r1
 80015c0:	7891      	ldrb	r1, [r2, #2]
 80015c2:	404b      	eors	r3, r1
 80015c4:	78d1      	ldrb	r1, [r2, #3]
 80015c6:	404b      	eors	r3, r1
 80015c8:	21fd      	movs	r1, #253	@ 0xfd
 80015ca:	404b      	eors	r3, r1
 80015cc:	7153      	strb	r3, [r2, #5]
 80015ce:	2200      	movs	r2, #0
 80015d0:	4905      	ldr	r1, [pc, #20]	@ (80015e8 <set_m2_step_interval+0x40>)
 80015d2:	700b      	strb	r3, [r1, #0]
 80015d4:	4b05      	ldr	r3, [pc, #20]	@ (80015ec <set_m2_step_interval+0x44>)
 80015d6:	701a      	strb	r2, [r3, #0]
 80015d8:	bd10      	pop	{r4, pc}
 80015da:	46c0      	nop			@ (mov r8, r8)
 80015dc:	200005c1 	.word	0x200005c1
 80015e0:	20000128 	.word	0x20000128
 80015e4:	200002bc 	.word	0x200002bc
 80015e8:	200002ac 	.word	0x200002ac
 80015ec:	2000013e 	.word	0x2000013e

080015f0 <set_m3_steps>:
 80015f0:	b510      	push	{r4, lr}
 80015f2:	4c0e      	ldr	r4, [pc, #56]	@ (800162c <set_m3_steps+0x3c>)
 80015f4:	2204      	movs	r2, #4
 80015f6:	0020      	movs	r0, r4
 80015f8:	490d      	ldr	r1, [pc, #52]	@ (8001630 <set_m3_steps+0x40>)
 80015fa:	f008 f8cb 	bl	8009794 <memcpy>
 80015fe:	4b0d      	ldr	r3, [pc, #52]	@ (8001634 <set_m3_steps+0x44>)
 8001600:	6822      	ldr	r2, [r4, #0]
 8001602:	601a      	str	r2, [r3, #0]
 8001604:	23fd      	movs	r3, #253	@ 0xfd
 8001606:	4a0c      	ldr	r2, [pc, #48]	@ (8001638 <set_m3_steps+0x48>)
 8001608:	7911      	ldrb	r1, [r2, #4]
 800160a:	7013      	strb	r3, [r2, #0]
 800160c:	7853      	ldrb	r3, [r2, #1]
 800160e:	404b      	eors	r3, r1
 8001610:	7891      	ldrb	r1, [r2, #2]
 8001612:	404b      	eors	r3, r1
 8001614:	78d1      	ldrb	r1, [r2, #3]
 8001616:	404b      	eors	r3, r1
 8001618:	21fd      	movs	r1, #253	@ 0xfd
 800161a:	404b      	eors	r3, r1
 800161c:	7153      	strb	r3, [r2, #5]
 800161e:	2200      	movs	r2, #0
 8001620:	4906      	ldr	r1, [pc, #24]	@ (800163c <set_m3_steps+0x4c>)
 8001622:	700b      	strb	r3, [r1, #0]
 8001624:	4b06      	ldr	r3, [pc, #24]	@ (8001640 <set_m3_steps+0x50>)
 8001626:	701a      	strb	r2, [r3, #0]
 8001628:	bd10      	pop	{r4, pc}
 800162a:	46c0      	nop			@ (mov r8, r8)
 800162c:	20000260 	.word	0x20000260
 8001630:	200005c1 	.word	0x200005c1
 8001634:	2000025c 	.word	0x2000025c
 8001638:	200002bc 	.word	0x200002bc
 800163c:	200002ac 	.word	0x200002ac
 8001640:	2000013e 	.word	0x2000013e

08001644 <set_m3_target_steps>:
 8001644:	2204      	movs	r2, #4
 8001646:	b510      	push	{r4, lr}
 8001648:	490b      	ldr	r1, [pc, #44]	@ (8001678 <set_m3_target_steps+0x34>)
 800164a:	480c      	ldr	r0, [pc, #48]	@ (800167c <set_m3_target_steps+0x38>)
 800164c:	f008 f8a2 	bl	8009794 <memcpy>
 8001650:	23fd      	movs	r3, #253	@ 0xfd
 8001652:	4a0b      	ldr	r2, [pc, #44]	@ (8001680 <set_m3_target_steps+0x3c>)
 8001654:	7911      	ldrb	r1, [r2, #4]
 8001656:	7013      	strb	r3, [r2, #0]
 8001658:	7853      	ldrb	r3, [r2, #1]
 800165a:	404b      	eors	r3, r1
 800165c:	7891      	ldrb	r1, [r2, #2]
 800165e:	404b      	eors	r3, r1
 8001660:	78d1      	ldrb	r1, [r2, #3]
 8001662:	404b      	eors	r3, r1
 8001664:	21fd      	movs	r1, #253	@ 0xfd
 8001666:	404b      	eors	r3, r1
 8001668:	7153      	strb	r3, [r2, #5]
 800166a:	2200      	movs	r2, #0
 800166c:	4905      	ldr	r1, [pc, #20]	@ (8001684 <set_m3_target_steps+0x40>)
 800166e:	700b      	strb	r3, [r1, #0]
 8001670:	4b05      	ldr	r3, [pc, #20]	@ (8001688 <set_m3_target_steps+0x44>)
 8001672:	701a      	strb	r2, [r3, #0]
 8001674:	bd10      	pop	{r4, pc}
 8001676:	46c0      	nop			@ (mov r8, r8)
 8001678:	200005c1 	.word	0x200005c1
 800167c:	2000025c 	.word	0x2000025c
 8001680:	200002bc 	.word	0x200002bc
 8001684:	200002ac 	.word	0x200002ac
 8001688:	2000013e 	.word	0x2000013e

0800168c <set_m3_step_interval>:
 800168c:	2204      	movs	r2, #4
 800168e:	b510      	push	{r4, lr}
 8001690:	490b      	ldr	r1, [pc, #44]	@ (80016c0 <set_m3_step_interval+0x34>)
 8001692:	480c      	ldr	r0, [pc, #48]	@ (80016c4 <set_m3_step_interval+0x38>)
 8001694:	f008 f87e 	bl	8009794 <memcpy>
 8001698:	23fd      	movs	r3, #253	@ 0xfd
 800169a:	4a0b      	ldr	r2, [pc, #44]	@ (80016c8 <set_m3_step_interval+0x3c>)
 800169c:	7911      	ldrb	r1, [r2, #4]
 800169e:	7013      	strb	r3, [r2, #0]
 80016a0:	7853      	ldrb	r3, [r2, #1]
 80016a2:	404b      	eors	r3, r1
 80016a4:	7891      	ldrb	r1, [r2, #2]
 80016a6:	404b      	eors	r3, r1
 80016a8:	78d1      	ldrb	r1, [r2, #3]
 80016aa:	404b      	eors	r3, r1
 80016ac:	21fd      	movs	r1, #253	@ 0xfd
 80016ae:	404b      	eors	r3, r1
 80016b0:	7153      	strb	r3, [r2, #5]
 80016b2:	2200      	movs	r2, #0
 80016b4:	4905      	ldr	r1, [pc, #20]	@ (80016cc <set_m3_step_interval+0x40>)
 80016b6:	700b      	strb	r3, [r1, #0]
 80016b8:	4b05      	ldr	r3, [pc, #20]	@ (80016d0 <set_m3_step_interval+0x44>)
 80016ba:	701a      	strb	r2, [r3, #0]
 80016bc:	bd10      	pop	{r4, pc}
 80016be:	46c0      	nop			@ (mov r8, r8)
 80016c0:	200005c1 	.word	0x200005c1
 80016c4:	20000120 	.word	0x20000120
 80016c8:	200002bc 	.word	0x200002bc
 80016cc:	200002ac 	.word	0x200002ac
 80016d0:	2000013e 	.word	0x2000013e

080016d4 <set_m0_usteps_exp>:
 80016d4:	200f      	movs	r0, #15
 80016d6:	b510      	push	{r4, lr}
 80016d8:	4911      	ldr	r1, [pc, #68]	@ (8001720 <set_m0_usteps_exp+0x4c>)
 80016da:	4b12      	ldr	r3, [pc, #72]	@ (8001724 <set_m0_usteps_exp+0x50>)
 80016dc:	4a12      	ldr	r2, [pc, #72]	@ (8001728 <set_m0_usteps_exp+0x54>)
 80016de:	7849      	ldrb	r1, [r1, #1]
 80016e0:	5c51      	ldrb	r1, [r2, r1]
 80016e2:	7ada      	ldrb	r2, [r3, #11]
 80016e4:	4001      	ands	r1, r0
 80016e6:	4382      	bics	r2, r0
 80016e8:	430a      	orrs	r2, r1
 80016ea:	2134      	movs	r1, #52	@ 0x34
 80016ec:	72da      	strb	r2, [r3, #11]
 80016ee:	689a      	ldr	r2, [r3, #8]
 80016f0:	5c58      	ldrb	r0, [r3, r1]
 80016f2:	3138      	adds	r1, #56	@ 0x38
 80016f4:	f001 f986 	bl	8002a04 <TMC2209_WriteRegister>
 80016f8:	23fd      	movs	r3, #253	@ 0xfd
 80016fa:	4a0c      	ldr	r2, [pc, #48]	@ (800172c <set_m0_usteps_exp+0x58>)
 80016fc:	7911      	ldrb	r1, [r2, #4]
 80016fe:	7013      	strb	r3, [r2, #0]
 8001700:	7853      	ldrb	r3, [r2, #1]
 8001702:	404b      	eors	r3, r1
 8001704:	7891      	ldrb	r1, [r2, #2]
 8001706:	404b      	eors	r3, r1
 8001708:	78d1      	ldrb	r1, [r2, #3]
 800170a:	404b      	eors	r3, r1
 800170c:	21fd      	movs	r1, #253	@ 0xfd
 800170e:	404b      	eors	r3, r1
 8001710:	7153      	strb	r3, [r2, #5]
 8001712:	2200      	movs	r2, #0
 8001714:	4906      	ldr	r1, [pc, #24]	@ (8001730 <set_m0_usteps_exp+0x5c>)
 8001716:	700b      	strb	r3, [r1, #0]
 8001718:	4b06      	ldr	r3, [pc, #24]	@ (8001734 <set_m0_usteps_exp+0x60>)
 800171a:	701a      	strb	r2, [r3, #0]
 800171c:	bd10      	pop	{r4, pc}
 800171e:	46c0      	nop			@ (mov r8, r8)
 8001720:	200005c0 	.word	0x200005c0
 8001724:	200008c0 	.word	0x200008c0
 8001728:	20000114 	.word	0x20000114
 800172c:	200002bc 	.word	0x200002bc
 8001730:	200002ac 	.word	0x200002ac
 8001734:	2000013e 	.word	0x2000013e

08001738 <set_m1_usteps_exp>:
 8001738:	4b12      	ldr	r3, [pc, #72]	@ (8001784 <set_m1_usteps_exp+0x4c>)
 800173a:	b510      	push	{r4, lr}
 800173c:	0018      	movs	r0, r3
 800173e:	240f      	movs	r4, #15
 8001740:	4911      	ldr	r1, [pc, #68]	@ (8001788 <set_m1_usteps_exp+0x50>)
 8001742:	4a12      	ldr	r2, [pc, #72]	@ (800178c <set_m1_usteps_exp+0x54>)
 8001744:	7849      	ldrb	r1, [r1, #1]
 8001746:	3040      	adds	r0, #64	@ 0x40
 8001748:	5c51      	ldrb	r1, [r2, r1]
 800174a:	78c2      	ldrb	r2, [r0, #3]
 800174c:	4021      	ands	r1, r4
 800174e:	43a2      	bics	r2, r4
 8001750:	430a      	orrs	r2, r1
 8001752:	216c      	movs	r1, #108	@ 0x6c
 8001754:	70c2      	strb	r2, [r0, #3]
 8001756:	6c1a      	ldr	r2, [r3, #64]	@ 0x40
 8001758:	5c58      	ldrb	r0, [r3, r1]
 800175a:	f001 f953 	bl	8002a04 <TMC2209_WriteRegister>
 800175e:	23fd      	movs	r3, #253	@ 0xfd
 8001760:	4a0b      	ldr	r2, [pc, #44]	@ (8001790 <set_m1_usteps_exp+0x58>)
 8001762:	7911      	ldrb	r1, [r2, #4]
 8001764:	7013      	strb	r3, [r2, #0]
 8001766:	7853      	ldrb	r3, [r2, #1]
 8001768:	404b      	eors	r3, r1
 800176a:	7891      	ldrb	r1, [r2, #2]
 800176c:	404b      	eors	r3, r1
 800176e:	78d1      	ldrb	r1, [r2, #3]
 8001770:	404b      	eors	r3, r1
 8001772:	21fd      	movs	r1, #253	@ 0xfd
 8001774:	404b      	eors	r3, r1
 8001776:	7153      	strb	r3, [r2, #5]
 8001778:	2200      	movs	r2, #0
 800177a:	4906      	ldr	r1, [pc, #24]	@ (8001794 <set_m1_usteps_exp+0x5c>)
 800177c:	700b      	strb	r3, [r1, #0]
 800177e:	4b06      	ldr	r3, [pc, #24]	@ (8001798 <set_m1_usteps_exp+0x60>)
 8001780:	701a      	strb	r2, [r3, #0]
 8001782:	bd10      	pop	{r4, pc}
 8001784:	200008c0 	.word	0x200008c0
 8001788:	200005c0 	.word	0x200005c0
 800178c:	20000114 	.word	0x20000114
 8001790:	200002bc 	.word	0x200002bc
 8001794:	200002ac 	.word	0x200002ac
 8001798:	2000013e 	.word	0x2000013e

0800179c <set_m2_usteps_exp>:
 800179c:	4b13      	ldr	r3, [pc, #76]	@ (80017ec <set_m2_usteps_exp+0x50>)
 800179e:	b510      	push	{r4, lr}
 80017a0:	0018      	movs	r0, r3
 80017a2:	240f      	movs	r4, #15
 80017a4:	4912      	ldr	r1, [pc, #72]	@ (80017f0 <set_m2_usteps_exp+0x54>)
 80017a6:	4a13      	ldr	r2, [pc, #76]	@ (80017f4 <set_m2_usteps_exp+0x58>)
 80017a8:	7849      	ldrb	r1, [r1, #1]
 80017aa:	3078      	adds	r0, #120	@ 0x78
 80017ac:	5c51      	ldrb	r1, [r2, r1]
 80017ae:	78c2      	ldrb	r2, [r0, #3]
 80017b0:	4021      	ands	r1, r4
 80017b2:	43a2      	bics	r2, r4
 80017b4:	430a      	orrs	r2, r1
 80017b6:	21a4      	movs	r1, #164	@ 0xa4
 80017b8:	70c2      	strb	r2, [r0, #3]
 80017ba:	6f9a      	ldr	r2, [r3, #120]	@ 0x78
 80017bc:	5c58      	ldrb	r0, [r3, r1]
 80017be:	3938      	subs	r1, #56	@ 0x38
 80017c0:	f001 f920 	bl	8002a04 <TMC2209_WriteRegister>
 80017c4:	23fd      	movs	r3, #253	@ 0xfd
 80017c6:	4a0c      	ldr	r2, [pc, #48]	@ (80017f8 <set_m2_usteps_exp+0x5c>)
 80017c8:	7911      	ldrb	r1, [r2, #4]
 80017ca:	7013      	strb	r3, [r2, #0]
 80017cc:	7853      	ldrb	r3, [r2, #1]
 80017ce:	404b      	eors	r3, r1
 80017d0:	7891      	ldrb	r1, [r2, #2]
 80017d2:	404b      	eors	r3, r1
 80017d4:	78d1      	ldrb	r1, [r2, #3]
 80017d6:	404b      	eors	r3, r1
 80017d8:	21fd      	movs	r1, #253	@ 0xfd
 80017da:	404b      	eors	r3, r1
 80017dc:	7153      	strb	r3, [r2, #5]
 80017de:	2200      	movs	r2, #0
 80017e0:	4906      	ldr	r1, [pc, #24]	@ (80017fc <set_m2_usteps_exp+0x60>)
 80017e2:	700b      	strb	r3, [r1, #0]
 80017e4:	4b06      	ldr	r3, [pc, #24]	@ (8001800 <set_m2_usteps_exp+0x64>)
 80017e6:	701a      	strb	r2, [r3, #0]
 80017e8:	bd10      	pop	{r4, pc}
 80017ea:	46c0      	nop			@ (mov r8, r8)
 80017ec:	200008c0 	.word	0x200008c0
 80017f0:	200005c0 	.word	0x200005c0
 80017f4:	20000114 	.word	0x20000114
 80017f8:	200002bc 	.word	0x200002bc
 80017fc:	200002ac 	.word	0x200002ac
 8001800:	2000013e 	.word	0x2000013e

08001804 <set_m3_usteps_exp>:
 8001804:	4b13      	ldr	r3, [pc, #76]	@ (8001854 <set_m3_usteps_exp+0x50>)
 8001806:	b510      	push	{r4, lr}
 8001808:	0018      	movs	r0, r3
 800180a:	240f      	movs	r4, #15
 800180c:	4912      	ldr	r1, [pc, #72]	@ (8001858 <set_m3_usteps_exp+0x54>)
 800180e:	4a13      	ldr	r2, [pc, #76]	@ (800185c <set_m3_usteps_exp+0x58>)
 8001810:	7849      	ldrb	r1, [r1, #1]
 8001812:	30b0      	adds	r0, #176	@ 0xb0
 8001814:	5c51      	ldrb	r1, [r2, r1]
 8001816:	78c2      	ldrb	r2, [r0, #3]
 8001818:	4021      	ands	r1, r4
 800181a:	43a2      	bics	r2, r4
 800181c:	430a      	orrs	r2, r1
 800181e:	70c2      	strb	r2, [r0, #3]
 8001820:	21dc      	movs	r1, #220	@ 0xdc
 8001822:	22b0      	movs	r2, #176	@ 0xb0
 8001824:	5c58      	ldrb	r0, [r3, r1]
 8001826:	589a      	ldr	r2, [r3, r2]
 8001828:	3970      	subs	r1, #112	@ 0x70
 800182a:	f001 f8eb 	bl	8002a04 <TMC2209_WriteRegister>
 800182e:	23fd      	movs	r3, #253	@ 0xfd
 8001830:	4a0b      	ldr	r2, [pc, #44]	@ (8001860 <set_m3_usteps_exp+0x5c>)
 8001832:	7911      	ldrb	r1, [r2, #4]
 8001834:	7013      	strb	r3, [r2, #0]
 8001836:	7853      	ldrb	r3, [r2, #1]
 8001838:	404b      	eors	r3, r1
 800183a:	7891      	ldrb	r1, [r2, #2]
 800183c:	404b      	eors	r3, r1
 800183e:	78d1      	ldrb	r1, [r2, #3]
 8001840:	404b      	eors	r3, r1
 8001842:	21fd      	movs	r1, #253	@ 0xfd
 8001844:	404b      	eors	r3, r1
 8001846:	7153      	strb	r3, [r2, #5]
 8001848:	2200      	movs	r2, #0
 800184a:	4906      	ldr	r1, [pc, #24]	@ (8001864 <set_m3_usteps_exp+0x60>)
 800184c:	700b      	strb	r3, [r1, #0]
 800184e:	4b06      	ldr	r3, [pc, #24]	@ (8001868 <set_m3_usteps_exp+0x64>)
 8001850:	701a      	strb	r2, [r3, #0]
 8001852:	bd10      	pop	{r4, pc}
 8001854:	200008c0 	.word	0x200008c0
 8001858:	200005c0 	.word	0x200005c0
 800185c:	20000114 	.word	0x20000114
 8001860:	200002bc 	.word	0x200002bc
 8001864:	200002ac 	.word	0x200002ac
 8001868:	2000013e 	.word	0x2000013e

0800186c <set_m3_running>:
 800186c:	b510      	push	{r4, lr}
 800186e:	4b18      	ldr	r3, [pc, #96]	@ (80018d0 <set_m3_running+0x64>)
 8001870:	785a      	ldrb	r2, [r3, #1]
 8001872:	0013      	movs	r3, r2
 8001874:	1e59      	subs	r1, r3, #1
 8001876:	418b      	sbcs	r3, r1
 8001878:	4916      	ldr	r1, [pc, #88]	@ (80018d4 <set_m3_running+0x68>)
 800187a:	b2dc      	uxtb	r4, r3
 800187c:	7808      	ldrb	r0, [r1, #0]
 800187e:	4298      	cmp	r0, r3
 8001880:	d002      	beq.n	8001888 <set_m3_running+0x1c>
 8001882:	700c      	strb	r4, [r1, #0]
 8001884:	2a00      	cmp	r2, #0
 8001886:	d112      	bne.n	80018ae <set_m3_running+0x42>
 8001888:	23fd      	movs	r3, #253	@ 0xfd
 800188a:	4a13      	ldr	r2, [pc, #76]	@ (80018d8 <set_m3_running+0x6c>)
 800188c:	7911      	ldrb	r1, [r2, #4]
 800188e:	7013      	strb	r3, [r2, #0]
 8001890:	7853      	ldrb	r3, [r2, #1]
 8001892:	404b      	eors	r3, r1
 8001894:	7891      	ldrb	r1, [r2, #2]
 8001896:	404b      	eors	r3, r1
 8001898:	78d1      	ldrb	r1, [r2, #3]
 800189a:	404b      	eors	r3, r1
 800189c:	21fd      	movs	r1, #253	@ 0xfd
 800189e:	404b      	eors	r3, r1
 80018a0:	7153      	strb	r3, [r2, #5]
 80018a2:	2200      	movs	r2, #0
 80018a4:	490d      	ldr	r1, [pc, #52]	@ (80018dc <set_m3_running+0x70>)
 80018a6:	700b      	strb	r3, [r1, #0]
 80018a8:	4b0d      	ldr	r3, [pc, #52]	@ (80018e0 <set_m3_running+0x74>)
 80018aa:	701a      	strb	r2, [r3, #0]
 80018ac:	bd10      	pop	{r4, pc}
 80018ae:	2200      	movs	r2, #0
 80018b0:	4b0c      	ldr	r3, [pc, #48]	@ (80018e4 <set_m3_running+0x78>)
 80018b2:	2108      	movs	r1, #8
 80018b4:	480c      	ldr	r0, [pc, #48]	@ (80018e8 <set_m3_running+0x7c>)
 80018b6:	701a      	strb	r2, [r3, #0]
 80018b8:	f002 fb86 	bl	8003fc8 <HAL_GPIO_WritePin>
 80018bc:	2380      	movs	r3, #128	@ 0x80
 80018be:	490b      	ldr	r1, [pc, #44]	@ (80018ec <set_m3_running+0x80>)
 80018c0:	05db      	lsls	r3, r3, #23
 80018c2:	6a5b      	ldr	r3, [r3, #36]	@ 0x24
 80018c4:	6809      	ldr	r1, [r1, #0]
 80018c6:	4a0a      	ldr	r2, [pc, #40]	@ (80018f0 <set_m3_running+0x84>)
 80018c8:	1a5b      	subs	r3, r3, r1
 80018ca:	6013      	str	r3, [r2, #0]
 80018cc:	e7dc      	b.n	8001888 <set_m3_running+0x1c>
 80018ce:	46c0      	nop			@ (mov r8, r8)
 80018d0:	200005c0 	.word	0x200005c0
 80018d4:	20000268 	.word	0x20000268
 80018d8:	200002bc 	.word	0x200002bc
 80018dc:	200002ac 	.word	0x200002ac
 80018e0:	2000013e 	.word	0x2000013e
 80018e4:	2000025a 	.word	0x2000025a
 80018e8:	50000400 	.word	0x50000400
 80018ec:	20000120 	.word	0x20000120
 80018f0:	20000264 	.word	0x20000264

080018f4 <get_m3_var_ustep_support>:
 80018f4:	2301      	movs	r3, #1
 80018f6:	4a0a      	ldr	r2, [pc, #40]	@ (8001920 <get_m3_var_ustep_support+0x2c>)
 80018f8:	7053      	strb	r3, [r2, #1]
 80018fa:	4b0a      	ldr	r3, [pc, #40]	@ (8001924 <get_m3_var_ustep_support+0x30>)
 80018fc:	7911      	ldrb	r1, [r2, #4]
 80018fe:	781b      	ldrb	r3, [r3, #0]
 8001900:	7013      	strb	r3, [r2, #0]
 8001902:	404b      	eors	r3, r1
 8001904:	7891      	ldrb	r1, [r2, #2]
 8001906:	404b      	eors	r3, r1
 8001908:	78d1      	ldrb	r1, [r2, #3]
 800190a:	404b      	eors	r3, r1
 800190c:	2101      	movs	r1, #1
 800190e:	404b      	eors	r3, r1
 8001910:	7153      	strb	r3, [r2, #5]
 8001912:	2200      	movs	r2, #0
 8001914:	4904      	ldr	r1, [pc, #16]	@ (8001928 <get_m3_var_ustep_support+0x34>)
 8001916:	700b      	strb	r3, [r1, #0]
 8001918:	4b04      	ldr	r3, [pc, #16]	@ (800192c <get_m3_var_ustep_support+0x38>)
 800191a:	701a      	strb	r2, [r3, #0]
 800191c:	4770      	bx	lr
 800191e:	46c0      	nop			@ (mov r8, r8)
 8001920:	200002bc 	.word	0x200002bc
 8001924:	200005c0 	.word	0x200005c0
 8001928:	200002ac 	.word	0x200002ac
 800192c:	2000013e 	.word	0x2000013e

08001930 <get_m1_var_ustep_support>:
 8001930:	2301      	movs	r3, #1
 8001932:	4a0a      	ldr	r2, [pc, #40]	@ (800195c <get_m1_var_ustep_support+0x2c>)
 8001934:	7053      	strb	r3, [r2, #1]
 8001936:	4b0a      	ldr	r3, [pc, #40]	@ (8001960 <get_m1_var_ustep_support+0x30>)
 8001938:	7911      	ldrb	r1, [r2, #4]
 800193a:	781b      	ldrb	r3, [r3, #0]
 800193c:	7013      	strb	r3, [r2, #0]
 800193e:	404b      	eors	r3, r1
 8001940:	7891      	ldrb	r1, [r2, #2]
 8001942:	404b      	eors	r3, r1
 8001944:	78d1      	ldrb	r1, [r2, #3]
 8001946:	404b      	eors	r3, r1
 8001948:	2101      	movs	r1, #1
 800194a:	404b      	eors	r3, r1
 800194c:	7153      	strb	r3, [r2, #5]
 800194e:	2200      	movs	r2, #0
 8001950:	4904      	ldr	r1, [pc, #16]	@ (8001964 <get_m1_var_ustep_support+0x34>)
 8001952:	700b      	strb	r3, [r1, #0]
 8001954:	4b04      	ldr	r3, [pc, #16]	@ (8001968 <get_m1_var_ustep_support+0x38>)
 8001956:	701a      	strb	r2, [r3, #0]
 8001958:	4770      	bx	lr
 800195a:	46c0      	nop			@ (mov r8, r8)
 800195c:	200002bc 	.word	0x200002bc
 8001960:	200005c0 	.word	0x200005c0
 8001964:	200002ac 	.word	0x200002ac
 8001968:	2000013e 	.word	0x2000013e

0800196c <get_m2_var_ustep_support>:
 800196c:	2301      	movs	r3, #1
 800196e:	4a0a      	ldr	r2, [pc, #40]	@ (8001998 <get_m2_var_ustep_support+0x2c>)
 8001970:	7053      	strb	r3, [r2, #1]
 8001972:	4b0a      	ldr	r3, [pc, #40]	@ (800199c <get_m2_var_ustep_support+0x30>)
 8001974:	7911      	ldrb	r1, [r2, #4]
 8001976:	781b      	ldrb	r3, [r3, #0]
 8001978:	7013      	strb	r3, [r2, #0]
 800197a:	404b      	eors	r3, r1
 800197c:	7891      	ldrb	r1, [r2, #2]
 800197e:	404b      	eors	r3, r1
 8001980:	78d1      	ldrb	r1, [r2, #3]
 8001982:	404b      	eors	r3, r1
 8001984:	2101      	movs	r1, #1
 8001986:	404b      	eors	r3, r1
 8001988:	7153      	strb	r3, [r2, #5]
 800198a:	2200      	movs	r2, #0
 800198c:	4904      	ldr	r1, [pc, #16]	@ (80019a0 <get_m2_var_ustep_support+0x34>)
 800198e:	700b      	strb	r3, [r1, #0]
 8001990:	4b04      	ldr	r3, [pc, #16]	@ (80019a4 <get_m2_var_ustep_support+0x38>)
 8001992:	701a      	strb	r2, [r3, #0]
 8001994:	4770      	bx	lr
 8001996:	46c0      	nop			@ (mov r8, r8)
 8001998:	200002bc 	.word	0x200002bc
 800199c:	200005c0 	.word	0x200005c0
 80019a0:	200002ac 	.word	0x200002ac
 80019a4:	2000013e 	.word	0x2000013e

080019a8 <set_m0_running>:
 80019a8:	b510      	push	{r4, lr}
 80019aa:	4b18      	ldr	r3, [pc, #96]	@ (8001a0c <set_m0_running+0x64>)
 80019ac:	785a      	ldrb	r2, [r3, #1]
 80019ae:	0013      	movs	r3, r2
 80019b0:	1e59      	subs	r1, r3, #1
 80019b2:	418b      	sbcs	r3, r1
 80019b4:	4916      	ldr	r1, [pc, #88]	@ (8001a10 <set_m0_running+0x68>)
 80019b6:	b2dc      	uxtb	r4, r3
 80019b8:	7808      	ldrb	r0, [r1, #0]
 80019ba:	4298      	cmp	r0, r3
 80019bc:	d002      	beq.n	80019c4 <set_m0_running+0x1c>
 80019be:	700c      	strb	r4, [r1, #0]
 80019c0:	2a00      	cmp	r2, #0
 80019c2:	d112      	bne.n	80019ea <set_m0_running+0x42>
 80019c4:	23fd      	movs	r3, #253	@ 0xfd
 80019c6:	4a13      	ldr	r2, [pc, #76]	@ (8001a14 <set_m0_running+0x6c>)
 80019c8:	7911      	ldrb	r1, [r2, #4]
 80019ca:	7013      	strb	r3, [r2, #0]
 80019cc:	7853      	ldrb	r3, [r2, #1]
 80019ce:	404b      	eors	r3, r1
 80019d0:	7891      	ldrb	r1, [r2, #2]
 80019d2:	404b      	eors	r3, r1
 80019d4:	78d1      	ldrb	r1, [r2, #3]
 80019d6:	404b      	eors	r3, r1
 80019d8:	21fd      	movs	r1, #253	@ 0xfd
 80019da:	404b      	eors	r3, r1
 80019dc:	7153      	strb	r3, [r2, #5]
 80019de:	2200      	movs	r2, #0
 80019e0:	490d      	ldr	r1, [pc, #52]	@ (8001a18 <set_m0_running+0x70>)
 80019e2:	700b      	strb	r3, [r1, #0]
 80019e4:	4b0d      	ldr	r3, [pc, #52]	@ (8001a1c <set_m0_running+0x74>)
 80019e6:	701a      	strb	r2, [r3, #0]
 80019e8:	bd10      	pop	{r4, pc}
 80019ea:	2180      	movs	r1, #128	@ 0x80
 80019ec:	2200      	movs	r2, #0
 80019ee:	4b0c      	ldr	r3, [pc, #48]	@ (8001a20 <set_m0_running+0x78>)
 80019f0:	0189      	lsls	r1, r1, #6
 80019f2:	480c      	ldr	r0, [pc, #48]	@ (8001a24 <set_m0_running+0x7c>)
 80019f4:	701a      	strb	r2, [r3, #0]
 80019f6:	f002 fae7 	bl	8003fc8 <HAL_GPIO_WritePin>
 80019fa:	2380      	movs	r3, #128	@ 0x80
 80019fc:	490a      	ldr	r1, [pc, #40]	@ (8001a28 <set_m0_running+0x80>)
 80019fe:	05db      	lsls	r3, r3, #23
 8001a00:	6a5b      	ldr	r3, [r3, #36]	@ 0x24
 8001a02:	6809      	ldr	r1, [r1, #0]
 8001a04:	4a09      	ldr	r2, [pc, #36]	@ (8001a2c <set_m0_running+0x84>)
 8001a06:	1a5b      	subs	r3, r3, r1
 8001a08:	6013      	str	r3, [r2, #0]
 8001a0a:	e7db      	b.n	80019c4 <set_m0_running+0x1c>
 8001a0c:	200005c0 	.word	0x200005c0
 8001a10:	20000298 	.word	0x20000298
 8001a14:	200002bc 	.word	0x200002bc
 8001a18:	200002ac 	.word	0x200002ac
 8001a1c:	2000013e 	.word	0x2000013e
 8001a20:	2000028a 	.word	0x2000028a
 8001a24:	50000400 	.word	0x50000400
 8001a28:	20000138 	.word	0x20000138
 8001a2c:	20000294 	.word	0x20000294

08001a30 <set_m1_running>:
 8001a30:	b510      	push	{r4, lr}
 8001a32:	4b18      	ldr	r3, [pc, #96]	@ (8001a94 <set_m1_running+0x64>)
 8001a34:	785a      	ldrb	r2, [r3, #1]
 8001a36:	0013      	movs	r3, r2
 8001a38:	1e59      	subs	r1, r3, #1
 8001a3a:	418b      	sbcs	r3, r1
 8001a3c:	4916      	ldr	r1, [pc, #88]	@ (8001a98 <set_m1_running+0x68>)
 8001a3e:	b2dc      	uxtb	r4, r3
 8001a40:	7808      	ldrb	r0, [r1, #0]
 8001a42:	4298      	cmp	r0, r3
 8001a44:	d002      	beq.n	8001a4c <set_m1_running+0x1c>
 8001a46:	700c      	strb	r4, [r1, #0]
 8001a48:	2a00      	cmp	r2, #0
 8001a4a:	d112      	bne.n	8001a72 <set_m1_running+0x42>
 8001a4c:	23fd      	movs	r3, #253	@ 0xfd
 8001a4e:	4a13      	ldr	r2, [pc, #76]	@ (8001a9c <set_m1_running+0x6c>)
 8001a50:	7911      	ldrb	r1, [r2, #4]
 8001a52:	7013      	strb	r3, [r2, #0]
 8001a54:	7853      	ldrb	r3, [r2, #1]
 8001a56:	404b      	eors	r3, r1
 8001a58:	7891      	ldrb	r1, [r2, #2]
 8001a5a:	404b      	eors	r3, r1
 8001a5c:	78d1      	ldrb	r1, [r2, #3]
 8001a5e:	404b      	eors	r3, r1
 8001a60:	21fd      	movs	r1, #253	@ 0xfd
 8001a62:	404b      	eors	r3, r1
 8001a64:	7153      	strb	r3, [r2, #5]
 8001a66:	2200      	movs	r2, #0
 8001a68:	490d      	ldr	r1, [pc, #52]	@ (8001aa0 <set_m1_running+0x70>)
 8001a6a:	700b      	strb	r3, [r1, #0]
 8001a6c:	4b0d      	ldr	r3, [pc, #52]	@ (8001aa4 <set_m1_running+0x74>)
 8001a6e:	701a      	strb	r2, [r3, #0]
 8001a70:	bd10      	pop	{r4, pc}
 8001a72:	2180      	movs	r1, #128	@ 0x80
 8001a74:	2200      	movs	r2, #0
 8001a76:	4b0c      	ldr	r3, [pc, #48]	@ (8001aa8 <set_m1_running+0x78>)
 8001a78:	00c9      	lsls	r1, r1, #3
 8001a7a:	480c      	ldr	r0, [pc, #48]	@ (8001aac <set_m1_running+0x7c>)
 8001a7c:	701a      	strb	r2, [r3, #0]
 8001a7e:	f002 faa3 	bl	8003fc8 <HAL_GPIO_WritePin>
 8001a82:	2380      	movs	r3, #128	@ 0x80
 8001a84:	490a      	ldr	r1, [pc, #40]	@ (8001ab0 <set_m1_running+0x80>)
 8001a86:	05db      	lsls	r3, r3, #23
 8001a88:	6a5b      	ldr	r3, [r3, #36]	@ 0x24
 8001a8a:	6809      	ldr	r1, [r1, #0]
 8001a8c:	4a09      	ldr	r2, [pc, #36]	@ (8001ab4 <set_m1_running+0x84>)
 8001a8e:	1a5b      	subs	r3, r3, r1
 8001a90:	6013      	str	r3, [r2, #0]
 8001a92:	e7db      	b.n	8001a4c <set_m1_running+0x1c>
 8001a94:	200005c0 	.word	0x200005c0
 8001a98:	20000288 	.word	0x20000288
 8001a9c:	200002bc 	.word	0x200002bc
 8001aa0:	200002ac 	.word	0x200002ac
 8001aa4:	2000013e 	.word	0x2000013e
 8001aa8:	2000027a 	.word	0x2000027a
 8001aac:	50000400 	.word	0x50000400
 8001ab0:	20000130 	.word	0x20000130
 8001ab4:	20000284 	.word	0x20000284

08001ab8 <set_m2_running>:
 8001ab8:	b510      	push	{r4, lr}
 8001aba:	4b18      	ldr	r3, [pc, #96]	@ (8001b1c <set_m2_running+0x64>)
 8001abc:	785a      	ldrb	r2, [r3, #1]
 8001abe:	0013      	movs	r3, r2
 8001ac0:	1e59      	subs	r1, r3, #1
 8001ac2:	418b      	sbcs	r3, r1
 8001ac4:	4916      	ldr	r1, [pc, #88]	@ (8001b20 <set_m2_running+0x68>)
 8001ac6:	b2dc      	uxtb	r4, r3
 8001ac8:	7808      	ldrb	r0, [r1, #0]
 8001aca:	4298      	cmp	r0, r3
 8001acc:	d002      	beq.n	8001ad4 <set_m2_running+0x1c>
 8001ace:	700c      	strb	r4, [r1, #0]
 8001ad0:	2a00      	cmp	r2, #0
 8001ad2:	d112      	bne.n	8001afa <set_m2_running+0x42>
 8001ad4:	23fd      	movs	r3, #253	@ 0xfd
 8001ad6:	4a13      	ldr	r2, [pc, #76]	@ (8001b24 <set_m2_running+0x6c>)
 8001ad8:	7911      	ldrb	r1, [r2, #4]
 8001ada:	7013      	strb	r3, [r2, #0]
 8001adc:	7853      	ldrb	r3, [r2, #1]
 8001ade:	404b      	eors	r3, r1
 8001ae0:	7891      	ldrb	r1, [r2, #2]
 8001ae2:	404b      	eors	r3, r1
 8001ae4:	78d1      	ldrb	r1, [r2, #3]
 8001ae6:	404b      	eors	r3, r1
 8001ae8:	21fd      	movs	r1, #253	@ 0xfd
 8001aea:	404b      	eors	r3, r1
 8001aec:	7153      	strb	r3, [r2, #5]
 8001aee:	2200      	movs	r2, #0
 8001af0:	490d      	ldr	r1, [pc, #52]	@ (8001b28 <set_m2_running+0x70>)
 8001af2:	700b      	strb	r3, [r1, #0]
 8001af4:	4b0d      	ldr	r3, [pc, #52]	@ (8001b2c <set_m2_running+0x74>)
 8001af6:	701a      	strb	r2, [r3, #0]
 8001af8:	bd10      	pop	{r4, pc}
 8001afa:	2200      	movs	r2, #0
 8001afc:	4b0c      	ldr	r3, [pc, #48]	@ (8001b30 <set_m2_running+0x78>)
 8001afe:	2101      	movs	r1, #1
 8001b00:	480c      	ldr	r0, [pc, #48]	@ (8001b34 <set_m2_running+0x7c>)
 8001b02:	701a      	strb	r2, [r3, #0]
 8001b04:	f002 fa60 	bl	8003fc8 <HAL_GPIO_WritePin>
 8001b08:	2380      	movs	r3, #128	@ 0x80
 8001b0a:	490b      	ldr	r1, [pc, #44]	@ (8001b38 <set_m2_running+0x80>)
 8001b0c:	05db      	lsls	r3, r3, #23
 8001b0e:	6a5b      	ldr	r3, [r3, #36]	@ 0x24
 8001b10:	6809      	ldr	r1, [r1, #0]
 8001b12:	4a0a      	ldr	r2, [pc, #40]	@ (8001b3c <set_m2_running+0x84>)
 8001b14:	1a5b      	subs	r3, r3, r1
 8001b16:	6013      	str	r3, [r2, #0]
 8001b18:	e7dc      	b.n	8001ad4 <set_m2_running+0x1c>
 8001b1a:	46c0      	nop			@ (mov r8, r8)
 8001b1c:	200005c0 	.word	0x200005c0
 8001b20:	20000278 	.word	0x20000278
 8001b24:	200002bc 	.word	0x200002bc
 8001b28:	200002ac 	.word	0x200002ac
 8001b2c:	2000013e 	.word	0x2000013e
 8001b30:	2000026a 	.word	0x2000026a
 8001b34:	50000400 	.word	0x50000400
 8001b38:	20000128 	.word	0x20000128
 8001b3c:	20000274 	.word	0x20000274

08001b40 <process_commands_usb>:
 8001b40:	b570      	push	{r4, r5, r6, lr}
 8001b42:	4c44      	ldr	r4, [pc, #272]	@ (8001c54 <process_commands_usb+0x114>)
 8001b44:	7823      	ldrb	r3, [r4, #0]
 8001b46:	2b05      	cmp	r3, #5
 8001b48:	d92a      	bls.n	8001ba0 <process_commands_usb+0x60>
 8001b4a:	2b06      	cmp	r3, #6
 8001b4c:	d01a      	beq.n	8001b84 <process_commands_usb+0x44>
 8001b4e:	4a42      	ldr	r2, [pc, #264]	@ (8001c58 <process_commands_usb+0x118>)
 8001b50:	7813      	ldrb	r3, [r2, #0]
 8001b52:	2b06      	cmp	r3, #6
 8001b54:	d031      	beq.n	8001bba <process_commands_usb+0x7a>
 8001b56:	4941      	ldr	r1, [pc, #260]	@ (8001c5c <process_commands_usb+0x11c>)
 8001b58:	4d41      	ldr	r5, [pc, #260]	@ (8001c60 <process_commands_usb+0x120>)
 8001b5a:	780c      	ldrb	r4, [r1, #0]
 8001b5c:	7829      	ldrb	r1, [r5, #0]
 8001b5e:	428c      	cmp	r4, r1
 8001b60:	d14f      	bne.n	8001c02 <process_commands_usb+0xc2>
 8001b62:	2b00      	cmp	r3, #0
 8001b64:	d100      	bne.n	8001b68 <process_commands_usb+0x28>
 8001b66:	e06c      	b.n	8001c42 <process_commands_usb+0x102>
 8001b68:	2380      	movs	r3, #128	@ 0x80
 8001b6a:	493e      	ldr	r1, [pc, #248]	@ (8001c64 <process_commands_usb+0x124>)
 8001b6c:	05db      	lsls	r3, r3, #23
 8001b6e:	6809      	ldr	r1, [r1, #0]
 8001b70:	6a5b      	ldr	r3, [r3, #36]	@ 0x24
 8001b72:	2000      	movs	r0, #0
 8001b74:	1a5b      	subs	r3, r3, r1
 8001b76:	493c      	ldr	r1, [pc, #240]	@ (8001c68 <process_commands_usb+0x128>)
 8001b78:	428b      	cmp	r3, r1
 8001b7a:	d902      	bls.n	8001b82 <process_commands_usb+0x42>
 8001b7c:	7010      	strb	r0, [r2, #0]
 8001b7e:	2001      	movs	r0, #1
 8001b80:	702c      	strb	r4, [r5, #0]
 8001b82:	bd70      	pop	{r4, r5, r6, pc}
 8001b84:	2380      	movs	r3, #128	@ 0x80
 8001b86:	4a39      	ldr	r2, [pc, #228]	@ (8001c6c <process_commands_usb+0x12c>)
 8001b88:	05db      	lsls	r3, r3, #23
 8001b8a:	6812      	ldr	r2, [r2, #0]
 8001b8c:	6a5b      	ldr	r3, [r3, #36]	@ 0x24
 8001b8e:	2000      	movs	r0, #0
 8001b90:	1a9b      	subs	r3, r3, r2
 8001b92:	4a37      	ldr	r2, [pc, #220]	@ (8001c70 <process_commands_usb+0x130>)
 8001b94:	4293      	cmp	r3, r2
 8001b96:	d9f4      	bls.n	8001b82 <process_commands_usb+0x42>
 8001b98:	2307      	movs	r3, #7
 8001b9a:	2001      	movs	r0, #1
 8001b9c:	7023      	strb	r3, [r4, #0]
 8001b9e:	e7f0      	b.n	8001b82 <process_commands_usb+0x42>
 8001ba0:	2106      	movs	r1, #6
 8001ba2:	4834      	ldr	r0, [pc, #208]	@ (8001c74 <process_commands_usb+0x134>)
 8001ba4:	f007 fafc 	bl	80091a0 <CDC_Transmit_FS>
 8001ba8:	2380      	movs	r3, #128	@ 0x80
 8001baa:	05db      	lsls	r3, r3, #23
 8001bac:	6a5a      	ldr	r2, [r3, #36]	@ 0x24
 8001bae:	4b2f      	ldr	r3, [pc, #188]	@ (8001c6c <process_commands_usb+0x12c>)
 8001bb0:	2001      	movs	r0, #1
 8001bb2:	601a      	str	r2, [r3, #0]
 8001bb4:	2306      	movs	r3, #6
 8001bb6:	7023      	strb	r3, [r4, #0]
 8001bb8:	e7e3      	b.n	8001b82 <process_commands_usb+0x42>
 8001bba:	2100      	movs	r1, #0
 8001bbc:	7011      	strb	r1, [r2, #0]
 8001bbe:	4a2e      	ldr	r2, [pc, #184]	@ (8001c78 <process_commands_usb+0x138>)
 8001bc0:	7853      	ldrb	r3, [r2, #1]
 8001bc2:	7810      	ldrb	r0, [r2, #0]
 8001bc4:	7895      	ldrb	r5, [r2, #2]
 8001bc6:	4043      	eors	r3, r0
 8001bc8:	406b      	eors	r3, r5
 8001bca:	78d5      	ldrb	r5, [r2, #3]
 8001bcc:	406b      	eors	r3, r5
 8001bce:	7915      	ldrb	r5, [r2, #4]
 8001bd0:	406b      	eors	r3, r5
 8001bd2:	4d2a      	ldr	r5, [pc, #168]	@ (8001c7c <process_commands_usb+0x13c>)
 8001bd4:	702b      	strb	r3, [r5, #0]
 8001bd6:	7952      	ldrb	r2, [r2, #5]
 8001bd8:	429a      	cmp	r2, r3
 8001bda:	d121      	bne.n	8001c20 <process_commands_usb+0xe0>
 8001bdc:	2844      	cmp	r0, #68	@ 0x44
 8001bde:	d932      	bls.n	8001c46 <process_commands_usb+0x106>
 8001be0:	23fe      	movs	r3, #254	@ 0xfe
 8001be2:	4a24      	ldr	r2, [pc, #144]	@ (8001c74 <process_commands_usb+0x134>)
 8001be4:	7910      	ldrb	r0, [r2, #4]
 8001be6:	7013      	strb	r3, [r2, #0]
 8001be8:	7853      	ldrb	r3, [r2, #1]
 8001bea:	4043      	eors	r3, r0
 8001bec:	7890      	ldrb	r0, [r2, #2]
 8001bee:	4043      	eors	r3, r0
 8001bf0:	78d0      	ldrb	r0, [r2, #3]
 8001bf2:	7021      	strb	r1, [r4, #0]
 8001bf4:	4043      	eors	r3, r0
 8001bf6:	20fe      	movs	r0, #254	@ 0xfe
 8001bf8:	4043      	eors	r3, r0
 8001bfa:	702b      	strb	r3, [r5, #0]
 8001bfc:	2001      	movs	r0, #1
 8001bfe:	7153      	strb	r3, [r2, #5]
 8001c00:	e7bf      	b.n	8001b82 <process_commands_usb+0x42>
 8001c02:	2080      	movs	r0, #128	@ 0x80
 8001c04:	05c0      	lsls	r0, r0, #23
 8001c06:	6a44      	ldr	r4, [r0, #36]	@ 0x24
 8001c08:	4816      	ldr	r0, [pc, #88]	@ (8001c64 <process_commands_usb+0x124>)
 8001c0a:	6004      	str	r4, [r0, #0]
 8001c0c:	4c1c      	ldr	r4, [pc, #112]	@ (8001c80 <process_commands_usb+0x140>)
 8001c0e:	481a      	ldr	r0, [pc, #104]	@ (8001c78 <process_commands_usb+0x138>)
 8001c10:	5c64      	ldrb	r4, [r4, r1]
 8001c12:	3101      	adds	r1, #1
 8001c14:	54c4      	strb	r4, [r0, r3]
 8001c16:	3301      	adds	r3, #1
 8001c18:	2001      	movs	r0, #1
 8001c1a:	7029      	strb	r1, [r5, #0]
 8001c1c:	7013      	strb	r3, [r2, #0]
 8001c1e:	e7b0      	b.n	8001b82 <process_commands_usb+0x42>
 8001c20:	23ff      	movs	r3, #255	@ 0xff
 8001c22:	4a14      	ldr	r2, [pc, #80]	@ (8001c74 <process_commands_usb+0x134>)
 8001c24:	7890      	ldrb	r0, [r2, #2]
 8001c26:	7013      	strb	r3, [r2, #0]
 8001c28:	7853      	ldrb	r3, [r2, #1]
 8001c2a:	4043      	eors	r3, r0
 8001c2c:	78d0      	ldrb	r0, [r2, #3]
 8001c2e:	4043      	eors	r3, r0
 8001c30:	7910      	ldrb	r0, [r2, #4]
 8001c32:	7021      	strb	r1, [r4, #0]
 8001c34:	4043      	eors	r3, r0
 8001c36:	43db      	mvns	r3, r3
 8001c38:	b2db      	uxtb	r3, r3
 8001c3a:	2001      	movs	r0, #1
 8001c3c:	702b      	strb	r3, [r5, #0]
 8001c3e:	7153      	strb	r3, [r2, #5]
 8001c40:	e79f      	b.n	8001b82 <process_commands_usb+0x42>
 8001c42:	2000      	movs	r0, #0
 8001c44:	e79d      	b.n	8001b82 <process_commands_usb+0x42>
 8001c46:	4b0f      	ldr	r3, [pc, #60]	@ (8001c84 <process_commands_usb+0x144>)
 8001c48:	0080      	lsls	r0, r0, #2
 8001c4a:	58c3      	ldr	r3, [r0, r3]
 8001c4c:	4798      	blx	r3
 8001c4e:	2001      	movs	r0, #1
 8001c50:	e797      	b.n	8001b82 <process_commands_usb+0x42>
 8001c52:	46c0      	nop			@ (mov r8, r8)
 8001c54:	2000013e 	.word	0x2000013e
 8001c58:	200002b9 	.word	0x200002b9
 8001c5c:	200003bf 	.word	0x200003bf
 8001c60:	200003be 	.word	0x200003be
 8001c64:	200002b4 	.word	0x200002b4
 8001c68:	007a1200 	.word	0x007a1200
 8001c6c:	200002b0 	.word	0x200002b0
 8001c70:	00005140 	.word	0x00005140
 8001c74:	200002bc 	.word	0x200002bc
 8001c78:	200005c0 	.word	0x200005c0
 8001c7c:	200002ac 	.word	0x200002ac
 8001c80:	200004c0 	.word	0x200004c0
 8001c84:	20000000 	.word	0x20000000

08001c88 <process_commands_uart>:
 8001c88:	b570      	push	{r4, r5, r6, lr}
 8001c8a:	4c3a      	ldr	r4, [pc, #232]	@ (8001d74 <process_commands_uart+0xec>)
 8001c8c:	7823      	ldrb	r3, [r4, #0]
 8001c8e:	2b05      	cmp	r3, #5
 8001c90:	d94d      	bls.n	8001d2e <process_commands_uart+0xa6>
 8001c92:	2b06      	cmp	r3, #6
 8001c94:	d016      	beq.n	8001cc4 <process_commands_uart+0x3c>
 8001c96:	4a38      	ldr	r2, [pc, #224]	@ (8001d78 <process_commands_uart+0xf0>)
 8001c98:	7813      	ldrb	r3, [r2, #0]
 8001c9a:	2b06      	cmp	r3, #6
 8001c9c:	d014      	beq.n	8001cc8 <process_commands_uart+0x40>
 8001c9e:	4937      	ldr	r1, [pc, #220]	@ (8001d7c <process_commands_uart+0xf4>)
 8001ca0:	4837      	ldr	r0, [pc, #220]	@ (8001d80 <process_commands_uart+0xf8>)
 8001ca2:	780c      	ldrb	r4, [r1, #0]
 8001ca4:	7801      	ldrb	r1, [r0, #0]
 8001ca6:	428c      	cmp	r4, r1
 8001ca8:	d031      	beq.n	8001d0e <process_commands_uart+0x86>
 8001caa:	2480      	movs	r4, #128	@ 0x80
 8001cac:	05e4      	lsls	r4, r4, #23
 8001cae:	6a65      	ldr	r5, [r4, #36]	@ 0x24
 8001cb0:	4c34      	ldr	r4, [pc, #208]	@ (8001d84 <process_commands_uart+0xfc>)
 8001cb2:	6025      	str	r5, [r4, #0]
 8001cb4:	4d34      	ldr	r5, [pc, #208]	@ (8001d88 <process_commands_uart+0x100>)
 8001cb6:	4c35      	ldr	r4, [pc, #212]	@ (8001d8c <process_commands_uart+0x104>)
 8001cb8:	5c6d      	ldrb	r5, [r5, r1]
 8001cba:	3101      	adds	r1, #1
 8001cbc:	54e5      	strb	r5, [r4, r3]
 8001cbe:	3301      	adds	r3, #1
 8001cc0:	7001      	strb	r1, [r0, #0]
 8001cc2:	7013      	strb	r3, [r2, #0]
 8001cc4:	2001      	movs	r0, #1
 8001cc6:	bd70      	pop	{r4, r5, r6, pc}
 8001cc8:	2100      	movs	r1, #0
 8001cca:	7011      	strb	r1, [r2, #0]
 8001ccc:	4a2f      	ldr	r2, [pc, #188]	@ (8001d8c <process_commands_uart+0x104>)
 8001cce:	7853      	ldrb	r3, [r2, #1]
 8001cd0:	7810      	ldrb	r0, [r2, #0]
 8001cd2:	7895      	ldrb	r5, [r2, #2]
 8001cd4:	4043      	eors	r3, r0
 8001cd6:	406b      	eors	r3, r5
 8001cd8:	78d5      	ldrb	r5, [r2, #3]
 8001cda:	406b      	eors	r3, r5
 8001cdc:	7915      	ldrb	r5, [r2, #4]
 8001cde:	406b      	eors	r3, r5
 8001ce0:	4d2b      	ldr	r5, [pc, #172]	@ (8001d90 <process_commands_uart+0x108>)
 8001ce2:	702b      	strb	r3, [r5, #0]
 8001ce4:	7952      	ldrb	r2, [r2, #5]
 8001ce6:	429a      	cmp	r2, r3
 8001ce8:	d12e      	bne.n	8001d48 <process_commands_uart+0xc0>
 8001cea:	2844      	cmp	r0, #68	@ 0x44
 8001cec:	d93c      	bls.n	8001d68 <process_commands_uart+0xe0>
 8001cee:	23fe      	movs	r3, #254	@ 0xfe
 8001cf0:	4a28      	ldr	r2, [pc, #160]	@ (8001d94 <process_commands_uart+0x10c>)
 8001cf2:	7910      	ldrb	r0, [r2, #4]
 8001cf4:	7013      	strb	r3, [r2, #0]
 8001cf6:	7853      	ldrb	r3, [r2, #1]
 8001cf8:	4043      	eors	r3, r0
 8001cfa:	7890      	ldrb	r0, [r2, #2]
 8001cfc:	4043      	eors	r3, r0
 8001cfe:	78d0      	ldrb	r0, [r2, #3]
 8001d00:	7021      	strb	r1, [r4, #0]
 8001d02:	4043      	eors	r3, r0
 8001d04:	20fe      	movs	r0, #254	@ 0xfe
 8001d06:	4043      	eors	r3, r0
 8001d08:	702b      	strb	r3, [r5, #0]
 8001d0a:	7153      	strb	r3, [r2, #5]
 8001d0c:	e7da      	b.n	8001cc4 <process_commands_uart+0x3c>
 8001d0e:	2b00      	cmp	r3, #0
 8001d10:	d00b      	beq.n	8001d2a <process_commands_uart+0xa2>
 8001d12:	2380      	movs	r3, #128	@ 0x80
 8001d14:	491b      	ldr	r1, [pc, #108]	@ (8001d84 <process_commands_uart+0xfc>)
 8001d16:	05db      	lsls	r3, r3, #23
 8001d18:	6809      	ldr	r1, [r1, #0]
 8001d1a:	6a5b      	ldr	r3, [r3, #36]	@ 0x24
 8001d1c:	1a5b      	subs	r3, r3, r1
 8001d1e:	491e      	ldr	r1, [pc, #120]	@ (8001d98 <process_commands_uart+0x110>)
 8001d20:	428b      	cmp	r3, r1
 8001d22:	d902      	bls.n	8001d2a <process_commands_uart+0xa2>
 8001d24:	2300      	movs	r3, #0
 8001d26:	7004      	strb	r4, [r0, #0]
 8001d28:	7013      	strb	r3, [r2, #0]
 8001d2a:	2000      	movs	r0, #0
 8001d2c:	e7cb      	b.n	8001cc6 <process_commands_uart+0x3e>
 8001d2e:	2206      	movs	r2, #6
 8001d30:	4918      	ldr	r1, [pc, #96]	@ (8001d94 <process_commands_uart+0x10c>)
 8001d32:	481a      	ldr	r0, [pc, #104]	@ (8001d9c <process_commands_uart+0x114>)
 8001d34:	f004 f8b2 	bl	8005e9c <HAL_UART_Transmit_DMA>
 8001d38:	2380      	movs	r3, #128	@ 0x80
 8001d3a:	05db      	lsls	r3, r3, #23
 8001d3c:	6a5a      	ldr	r2, [r3, #36]	@ 0x24
 8001d3e:	4b18      	ldr	r3, [pc, #96]	@ (8001da0 <process_commands_uart+0x118>)
 8001d40:	601a      	str	r2, [r3, #0]
 8001d42:	2306      	movs	r3, #6
 8001d44:	7023      	strb	r3, [r4, #0]
 8001d46:	e7bd      	b.n	8001cc4 <process_commands_uart+0x3c>
 8001d48:	23ff      	movs	r3, #255	@ 0xff
 8001d4a:	4a12      	ldr	r2, [pc, #72]	@ (8001d94 <process_commands_uart+0x10c>)
 8001d4c:	7890      	ldrb	r0, [r2, #2]
 8001d4e:	7013      	strb	r3, [r2, #0]
 8001d50:	7853      	ldrb	r3, [r2, #1]
 8001d52:	4043      	eors	r3, r0
 8001d54:	78d0      	ldrb	r0, [r2, #3]
 8001d56:	4043      	eors	r3, r0
 8001d58:	7910      	ldrb	r0, [r2, #4]
 8001d5a:	7021      	strb	r1, [r4, #0]
 8001d5c:	4043      	eors	r3, r0
 8001d5e:	43db      	mvns	r3, r3
 8001d60:	b2db      	uxtb	r3, r3
 8001d62:	702b      	strb	r3, [r5, #0]
 8001d64:	7153      	strb	r3, [r2, #5]
 8001d66:	e7ad      	b.n	8001cc4 <process_commands_uart+0x3c>
 8001d68:	4b0e      	ldr	r3, [pc, #56]	@ (8001da4 <process_commands_uart+0x11c>)
 8001d6a:	0080      	lsls	r0, r0, #2
 8001d6c:	58c3      	ldr	r3, [r0, r3]
 8001d6e:	4798      	blx	r3
 8001d70:	e7a8      	b.n	8001cc4 <process_commands_uart+0x3c>
 8001d72:	46c0      	nop			@ (mov r8, r8)
 8001d74:	2000013e 	.word	0x2000013e
 8001d78:	200002b8 	.word	0x200002b8
 8001d7c:	200003bd 	.word	0x200003bd
 8001d80:	200003bc 	.word	0x200003bc
 8001d84:	200002b4 	.word	0x200002b4
 8001d88:	200003c0 	.word	0x200003c0
 8001d8c:	200005c0 	.word	0x200005c0
 8001d90:	200002ac 	.word	0x200002ac
 8001d94:	200002bc 	.word	0x200002bc
 8001d98:	007a1200 	.word	0x007a1200
 8001d9c:	20000780 	.word	0x20000780
 8001da0:	200002b0 	.word	0x200002b0
 8001da4:	20000000 	.word	0x20000000

08001da8 <m0step>:
 8001da8:	b5f8      	push	{r3, r4, r5, r6, r7, lr}
 8001daa:	4b28      	ldr	r3, [pc, #160]	@ (8001e4c <m0step+0xa4>)
 8001dac:	781a      	ldrb	r2, [r3, #0]
 8001dae:	2a00      	cmp	r2, #0
 8001db0:	d019      	beq.n	8001de6 <m0step+0x3e>
 8001db2:	4d27      	ldr	r5, [pc, #156]	@ (8001e50 <m0step+0xa8>)
 8001db4:	4c27      	ldr	r4, [pc, #156]	@ (8001e54 <m0step+0xac>)
 8001db6:	6829      	ldr	r1, [r5, #0]
 8001db8:	7822      	ldrb	r2, [r4, #0]
 8001dba:	2900      	cmp	r1, #0
 8001dbc:	d014      	beq.n	8001de8 <m0step+0x40>
 8001dbe:	2780      	movs	r7, #128	@ 0x80
 8001dc0:	4e25      	ldr	r6, [pc, #148]	@ (8001e58 <m0step+0xb0>)
 8001dc2:	05ff      	lsls	r7, r7, #23
 8001dc4:	6a7b      	ldr	r3, [r7, #36]	@ 0x24
 8001dc6:	6831      	ldr	r1, [r6, #0]
 8001dc8:	1a5b      	subs	r3, r3, r1
 8001dca:	4924      	ldr	r1, [pc, #144]	@ (8001e5c <m0step+0xb4>)
 8001dcc:	600b      	str	r3, [r1, #0]
 8001dce:	2a00      	cmp	r2, #0
 8001dd0:	d022      	beq.n	8001e18 <m0step+0x70>
 8001dd2:	2b2f      	cmp	r3, #47	@ 0x2f
 8001dd4:	d907      	bls.n	8001de6 <m0step+0x3e>
 8001dd6:	2180      	movs	r1, #128	@ 0x80
 8001dd8:	2300      	movs	r3, #0
 8001dda:	2200      	movs	r2, #0
 8001ddc:	4820      	ldr	r0, [pc, #128]	@ (8001e60 <m0step+0xb8>)
 8001dde:	0189      	lsls	r1, r1, #6
 8001de0:	7023      	strb	r3, [r4, #0]
 8001de2:	f002 f8f1 	bl	8003fc8 <HAL_GPIO_WritePin>
 8001de6:	bdf8      	pop	{r3, r4, r5, r6, r7, pc}
 8001de8:	2a00      	cmp	r2, #0
 8001dea:	d129      	bne.n	8001e40 <m0step+0x98>
 8001dec:	481d      	ldr	r0, [pc, #116]	@ (8001e64 <m0step+0xbc>)
 8001dee:	7801      	ldrb	r1, [r0, #0]
 8001df0:	2906      	cmp	r1, #6
 8001df2:	d9f8      	bls.n	8001de6 <m0step+0x3e>
 8001df4:	701a      	strb	r2, [r3, #0]
 8001df6:	23c8      	movs	r3, #200	@ 0xc8
 8001df8:	491b      	ldr	r1, [pc, #108]	@ (8001e68 <m0step+0xc0>)
 8001dfa:	790c      	ldrb	r4, [r1, #4]
 8001dfc:	700b      	strb	r3, [r1, #0]
 8001dfe:	784b      	ldrb	r3, [r1, #1]
 8001e00:	4063      	eors	r3, r4
 8001e02:	788c      	ldrb	r4, [r1, #2]
 8001e04:	4063      	eors	r3, r4
 8001e06:	78cc      	ldrb	r4, [r1, #3]
 8001e08:	7002      	strb	r2, [r0, #0]
 8001e0a:	4063      	eors	r3, r4
 8001e0c:	24c8      	movs	r4, #200	@ 0xc8
 8001e0e:	4063      	eors	r3, r4
 8001e10:	4c16      	ldr	r4, [pc, #88]	@ (8001e6c <m0step+0xc4>)
 8001e12:	714b      	strb	r3, [r1, #5]
 8001e14:	7023      	strb	r3, [r4, #0]
 8001e16:	e7e6      	b.n	8001de6 <m0step+0x3e>
 8001e18:	4a15      	ldr	r2, [pc, #84]	@ (8001e70 <m0step+0xc8>)
 8001e1a:	6812      	ldr	r2, [r2, #0]
 8001e1c:	4293      	cmp	r3, r2
 8001e1e:	d3e2      	bcc.n	8001de6 <m0step+0x3e>
 8001e20:	2180      	movs	r1, #128	@ 0x80
 8001e22:	2201      	movs	r2, #1
 8001e24:	480e      	ldr	r0, [pc, #56]	@ (8001e60 <m0step+0xb8>)
 8001e26:	0189      	lsls	r1, r1, #6
 8001e28:	f002 f8ce 	bl	8003fc8 <HAL_GPIO_WritePin>
 8001e2c:	6a7b      	ldr	r3, [r7, #36]	@ 0x24
 8001e2e:	6033      	str	r3, [r6, #0]
 8001e30:	2301      	movs	r3, #1
 8001e32:	7023      	strb	r3, [r4, #0]
 8001e34:	4b0f      	ldr	r3, [pc, #60]	@ (8001e74 <m0step+0xcc>)
 8001e36:	781a      	ldrb	r2, [r3, #0]
 8001e38:	682b      	ldr	r3, [r5, #0]
 8001e3a:	1a9b      	subs	r3, r3, r2
 8001e3c:	602b      	str	r3, [r5, #0]
 8001e3e:	e7d2      	b.n	8001de6 <m0step+0x3e>
 8001e40:	4b06      	ldr	r3, [pc, #24]	@ (8001e5c <m0step+0xb4>)
 8001e42:	681b      	ldr	r3, [r3, #0]
 8001e44:	2b2f      	cmp	r3, #47	@ 0x2f
 8001e46:	d9ce      	bls.n	8001de6 <m0step+0x3e>
 8001e48:	e7c5      	b.n	8001dd6 <m0step+0x2e>
 8001e4a:	46c0      	nop			@ (mov r8, r8)
 8001e4c:	20000298 	.word	0x20000298
 8001e50:	20000290 	.word	0x20000290
 8001e54:	2000028a 	.word	0x2000028a
 8001e58:	20000294 	.word	0x20000294
 8001e5c:	200002a8 	.word	0x200002a8
 8001e60:	50000400 	.word	0x50000400
 8001e64:	2000013e 	.word	0x2000013e
 8001e68:	200002bc 	.word	0x200002bc
 8001e6c:	200002ac 	.word	0x200002ac
 8001e70:	20000138 	.word	0x20000138
 8001e74:	2000013d 	.word	0x2000013d

08001e78 <m1step>:
 8001e78:	b5f8      	push	{r3, r4, r5, r6, r7, lr}
 8001e7a:	4b28      	ldr	r3, [pc, #160]	@ (8001f1c <m1step+0xa4>)
 8001e7c:	781a      	ldrb	r2, [r3, #0]
 8001e7e:	2a00      	cmp	r2, #0
 8001e80:	d019      	beq.n	8001eb6 <m1step+0x3e>
 8001e82:	4d27      	ldr	r5, [pc, #156]	@ (8001f20 <m1step+0xa8>)
 8001e84:	4c27      	ldr	r4, [pc, #156]	@ (8001f24 <m1step+0xac>)
 8001e86:	6829      	ldr	r1, [r5, #0]
 8001e88:	7822      	ldrb	r2, [r4, #0]
 8001e8a:	2900      	cmp	r1, #0
 8001e8c:	d014      	beq.n	8001eb8 <m1step+0x40>
 8001e8e:	2780      	movs	r7, #128	@ 0x80
 8001e90:	4e25      	ldr	r6, [pc, #148]	@ (8001f28 <m1step+0xb0>)
 8001e92:	05ff      	lsls	r7, r7, #23
 8001e94:	6a7b      	ldr	r3, [r7, #36]	@ 0x24
 8001e96:	6831      	ldr	r1, [r6, #0]
 8001e98:	1a5b      	subs	r3, r3, r1
 8001e9a:	4924      	ldr	r1, [pc, #144]	@ (8001f2c <m1step+0xb4>)
 8001e9c:	600b      	str	r3, [r1, #0]
 8001e9e:	2a00      	cmp	r2, #0
 8001ea0:	d022      	beq.n	8001ee8 <m1step+0x70>
 8001ea2:	2b2f      	cmp	r3, #47	@ 0x2f
 8001ea4:	d907      	bls.n	8001eb6 <m1step+0x3e>
 8001ea6:	2180      	movs	r1, #128	@ 0x80
 8001ea8:	2300      	movs	r3, #0
 8001eaa:	2200      	movs	r2, #0
 8001eac:	4820      	ldr	r0, [pc, #128]	@ (8001f30 <m1step+0xb8>)
 8001eae:	00c9      	lsls	r1, r1, #3
 8001eb0:	7023      	strb	r3, [r4, #0]
 8001eb2:	f002 f889 	bl	8003fc8 <HAL_GPIO_WritePin>
 8001eb6:	bdf8      	pop	{r3, r4, r5, r6, r7, pc}
 8001eb8:	2a00      	cmp	r2, #0
 8001eba:	d129      	bne.n	8001f10 <m1step+0x98>
 8001ebc:	481d      	ldr	r0, [pc, #116]	@ (8001f34 <m1step+0xbc>)
 8001ebe:	7801      	ldrb	r1, [r0, #0]
 8001ec0:	2906      	cmp	r1, #6
 8001ec2:	d9f8      	bls.n	8001eb6 <m1step+0x3e>
 8001ec4:	701a      	strb	r2, [r3, #0]
 8001ec6:	23c9      	movs	r3, #201	@ 0xc9
 8001ec8:	491b      	ldr	r1, [pc, #108]	@ (8001f38 <m1step+0xc0>)
 8001eca:	790c      	ldrb	r4, [r1, #4]
 8001ecc:	700b      	strb	r3, [r1, #0]
 8001ece:	784b      	ldrb	r3, [r1, #1]
 8001ed0:	4063      	eors	r3, r4
 8001ed2:	788c      	ldrb	r4, [r1, #2]
 8001ed4:	4063      	eors	r3, r4
 8001ed6:	78cc      	ldrb	r4, [r1, #3]
 8001ed8:	7002      	strb	r2, [r0, #0]
 8001eda:	4063      	eors	r3, r4
 8001edc:	24c9      	movs	r4, #201	@ 0xc9
 8001ede:	4063      	eors	r3, r4
 8001ee0:	4c16      	ldr	r4, [pc, #88]	@ (8001f3c <m1step+0xc4>)
 8001ee2:	714b      	strb	r3, [r1, #5]
 8001ee4:	7023      	strb	r3, [r4, #0]
 8001ee6:	e7e6      	b.n	8001eb6 <m1step+0x3e>
 8001ee8:	4a15      	ldr	r2, [pc, #84]	@ (8001f40 <m1step+0xc8>)
 8001eea:	6812      	ldr	r2, [r2, #0]
 8001eec:	4293      	cmp	r3, r2
 8001eee:	d3e2      	bcc.n	8001eb6 <m1step+0x3e>
 8001ef0:	2180      	movs	r1, #128	@ 0x80
 8001ef2:	2201      	movs	r2, #1
 8001ef4:	480e      	ldr	r0, [pc, #56]	@ (8001f30 <m1step+0xb8>)
 8001ef6:	00c9      	lsls	r1, r1, #3
 8001ef8:	f002 f866 	bl	8003fc8 <HAL_GPIO_WritePin>
 8001efc:	6a7b      	ldr	r3, [r7, #36]	@ 0x24
 8001efe:	6033      	str	r3, [r6, #0]
 8001f00:	2301      	movs	r3, #1
 8001f02:	7023      	strb	r3, [r4, #0]
 8001f04:	4b0f      	ldr	r3, [pc, #60]	@ (8001f44 <m1step+0xcc>)
 8001f06:	781a      	ldrb	r2, [r3, #0]
 8001f08:	682b      	ldr	r3, [r5, #0]
 8001f0a:	1a9b      	subs	r3, r3, r2
 8001f0c:	602b      	str	r3, [r5, #0]
 8001f0e:	e7d2      	b.n	8001eb6 <m1step+0x3e>
 8001f10:	4b06      	ldr	r3, [pc, #24]	@ (8001f2c <m1step+0xb4>)
 8001f12:	681b      	ldr	r3, [r3, #0]
 8001f14:	2b2f      	cmp	r3, #47	@ 0x2f
 8001f16:	d9ce      	bls.n	8001eb6 <m1step+0x3e>
 8001f18:	e7c5      	b.n	8001ea6 <m1step+0x2e>
 8001f1a:	46c0      	nop			@ (mov r8, r8)
 8001f1c:	20000288 	.word	0x20000288
 8001f20:	20000280 	.word	0x20000280
 8001f24:	2000027a 	.word	0x2000027a
 8001f28:	20000284 	.word	0x20000284
 8001f2c:	200002a4 	.word	0x200002a4
 8001f30:	50000400 	.word	0x50000400
 8001f34:	2000013e 	.word	0x2000013e
 8001f38:	200002bc 	.word	0x200002bc
 8001f3c:	200002ac 	.word	0x200002ac
 8001f40:	20000130 	.word	0x20000130
 8001f44:	20000135 	.word	0x20000135

08001f48 <m2step>:
 8001f48:	b5f8      	push	{r3, r4, r5, r6, r7, lr}
 8001f4a:	4b27      	ldr	r3, [pc, #156]	@ (8001fe8 <m2step+0xa0>)
 8001f4c:	781a      	ldrb	r2, [r3, #0]
 8001f4e:	2a00      	cmp	r2, #0
 8001f50:	d018      	beq.n	8001f84 <m2step+0x3c>
 8001f52:	4d26      	ldr	r5, [pc, #152]	@ (8001fec <m2step+0xa4>)
 8001f54:	4c26      	ldr	r4, [pc, #152]	@ (8001ff0 <m2step+0xa8>)
 8001f56:	6829      	ldr	r1, [r5, #0]
 8001f58:	7822      	ldrb	r2, [r4, #0]
 8001f5a:	2900      	cmp	r1, #0
 8001f5c:	d013      	beq.n	8001f86 <m2step+0x3e>
 8001f5e:	2780      	movs	r7, #128	@ 0x80
 8001f60:	4e24      	ldr	r6, [pc, #144]	@ (8001ff4 <m2step+0xac>)
 8001f62:	05ff      	lsls	r7, r7, #23
 8001f64:	6a7b      	ldr	r3, [r7, #36]	@ 0x24
 8001f66:	6831      	ldr	r1, [r6, #0]
 8001f68:	1a5b      	subs	r3, r3, r1
 8001f6a:	4923      	ldr	r1, [pc, #140]	@ (8001ff8 <m2step+0xb0>)
 8001f6c:	600b      	str	r3, [r1, #0]
 8001f6e:	2a00      	cmp	r2, #0
 8001f70:	d021      	beq.n	8001fb6 <m2step+0x6e>
 8001f72:	2b2f      	cmp	r3, #47	@ 0x2f
 8001f74:	d906      	bls.n	8001f84 <m2step+0x3c>
 8001f76:	2300      	movs	r3, #0
 8001f78:	2200      	movs	r2, #0
 8001f7a:	2101      	movs	r1, #1
 8001f7c:	481f      	ldr	r0, [pc, #124]	@ (8001ffc <m2step+0xb4>)
 8001f7e:	7023      	strb	r3, [r4, #0]
 8001f80:	f002 f822 	bl	8003fc8 <HAL_GPIO_WritePin>
 8001f84:	bdf8      	pop	{r3, r4, r5, r6, r7, pc}
 8001f86:	2a00      	cmp	r2, #0
 8001f88:	d128      	bne.n	8001fdc <m2step+0x94>
 8001f8a:	481d      	ldr	r0, [pc, #116]	@ (8002000 <m2step+0xb8>)
 8001f8c:	7801      	ldrb	r1, [r0, #0]
 8001f8e:	2906      	cmp	r1, #6
 8001f90:	d9f8      	bls.n	8001f84 <m2step+0x3c>
 8001f92:	701a      	strb	r2, [r3, #0]
 8001f94:	23ca      	movs	r3, #202	@ 0xca
 8001f96:	491b      	ldr	r1, [pc, #108]	@ (8002004 <m2step+0xbc>)
 8001f98:	790c      	ldrb	r4, [r1, #4]
 8001f9a:	700b      	strb	r3, [r1, #0]
 8001f9c:	784b      	ldrb	r3, [r1, #1]
 8001f9e:	4063      	eors	r3, r4
 8001fa0:	788c      	ldrb	r4, [r1, #2]
 8001fa2:	4063      	eors	r3, r4
 8001fa4:	78cc      	ldrb	r4, [r1, #3]
 8001fa6:	7002      	strb	r2, [r0, #0]
 8001fa8:	4063      	eors	r3, r4
 8001faa:	24ca      	movs	r4, #202	@ 0xca
 8001fac:	4063      	eors	r3, r4
 8001fae:	4c16      	ldr	r4, [pc, #88]	@ (8002008 <m2step+0xc0>)
 8001fb0:	714b      	strb	r3, [r1, #5]
 8001fb2:	7023      	strb	r3, [r4, #0]
 8001fb4:	e7e6      	b.n	8001f84 <m2step+0x3c>
 8001fb6:	4a15      	ldr	r2, [pc, #84]	@ (800200c <m2step+0xc4>)
 8001fb8:	6812      	ldr	r2, [r2, #0]
 8001fba:	4293      	cmp	r3, r2
 8001fbc:	d3e2      	bcc.n	8001f84 <m2step+0x3c>
 8001fbe:	2201      	movs	r2, #1
 8001fc0:	2101      	movs	r1, #1
 8001fc2:	480e      	ldr	r0, [pc, #56]	@ (8001ffc <m2step+0xb4>)
 8001fc4:	f002 f800 	bl	8003fc8 <HAL_GPIO_WritePin>
 8001fc8:	6a7b      	ldr	r3, [r7, #36]	@ 0x24
 8001fca:	6033      	str	r3, [r6, #0]
 8001fcc:	2301      	movs	r3, #1
 8001fce:	7023      	strb	r3, [r4, #0]
 8001fd0:	4b0f      	ldr	r3, [pc, #60]	@ (8002010 <m2step+0xc8>)
 8001fd2:	781a      	ldrb	r2, [r3, #0]
 8001fd4:	682b      	ldr	r3, [r5, #0]
 8001fd6:	1a9b      	subs	r3, r3, r2
 8001fd8:	602b      	str	r3, [r5, #0]
 8001fda:	e7d3      	b.n	8001f84 <m2step+0x3c>
 8001fdc:	4b06      	ldr	r3, [pc, #24]	@ (8001ff8 <m2step+0xb0>)
 8001fde:	681b      	ldr	r3, [r3, #0]
 8001fe0:	2b2f      	cmp	r3, #47	@ 0x2f
 8001fe2:	d9cf      	bls.n	8001f84 <m2step+0x3c>
 8001fe4:	e7c7      	b.n	8001f76 <m2step+0x2e>
 8001fe6:	46c0      	nop			@ (mov r8, r8)
 8001fe8:	20000278 	.word	0x20000278
 8001fec:	20000270 	.word	0x20000270
 8001ff0:	2000026a 	.word	0x2000026a
 8001ff4:	20000274 	.word	0x20000274
 8001ff8:	200002a0 	.word	0x200002a0
 8001ffc:	50000400 	.word	0x50000400
 8002000:	2000013e 	.word	0x2000013e
 8002004:	200002bc 	.word	0x200002bc
 8002008:	200002ac 	.word	0x200002ac
 800200c:	20000128 	.word	0x20000128
 8002010:	2000012d 	.word	0x2000012d

08002014 <m3step>:
 8002014:	b5f8      	push	{r3, r4, r5, r6, r7, lr}
 8002016:	4b27      	ldr	r3, [pc, #156]	@ (80020b4 <m3step+0xa0>)
 8002018:	781a      	ldrb	r2, [r3, #0]
 800201a:	2a00      	cmp	r2, #0
 800201c:	d018      	beq.n	8002050 <m3step+0x3c>
 800201e:	4d26      	ldr	r5, [pc, #152]	@ (80020b8 <m3step+0xa4>)
 8002020:	4c26      	ldr	r4, [pc, #152]	@ (80020bc <m3step+0xa8>)
 8002022:	6829      	ldr	r1, [r5, #0]
 8002024:	7822      	ldrb	r2, [r4, #0]
 8002026:	2900      	cmp	r1, #0
 8002028:	d013      	beq.n	8002052 <m3step+0x3e>
 800202a:	2780      	movs	r7, #128	@ 0x80
 800202c:	4e24      	ldr	r6, [pc, #144]	@ (80020c0 <m3step+0xac>)
 800202e:	05ff      	lsls	r7, r7, #23
 8002030:	6a7b      	ldr	r3, [r7, #36]	@ 0x24
 8002032:	6831      	ldr	r1, [r6, #0]
 8002034:	1a5b      	subs	r3, r3, r1
 8002036:	4923      	ldr	r1, [pc, #140]	@ (80020c4 <m3step+0xb0>)
 8002038:	600b      	str	r3, [r1, #0]
 800203a:	2a00      	cmp	r2, #0
 800203c:	d021      	beq.n	8002082 <m3step+0x6e>
 800203e:	2b2f      	cmp	r3, #47	@ 0x2f
 8002040:	d906      	bls.n	8002050 <m3step+0x3c>
 8002042:	2300      	movs	r3, #0
 8002044:	2200      	movs	r2, #0
 8002046:	2108      	movs	r1, #8
 8002048:	481f      	ldr	r0, [pc, #124]	@ (80020c8 <m3step+0xb4>)
 800204a:	7023      	strb	r3, [r4, #0]
 800204c:	f001 ffbc 	bl	8003fc8 <HAL_GPIO_WritePin>
 8002050:	bdf8      	pop	{r3, r4, r5, r6, r7, pc}
 8002052:	2a00      	cmp	r2, #0
 8002054:	d128      	bne.n	80020a8 <m3step+0x94>
 8002056:	481d      	ldr	r0, [pc, #116]	@ (80020cc <m3step+0xb8>)
 8002058:	7801      	ldrb	r1, [r0, #0]
 800205a:	2906      	cmp	r1, #6
 800205c:	d9f8      	bls.n	8002050 <m3step+0x3c>
 800205e:	701a      	strb	r2, [r3, #0]
 8002060:	23cb      	movs	r3, #203	@ 0xcb
 8002062:	491b      	ldr	r1, [pc, #108]	@ (80020d0 <m3step+0xbc>)
 8002064:	790c      	ldrb	r4, [r1, #4]
 8002066:	700b      	strb	r3, [r1, #0]
 8002068:	784b      	ldrb	r3, [r1, #1]
 800206a:	4063      	eors	r3, r4
 800206c:	788c      	ldrb	r4, [r1, #2]
 800206e:	4063      	eors	r3, r4
 8002070:	78cc      	ldrb	r4, [r1, #3]
 8002072:	7002      	strb	r2, [r0, #0]
 8002074:	4063      	eors	r3, r4
 8002076:	24cb      	movs	r4, #203	@ 0xcb
 8002078:	4063      	eors	r3, r4
 800207a:	4c16      	ldr	r4, [pc, #88]	@ (80020d4 <m3step+0xc0>)
 800207c:	714b      	strb	r3, [r1, #5]
 800207e:	7023      	strb	r3, [r4, #0]
 8002080:	e7e6      	b.n	8002050 <m3step+0x3c>
 8002082:	4a15      	ldr	r2, [pc, #84]	@ (80020d8 <m3step+0xc4>)
 8002084:	6812      	ldr	r2, [r2, #0]
 8002086:	4293      	cmp	r3, r2
 8002088:	d3e2      	bcc.n	8002050 <m3step+0x3c>
 800208a:	2201      	movs	r2, #1
 800208c:	2108      	movs	r1, #8
 800208e:	480e      	ldr	r0, [pc, #56]	@ (80020c8 <m3step+0xb4>)
 8002090:	f001 ff9a 	bl	8003fc8 <HAL_GPIO_WritePin>
 8002094:	6a7b      	ldr	r3, [r7, #36]	@ 0x24
 8002096:	6033      	str	r3, [r6, #0]
 8002098:	2301      	movs	r3, #1
 800209a:	7023      	strb	r3, [r4, #0]
 800209c:	4b0f      	ldr	r3, [pc, #60]	@ (80020dc <m3step+0xc8>)
 800209e:	781a      	ldrb	r2, [r3, #0]
 80020a0:	682b      	ldr	r3, [r5, #0]
 80020a2:	1a9b      	subs	r3, r3, r2
 80020a4:	602b      	str	r3, [r5, #0]
 80020a6:	e7d3      	b.n	8002050 <m3step+0x3c>
 80020a8:	4b06      	ldr	r3, [pc, #24]	@ (80020c4 <m3step+0xb0>)
 80020aa:	681b      	ldr	r3, [r3, #0]
 80020ac:	2b2f      	cmp	r3, #47	@ 0x2f
 80020ae:	d9cf      	bls.n	8002050 <m3step+0x3c>
 80020b0:	e7c7      	b.n	8002042 <m3step+0x2e>
 80020b2:	46c0      	nop			@ (mov r8, r8)
 80020b4:	20000268 	.word	0x20000268
 80020b8:	20000260 	.word	0x20000260
 80020bc:	2000025a 	.word	0x2000025a
 80020c0:	20000264 	.word	0x20000264
 80020c4:	2000029c 	.word	0x2000029c
 80020c8:	50000400 	.word	0x50000400
 80020cc:	2000013e 	.word	0x2000013e
 80020d0:	200002bc 	.word	0x200002bc
 80020d4:	200002ac 	.word	0x200002ac
 80020d8:	20000120 	.word	0x20000120
 80020dc:	20000125 	.word	0x20000125

080020e0 <HAL_UARTEx_RxEventCallback>:
 80020e0:	4b03      	ldr	r3, [pc, #12]	@ (80020f0 <HAL_UARTEx_RxEventCallback+0x10>)
 80020e2:	6802      	ldr	r2, [r0, #0]
 80020e4:	429a      	cmp	r2, r3
 80020e6:	d000      	beq.n	80020ea <HAL_UARTEx_RxEventCallback+0xa>
 80020e8:	4770      	bx	lr
 80020ea:	4b02      	ldr	r3, [pc, #8]	@ (80020f4 <HAL_UARTEx_RxEventCallback+0x14>)
 80020ec:	7019      	strb	r1, [r3, #0]
 80020ee:	e7fb      	b.n	80020e8 <HAL_UARTEx_RxEventCallback+0x8>
 80020f0:	40005000 	.word	0x40005000
 80020f4:	200003bd 	.word	0x200003bd

080020f8 <HAL_UART_TxCpltCallback>:
 80020f8:	4b04      	ldr	r3, [pc, #16]	@ (800210c <HAL_UART_TxCpltCallback+0x14>)
 80020fa:	6802      	ldr	r2, [r0, #0]
 80020fc:	429a      	cmp	r2, r3
 80020fe:	d000      	beq.n	8002102 <HAL_UART_TxCpltCallback+0xa>
 8002100:	4770      	bx	lr
 8002102:	2207      	movs	r2, #7
 8002104:	4b02      	ldr	r3, [pc, #8]	@ (8002110 <HAL_UART_TxCpltCallback+0x18>)
 8002106:	701a      	strb	r2, [r3, #0]
 8002108:	e7fa      	b.n	8002100 <HAL_UART_TxCpltCallback+0x8>
 800210a:	46c0      	nop			@ (mov r8, r8)
 800210c:	40005000 	.word	0x40005000
 8002110:	2000013e 	.word	0x2000013e

08002114 <setup>:
 8002114:	2280      	movs	r2, #128	@ 0x80
 8002116:	b530      	push	{r4, r5, lr}
 8002118:	494d      	ldr	r1, [pc, #308]	@ (8002250 <setup+0x13c>)
 800211a:	b0a9      	sub	sp, #164	@ 0xa4
 800211c:	0052      	lsls	r2, r2, #1
 800211e:	484d      	ldr	r0, [pc, #308]	@ (8002254 <setup+0x140>)
 8002120:	f004 fdaa 	bl	8006c78 <HAL_UARTEx_ReceiveToIdle_DMA>
 8002124:	2180      	movs	r1, #128	@ 0x80
 8002126:	2201      	movs	r2, #1
 8002128:	484b      	ldr	r0, [pc, #300]	@ (8002258 <setup+0x144>)
 800212a:	01c9      	lsls	r1, r1, #7
 800212c:	f001 ff4c 	bl	8003fc8 <HAL_GPIO_WritePin>
 8002130:	2180      	movs	r1, #128	@ 0x80
 8002132:	2401      	movs	r4, #1
 8002134:	4b49      	ldr	r3, [pc, #292]	@ (800225c <setup+0x148>)
 8002136:	2201      	movs	r2, #1
 8002138:	4847      	ldr	r0, [pc, #284]	@ (8002258 <setup+0x144>)
 800213a:	0149      	lsls	r1, r1, #5
 800213c:	701c      	strb	r4, [r3, #0]
 800213e:	f001 ff43 	bl	8003fc8 <HAL_GPIO_WritePin>
 8002142:	2180      	movs	r1, #128	@ 0x80
 8002144:	2200      	movs	r2, #0
 8002146:	4844      	ldr	r0, [pc, #272]	@ (8002258 <setup+0x144>)
 8002148:	0189      	lsls	r1, r1, #6
 800214a:	f001 ff3d 	bl	8003fc8 <HAL_GPIO_WritePin>
 800214e:	2180      	movs	r1, #128	@ 0x80
 8002150:	2500      	movs	r5, #0
 8002152:	4b43      	ldr	r3, [pc, #268]	@ (8002260 <setup+0x14c>)
 8002154:	2200      	movs	r2, #0
 8002156:	4840      	ldr	r0, [pc, #256]	@ (8002258 <setup+0x144>)
 8002158:	01c9      	lsls	r1, r1, #7
 800215a:	701d      	strb	r5, [r3, #0]
 800215c:	f001 ff34 	bl	8003fc8 <HAL_GPIO_WritePin>
 8002160:	2180      	movs	r1, #128	@ 0x80
 8002162:	2201      	movs	r2, #1
 8002164:	483c      	ldr	r0, [pc, #240]	@ (8002258 <setup+0x144>)
 8002166:	0109      	lsls	r1, r1, #4
 8002168:	f001 ff2e 	bl	8003fc8 <HAL_GPIO_WritePin>
 800216c:	4b3d      	ldr	r3, [pc, #244]	@ (8002264 <setup+0x150>)
 800216e:	2201      	movs	r2, #1
 8002170:	2104      	movs	r1, #4
 8002172:	4839      	ldr	r0, [pc, #228]	@ (8002258 <setup+0x144>)
 8002174:	701c      	strb	r4, [r3, #0]
 8002176:	f001 ff27 	bl	8003fc8 <HAL_GPIO_WritePin>
 800217a:	2180      	movs	r1, #128	@ 0x80
 800217c:	2200      	movs	r2, #0
 800217e:	4836      	ldr	r0, [pc, #216]	@ (8002258 <setup+0x144>)
 8002180:	00c9      	lsls	r1, r1, #3
 8002182:	f001 ff21 	bl	8003fc8 <HAL_GPIO_WritePin>
 8002186:	2180      	movs	r1, #128	@ 0x80
 8002188:	4b37      	ldr	r3, [pc, #220]	@ (8002268 <setup+0x154>)
 800218a:	2200      	movs	r2, #0
 800218c:	4832      	ldr	r0, [pc, #200]	@ (8002258 <setup+0x144>)
 800218e:	0109      	lsls	r1, r1, #4
 8002190:	701d      	strb	r5, [r3, #0]
 8002192:	f001 ff19 	bl	8003fc8 <HAL_GPIO_WritePin>
 8002196:	2201      	movs	r2, #1
 8002198:	2102      	movs	r1, #2
 800219a:	482f      	ldr	r0, [pc, #188]	@ (8002258 <setup+0x144>)
 800219c:	f001 ff14 	bl	8003fc8 <HAL_GPIO_WritePin>
 80021a0:	4b32      	ldr	r3, [pc, #200]	@ (800226c <setup+0x158>)
 80021a2:	2201      	movs	r2, #1
 80021a4:	2120      	movs	r1, #32
 80021a6:	4832      	ldr	r0, [pc, #200]	@ (8002270 <setup+0x15c>)
 80021a8:	701c      	strb	r4, [r3, #0]
 80021aa:	f001 ff0d 	bl	8003fc8 <HAL_GPIO_WritePin>
 80021ae:	2200      	movs	r2, #0
 80021b0:	2101      	movs	r1, #1
 80021b2:	4829      	ldr	r0, [pc, #164]	@ (8002258 <setup+0x144>)
 80021b4:	f001 ff08 	bl	8003fc8 <HAL_GPIO_WritePin>
 80021b8:	4b2e      	ldr	r3, [pc, #184]	@ (8002274 <setup+0x160>)
 80021ba:	2200      	movs	r2, #0
 80021bc:	2102      	movs	r1, #2
 80021be:	4826      	ldr	r0, [pc, #152]	@ (8002258 <setup+0x144>)
 80021c0:	701d      	strb	r5, [r3, #0]
 80021c2:	f001 ff01 	bl	8003fc8 <HAL_GPIO_WritePin>
 80021c6:	2201      	movs	r2, #1
 80021c8:	2102      	movs	r1, #2
 80021ca:	482b      	ldr	r0, [pc, #172]	@ (8002278 <setup+0x164>)
 80021cc:	f001 fefc 	bl	8003fc8 <HAL_GPIO_WritePin>
 80021d0:	4b2a      	ldr	r3, [pc, #168]	@ (800227c <setup+0x168>)
 80021d2:	2201      	movs	r2, #1
 80021d4:	2110      	movs	r1, #16
 80021d6:	4820      	ldr	r0, [pc, #128]	@ (8002258 <setup+0x144>)
 80021d8:	701c      	strb	r4, [r3, #0]
 80021da:	f001 fef5 	bl	8003fc8 <HAL_GPIO_WritePin>
 80021de:	2200      	movs	r2, #0
 80021e0:	2108      	movs	r1, #8
 80021e2:	481d      	ldr	r0, [pc, #116]	@ (8002258 <setup+0x144>)
 80021e4:	f001 fef0 	bl	8003fc8 <HAL_GPIO_WritePin>
 80021e8:	4b25      	ldr	r3, [pc, #148]	@ (8002280 <setup+0x16c>)
 80021ea:	2200      	movs	r2, #0
 80021ec:	2102      	movs	r1, #2
 80021ee:	4822      	ldr	r0, [pc, #136]	@ (8002278 <setup+0x164>)
 80021f0:	701d      	strb	r5, [r3, #0]
 80021f2:	f001 fee9 	bl	8003fc8 <HAL_GPIO_WritePin>
 80021f6:	4b23      	ldr	r3, [pc, #140]	@ (8002284 <setup+0x170>)
 80021f8:	4923      	ldr	r1, [pc, #140]	@ (8002288 <setup+0x174>)
 80021fa:	6bda      	ldr	r2, [r3, #60]	@ 0x3c
 80021fc:	4322      	orrs	r2, r4
 80021fe:	63da      	str	r2, [r3, #60]	@ 0x3c
 8002200:	6bdb      	ldr	r3, [r3, #60]	@ 0x3c
 8002202:	401c      	ands	r4, r3
 8002204:	9414      	str	r4, [sp, #80]	@ 0x50
 8002206:	9b14      	ldr	r3, [sp, #80]	@ 0x50
 8002208:	2380      	movs	r3, #128	@ 0x80
 800220a:	05db      	lsls	r3, r3, #23
 800220c:	9315      	str	r3, [sp, #84]	@ 0x54
 800220e:	4b1f      	ldr	r3, [pc, #124]	@ (800228c <setup+0x178>)
 8002210:	6818      	ldr	r0, [r3, #0]
 8002212:	f7fd ff7f 	bl	8000114 <__udivsi3>
 8002216:	2301      	movs	r3, #1
 8002218:	3801      	subs	r0, #1
 800221a:	9016      	str	r0, [sp, #88]	@ 0x58
 800221c:	425b      	negs	r3, r3
 800221e:	a815      	add	r0, sp, #84	@ 0x54
 8002220:	9517      	str	r5, [sp, #92]	@ 0x5c
 8002222:	9318      	str	r3, [sp, #96]	@ 0x60
 8002224:	9519      	str	r5, [sp, #100]	@ 0x64
 8002226:	951b      	str	r5, [sp, #108]	@ 0x6c
 8002228:	f003 fc54 	bl	8005ad4 <HAL_TIM_Base_Init>
 800222c:	2800      	cmp	r0, #0
 800222e:	d000      	beq.n	8002232 <setup+0x11e>
 8002230:	e7fe      	b.n	8002230 <setup+0x11c>
 8002232:	a815      	add	r0, sp, #84	@ 0x54
 8002234:	f003 fce8 	bl	8005c08 <HAL_TIM_Base_Start>
 8002238:	4c15      	ldr	r4, [pc, #84]	@ (8002290 <setup+0x17c>)
 800223a:	2250      	movs	r2, #80	@ 0x50
 800223c:	0021      	movs	r1, r4
 800223e:	4668      	mov	r0, sp
 8002240:	3110      	adds	r1, #16
 8002242:	f007 faa7 	bl	8009794 <memcpy>
 8002246:	cc0f      	ldmia	r4!, {r0, r1, r2, r3}
 8002248:	f000 fc42 	bl	8002ad0 <TMC2209_Init>
 800224c:	b029      	add	sp, #164	@ 0xa4
 800224e:	bd30      	pop	{r4, r5, pc}
 8002250:	200003c0 	.word	0x200003c0
 8002254:	20000780 	.word	0x20000780
 8002258:	50000400 	.word	0x50000400
 800225c:	20000289 	.word	0x20000289
 8002260:	2000013c 	.word	0x2000013c
 8002264:	20000279 	.word	0x20000279
 8002268:	20000134 	.word	0x20000134
 800226c:	20000269 	.word	0x20000269
 8002270:	50000800 	.word	0x50000800
 8002274:	2000012c 	.word	0x2000012c
 8002278:	50000c00 	.word	0x50000c00
 800227c:	20000259 	.word	0x20000259
 8002280:	20000124 	.word	0x20000124
 8002284:	40021000 	.word	0x40021000
 8002288:	00f42400 	.word	0x00f42400
 800228c:	20000140 	.word	0x20000140
 8002290:	20000814 	.word	0x20000814

08002294 <SystemClock_Config>:
 8002294:	b510      	push	{r4, lr}
 8002296:	b094      	sub	sp, #80	@ 0x50
 8002298:	223c      	movs	r2, #60	@ 0x3c
 800229a:	2100      	movs	r1, #0
 800229c:	a804      	add	r0, sp, #16
 800229e:	f007 fa4d 	bl	800973c <memset>
 80022a2:	2210      	movs	r2, #16
 80022a4:	2100      	movs	r1, #0
 80022a6:	4668      	mov	r0, sp
 80022a8:	f007 fa48 	bl	800973c <memset>
 80022ac:	2080      	movs	r0, #128	@ 0x80
 80022ae:	0080      	lsls	r0, r0, #2
 80022b0:	f002 feaa 	bl	8005008 <HAL_PWREx_ControlVoltageScaling>
 80022b4:	2380      	movs	r3, #128	@ 0x80
 80022b6:	2201      	movs	r2, #1
 80022b8:	025b      	lsls	r3, r3, #9
 80022ba:	9204      	str	r2, [sp, #16]
 80022bc:	9305      	str	r3, [sp, #20]
 80022be:	2303      	movs	r3, #3
 80022c0:	930d      	str	r3, [sp, #52]	@ 0x34
 80022c2:	2300      	movs	r3, #0
 80022c4:	930e      	str	r3, [sp, #56]	@ 0x38
 80022c6:	330c      	adds	r3, #12
 80022c8:	2280      	movs	r2, #128	@ 0x80
 80022ca:	930f      	str	r3, [sp, #60]	@ 0x3c
 80022cc:	2380      	movs	r3, #128	@ 0x80
 80022ce:	0292      	lsls	r2, r2, #10
 80022d0:	049b      	lsls	r3, r3, #18
 80022d2:	9210      	str	r2, [sp, #64]	@ 0x40
 80022d4:	9311      	str	r3, [sp, #68]	@ 0x44
 80022d6:	2380      	movs	r3, #128	@ 0x80
 80022d8:	2402      	movs	r4, #2
 80022da:	059b      	lsls	r3, r3, #22
 80022dc:	a804      	add	r0, sp, #16
 80022de:	940c      	str	r4, [sp, #48]	@ 0x30
 80022e0:	9312      	str	r3, [sp, #72]	@ 0x48
 80022e2:	f002 fec1 	bl	8005068 <HAL_RCC_OscConfig>
 80022e6:	2800      	cmp	r0, #0
 80022e8:	d001      	beq.n	80022ee <SystemClock_Config+0x5a>
 80022ea:	b672      	cpsid	i
 80022ec:	e7fe      	b.n	80022ec <SystemClock_Config+0x58>
 80022ee:	2307      	movs	r3, #7
 80022f0:	9002      	str	r0, [sp, #8]
 80022f2:	9003      	str	r0, [sp, #12]
 80022f4:	2101      	movs	r1, #1
 80022f6:	4668      	mov	r0, sp
 80022f8:	9300      	str	r3, [sp, #0]
 80022fa:	9401      	str	r4, [sp, #4]
 80022fc:	f003 f9a2 	bl	8005644 <HAL_RCC_ClockConfig>
 8002300:	2800      	cmp	r0, #0
 8002302:	d001      	beq.n	8002308 <SystemClock_Config+0x74>
 8002304:	b672      	cpsid	i
 8002306:	e7fe      	b.n	8002306 <SystemClock_Config+0x72>
 8002308:	b014      	add	sp, #80	@ 0x50
 800230a:	bd10      	pop	{r4, pc}

0800230c <main>:
 800230c:	b5f0      	push	{r4, r5, r6, r7, lr}
 800230e:	46de      	mov	lr, fp
 8002310:	4657      	mov	r7, sl
 8002312:	464e      	mov	r6, r9
 8002314:	4645      	mov	r5, r8
 8002316:	b5e0      	push	{r5, r6, r7, lr}
 8002318:	b09b      	sub	sp, #108	@ 0x6c
 800231a:	f001 f8d7 	bl	80034cc <HAL_Init>
 800231e:	f7ff ffb9 	bl	8002294 <SystemClock_Config>
 8002322:	2214      	movs	r2, #20
 8002324:	2100      	movs	r1, #0
 8002326:	a814      	add	r0, sp, #80	@ 0x50
 8002328:	f007 fa08 	bl	800973c <memset>
 800232c:	2304      	movs	r3, #4
 800232e:	4cd0      	ldr	r4, [pc, #832]	@ (8002670 <main+0x364>)
 8002330:	2501      	movs	r5, #1
 8002332:	6b62      	ldr	r2, [r4, #52]	@ 0x34
 8002334:	2120      	movs	r1, #32
 8002336:	431a      	orrs	r2, r3
 8002338:	6362      	str	r2, [r4, #52]	@ 0x34
 800233a:	6b62      	ldr	r2, [r4, #52]	@ 0x34
 800233c:	48cd      	ldr	r0, [pc, #820]	@ (8002674 <main+0x368>)
 800233e:	4013      	ands	r3, r2
 8002340:	930c      	str	r3, [sp, #48]	@ 0x30
 8002342:	9b0c      	ldr	r3, [sp, #48]	@ 0x30
 8002344:	2320      	movs	r3, #32
 8002346:	6b62      	ldr	r2, [r4, #52]	@ 0x34
 8002348:	2600      	movs	r6, #0
 800234a:	431a      	orrs	r2, r3
 800234c:	6362      	str	r2, [r4, #52]	@ 0x34
 800234e:	6b62      	ldr	r2, [r4, #52]	@ 0x34
 8002350:	2700      	movs	r7, #0
 8002352:	4013      	ands	r3, r2
 8002354:	930d      	str	r3, [sp, #52]	@ 0x34
 8002356:	9b0d      	ldr	r3, [sp, #52]	@ 0x34
 8002358:	2302      	movs	r3, #2
 800235a:	6b62      	ldr	r2, [r4, #52]	@ 0x34
 800235c:	431a      	orrs	r2, r3
 800235e:	6362      	str	r2, [r4, #52]	@ 0x34
 8002360:	6b62      	ldr	r2, [r4, #52]	@ 0x34
 8002362:	4013      	ands	r3, r2
 8002364:	930e      	str	r3, [sp, #56]	@ 0x38
 8002366:	9b0e      	ldr	r3, [sp, #56]	@ 0x38
 8002368:	6b63      	ldr	r3, [r4, #52]	@ 0x34
 800236a:	432b      	orrs	r3, r5
 800236c:	6363      	str	r3, [r4, #52]	@ 0x34
 800236e:	6b63      	ldr	r3, [r4, #52]	@ 0x34
 8002370:	402b      	ands	r3, r5
 8002372:	930f      	str	r3, [sp, #60]	@ 0x3c
 8002374:	9b0f      	ldr	r3, [sp, #60]	@ 0x3c
 8002376:	2308      	movs	r3, #8
 8002378:	6b62      	ldr	r2, [r4, #52]	@ 0x34
 800237a:	431a      	orrs	r2, r3
 800237c:	6362      	str	r2, [r4, #52]	@ 0x34
 800237e:	6b62      	ldr	r2, [r4, #52]	@ 0x34
 8002380:	4013      	ands	r3, r2
 8002382:	9310      	str	r3, [sp, #64]	@ 0x40
 8002384:	2200      	movs	r2, #0
 8002386:	9b10      	ldr	r3, [sp, #64]	@ 0x40
 8002388:	f001 fe1e 	bl	8003fc8 <HAL_GPIO_WritePin>
 800238c:	2200      	movs	r2, #0
 800238e:	49ba      	ldr	r1, [pc, #744]	@ (8002678 <main+0x36c>)
 8002390:	48ba      	ldr	r0, [pc, #744]	@ (800267c <main+0x370>)
 8002392:	f001 fe19 	bl	8003fc8 <HAL_GPIO_WritePin>
 8002396:	2200      	movs	r2, #0
 8002398:	2102      	movs	r1, #2
 800239a:	48b9      	ldr	r0, [pc, #740]	@ (8002680 <main+0x374>)
 800239c:	f001 fe14 	bl	8003fc8 <HAL_GPIO_WritePin>
 80023a0:	2220      	movs	r2, #32
 80023a2:	2301      	movs	r3, #1
 80023a4:	48b3      	ldr	r0, [pc, #716]	@ (8002674 <main+0x368>)
 80023a6:	a914      	add	r1, sp, #80	@ 0x50
 80023a8:	9214      	str	r2, [sp, #80]	@ 0x50
 80023aa:	9315      	str	r3, [sp, #84]	@ 0x54
 80023ac:	9616      	str	r6, [sp, #88]	@ 0x58
 80023ae:	9717      	str	r7, [sp, #92]	@ 0x5c
 80023b0:	f001 fb5c 	bl	8003a6c <HAL_GPIO_Init>
 80023b4:	2301      	movs	r3, #1
 80023b6:	4ab0      	ldr	r2, [pc, #704]	@ (8002678 <main+0x36c>)
 80023b8:	48b0      	ldr	r0, [pc, #704]	@ (800267c <main+0x370>)
 80023ba:	a914      	add	r1, sp, #80	@ 0x50
 80023bc:	9214      	str	r2, [sp, #80]	@ 0x50
 80023be:	9315      	str	r3, [sp, #84]	@ 0x54
 80023c0:	9616      	str	r6, [sp, #88]	@ 0x58
 80023c2:	9717      	str	r7, [sp, #92]	@ 0x5c
 80023c4:	f001 fb52 	bl	8003a6c <HAL_GPIO_Init>
 80023c8:	2202      	movs	r2, #2
 80023ca:	2301      	movs	r3, #1
 80023cc:	48ac      	ldr	r0, [pc, #688]	@ (8002680 <main+0x374>)
 80023ce:	a914      	add	r1, sp, #80	@ 0x50
 80023d0:	9214      	str	r2, [sp, #80]	@ 0x50
 80023d2:	9315      	str	r3, [sp, #84]	@ 0x54
 80023d4:	9616      	str	r6, [sp, #88]	@ 0x58
 80023d6:	9717      	str	r7, [sp, #92]	@ 0x5c
 80023d8:	f001 fb48 	bl	8003a6c <HAL_GPIO_Init>
 80023dc:	6ba3      	ldr	r3, [r4, #56]	@ 0x38
 80023de:	2200      	movs	r2, #0
 80023e0:	432b      	orrs	r3, r5
 80023e2:	63a3      	str	r3, [r4, #56]	@ 0x38
 80023e4:	6ba3      	ldr	r3, [r4, #56]	@ 0x38
 80023e6:	2100      	movs	r1, #0
 80023e8:	401d      	ands	r5, r3
 80023ea:	950b      	str	r5, [sp, #44]	@ 0x2c
 80023ec:	2009      	movs	r0, #9
 80023ee:	9b0b      	ldr	r3, [sp, #44]	@ 0x2c
 80023f0:	f001 f8b0 	bl	8003554 <HAL_NVIC_SetPriority>
 80023f4:	2009      	movs	r0, #9
 80023f6:	f001 f8d7 	bl	80035a8 <HAL_NVIC_EnableIRQ>
 80023fa:	2200      	movs	r2, #0
 80023fc:	2100      	movs	r1, #0
 80023fe:	200a      	movs	r0, #10
 8002400:	f001 f8a8 	bl	8003554 <HAL_NVIC_SetPriority>
 8002404:	200a      	movs	r0, #10
 8002406:	f001 f8cf 	bl	80035a8 <HAL_NVIC_EnableIRQ>
 800240a:	f006 fe4d 	bl	80090a8 <MX_USB_Device_Init>
 800240e:	2210      	movs	r2, #16
 8002410:	2100      	movs	r1, #0
 8002412:	a814      	add	r0, sp, #80	@ 0x50
 8002414:	f007 f992 	bl	800973c <memset>
 8002418:	220c      	movs	r2, #12
 800241a:	2100      	movs	r1, #0
 800241c:	a811      	add	r0, sp, #68	@ 0x44
 800241e:	f007 f98d 	bl	800973c <memset>
 8002422:	2380      	movs	r3, #128	@ 0x80
 8002424:	4c97      	ldr	r4, [pc, #604]	@ (8002684 <main+0x378>)
 8002426:	05db      	lsls	r3, r3, #23
 8002428:	2201      	movs	r2, #1
 800242a:	6023      	str	r3, [r4, #0]
 800242c:	2300      	movs	r3, #0
 800242e:	4252      	negs	r2, r2
 8002430:	0020      	movs	r0, r4
 8002432:	250c      	movs	r5, #12
 8002434:	6063      	str	r3, [r4, #4]
 8002436:	60a3      	str	r3, [r4, #8]
 8002438:	60e2      	str	r2, [r4, #12]
 800243a:	6123      	str	r3, [r4, #16]
 800243c:	61a3      	str	r3, [r4, #24]
 800243e:	f003 fb49 	bl	8005ad4 <HAL_TIM_Base_Init>
 8002442:	2800      	cmp	r0, #0
 8002444:	d001      	beq.n	800244a <main+0x13e>
 8002446:	b672      	cpsid	i
 8002448:	e7fe      	b.n	8002448 <main+0x13c>
 800244a:	2380      	movs	r3, #128	@ 0x80
 800244c:	0020      	movs	r0, r4
 800244e:	015b      	lsls	r3, r3, #5
 8002450:	a914      	add	r1, sp, #80	@ 0x50
 8002452:	9314      	str	r3, [sp, #80]	@ 0x50
 8002454:	f003 fc10 	bl	8005c78 <HAL_TIM_ConfigClockSource>
 8002458:	2800      	cmp	r0, #0
 800245a:	d001      	beq.n	8002460 <main+0x154>
 800245c:	b672      	cpsid	i
 800245e:	e7fe      	b.n	800245e <main+0x152>
 8002460:	9011      	str	r0, [sp, #68]	@ 0x44
 8002462:	9013      	str	r0, [sp, #76]	@ 0x4c
 8002464:	a911      	add	r1, sp, #68	@ 0x44
 8002466:	0020      	movs	r0, r4
 8002468:	f003 fcb8 	bl	8005ddc <HAL_TIMEx_MasterConfigSynchronization>
 800246c:	2800      	cmp	r0, #0
 800246e:	d001      	beq.n	8002474 <main+0x168>
 8002470:	b672      	cpsid	i
 8002472:	e7fe      	b.n	8002472 <main+0x166>
 8002474:	26e1      	movs	r6, #225	@ 0xe1
 8002476:	4c84      	ldr	r4, [pc, #528]	@ (8002688 <main+0x37c>)
 8002478:	4b84      	ldr	r3, [pc, #528]	@ (800268c <main+0x380>)
 800247a:	60a0      	str	r0, [r4, #8]
 800247c:	60e0      	str	r0, [r4, #12]
 800247e:	6120      	str	r0, [r4, #16]
 8002480:	61a0      	str	r0, [r4, #24]
 8002482:	61e0      	str	r0, [r4, #28]
 8002484:	6220      	str	r0, [r4, #32]
 8002486:	6260      	str	r0, [r4, #36]	@ 0x24
 8002488:	6420      	str	r0, [r4, #64]	@ 0x40
 800248a:	0276      	lsls	r6, r6, #9
 800248c:	0020      	movs	r0, r4
 800248e:	6023      	str	r3, [r4, #0]
 8002490:	6066      	str	r6, [r4, #4]
 8002492:	6165      	str	r5, [r4, #20]
 8002494:	f004 fc22 	bl	8006cdc <HAL_USART_Init>
 8002498:	1e01      	subs	r1, r0, #0
 800249a:	d001      	beq.n	80024a0 <main+0x194>
 800249c:	b672      	cpsid	i
 800249e:	e7fe      	b.n	800249e <main+0x192>
 80024a0:	0020      	movs	r0, r4
 80024a2:	f004 ff49 	bl	8007338 <HAL_USARTEx_SetTxFifoThreshold>
 80024a6:	1e01      	subs	r1, r0, #0
 80024a8:	d001      	beq.n	80024ae <main+0x1a2>
 80024aa:	b672      	cpsid	i
 80024ac:	e7fe      	b.n	80024ac <main+0x1a0>
 80024ae:	0020      	movs	r0, r4
 80024b0:	f004 ff90 	bl	80073d4 <HAL_USARTEx_SetRxFifoThreshold>
 80024b4:	2800      	cmp	r0, #0
 80024b6:	d001      	beq.n	80024bc <main+0x1b0>
 80024b8:	b672      	cpsid	i
 80024ba:	e7fe      	b.n	80024ba <main+0x1ae>
 80024bc:	0020      	movs	r0, r4
 80024be:	f004 ff1f 	bl	8007300 <HAL_USARTEx_DisableFifoMode>
 80024c2:	2800      	cmp	r0, #0
 80024c4:	d001      	beq.n	80024ca <main+0x1be>
 80024c6:	b672      	cpsid	i
 80024c8:	e7fe      	b.n	80024c8 <main+0x1bc>
 80024ca:	4c71      	ldr	r4, [pc, #452]	@ (8002690 <main+0x384>)
 80024cc:	4b71      	ldr	r3, [pc, #452]	@ (8002694 <main+0x388>)
 80024ce:	60a0      	str	r0, [r4, #8]
 80024d0:	60e0      	str	r0, [r4, #12]
 80024d2:	6120      	str	r0, [r4, #16]
 80024d4:	61a0      	str	r0, [r4, #24]
 80024d6:	61e0      	str	r0, [r4, #28]
 80024d8:	6220      	str	r0, [r4, #32]
 80024da:	6260      	str	r0, [r4, #36]	@ 0x24
 80024dc:	62a0      	str	r0, [r4, #40]	@ 0x28
 80024de:	0020      	movs	r0, r4
 80024e0:	6023      	str	r3, [r4, #0]
 80024e2:	6066      	str	r6, [r4, #4]
 80024e4:	6165      	str	r5, [r4, #20]
 80024e6:	f004 fb37 	bl	8006b58 <HAL_UART_Init>
 80024ea:	2800      	cmp	r0, #0
 80024ec:	d001      	beq.n	80024f2 <main+0x1e6>
 80024ee:	b672      	cpsid	i
 80024f0:	e7fe      	b.n	80024f0 <main+0x1e4>
 80024f2:	25a7      	movs	r5, #167	@ 0xa7
 80024f4:	200a      	movs	r0, #10
 80024f6:	f001 f80f 	bl	8003518 <HAL_Delay>
 80024fa:	f7ff fe0b 	bl	8002114 <setup>
 80024fe:	200a      	movs	r0, #10
 8002500:	f001 f80a 	bl	8003518 <HAL_Delay>
 8002504:	00ad      	lsls	r5, r5, #2
 8002506:	4e64      	ldr	r6, [pc, #400]	@ (8002698 <main+0x38c>)
 8002508:	e009      	b.n	800251e <main+0x212>
 800250a:	f7ff fbbd 	bl	8001c88 <process_commands_uart>
 800250e:	f7ff fc4b 	bl	8001da8 <m0step>
 8002512:	f7ff fcb1 	bl	8001e78 <m1step>
 8002516:	f7ff fd17 	bl	8001f48 <m2step>
 800251a:	f7ff fd7b 	bl	8002014 <m3step>
 800251e:	5d73      	ldrb	r3, [r6, r5]
 8002520:	2b03      	cmp	r3, #3
 8002522:	d1f2      	bne.n	800250a <main+0x1fe>
 8002524:	0020      	movs	r0, r4
 8002526:	f003 fc9b 	bl	8005e60 <HAL_UART_DeInit>
 800252a:	2009      	movs	r0, #9
 800252c:	f001 f848 	bl	80035c0 <HAL_NVIC_DisableIRQ>
 8002530:	200a      	movs	r0, #10
 8002532:	f001 f845 	bl	80035c0 <HAL_NVIC_DisableIRQ>
 8002536:	2307      	movs	r3, #7
 8002538:	4d58      	ldr	r5, [pc, #352]	@ (800269c <main+0x390>)
 800253a:	4f59      	ldr	r7, [pc, #356]	@ (80026a0 <main+0x394>)
 800253c:	702b      	strb	r3, [r5, #0]
 800253e:	4b59      	ldr	r3, [pc, #356]	@ (80026a4 <main+0x398>)
 8002540:	4c59      	ldr	r4, [pc, #356]	@ (80026a8 <main+0x39c>)
 8002542:	9304      	str	r3, [sp, #16]
 8002544:	4b59      	ldr	r3, [pc, #356]	@ (80026ac <main+0x3a0>)
 8002546:	4e5a      	ldr	r6, [pc, #360]	@ (80026b0 <main+0x3a4>)
 8002548:	9302      	str	r3, [sp, #8]
 800254a:	4b5a      	ldr	r3, [pc, #360]	@ (80026b4 <main+0x3a8>)
 800254c:	469b      	mov	fp, r3
 800254e:	4b5a      	ldr	r3, [pc, #360]	@ (80026b8 <main+0x3ac>)
 8002550:	469a      	mov	sl, r3
 8002552:	4b5a      	ldr	r3, [pc, #360]	@ (80026bc <main+0x3b0>)
 8002554:	9308      	str	r3, [sp, #32]
 8002556:	4b5a      	ldr	r3, [pc, #360]	@ (80026c0 <main+0x3b4>)
 8002558:	9309      	str	r3, [sp, #36]	@ 0x24
 800255a:	4b5a      	ldr	r3, [pc, #360]	@ (80026c4 <main+0x3b8>)
 800255c:	9305      	str	r3, [sp, #20]
 800255e:	4b5a      	ldr	r3, [pc, #360]	@ (80026c8 <main+0x3bc>)
 8002560:	9303      	str	r3, [sp, #12]
 8002562:	4b5a      	ldr	r3, [pc, #360]	@ (80026cc <main+0x3c0>)
 8002564:	9301      	str	r3, [sp, #4]
 8002566:	4b5a      	ldr	r3, [pc, #360]	@ (80026d0 <main+0x3c4>)
 8002568:	4699      	mov	r9, r3
 800256a:	4b5a      	ldr	r3, [pc, #360]	@ (80026d4 <main+0x3c8>)
 800256c:	4698      	mov	r8, r3
 800256e:	4b5a      	ldr	r3, [pc, #360]	@ (80026d8 <main+0x3cc>)
 8002570:	9306      	str	r3, [sp, #24]
 8002572:	4b5a      	ldr	r3, [pc, #360]	@ (80026dc <main+0x3d0>)
 8002574:	9307      	str	r3, [sp, #28]
 8002576:	f7ff fae3 	bl	8001b40 <process_commands_usb>
 800257a:	9b04      	ldr	r3, [sp, #16]
 800257c:	781b      	ldrb	r3, [r3, #0]
 800257e:	2b00      	cmp	r3, #0
 8002580:	d011      	beq.n	80025a6 <main+0x29a>
 8002582:	9b02      	ldr	r3, [sp, #8]
 8002584:	781a      	ldrb	r2, [r3, #0]
 8002586:	683b      	ldr	r3, [r7, #0]
 8002588:	2b00      	cmp	r3, #0
 800258a:	d027      	beq.n	80025dc <main+0x2d0>
 800258c:	2380      	movs	r3, #128	@ 0x80
 800258e:	4659      	mov	r1, fp
 8002590:	05db      	lsls	r3, r3, #23
 8002592:	6809      	ldr	r1, [r1, #0]
 8002594:	6a5b      	ldr	r3, [r3, #36]	@ 0x24
 8002596:	1a5b      	subs	r3, r3, r1
 8002598:	4651      	mov	r1, sl
 800259a:	600b      	str	r3, [r1, #0]
 800259c:	2a00      	cmp	r2, #0
 800259e:	d100      	bne.n	80025a2 <main+0x296>
 80025a0:	e09e      	b.n	80026e0 <main+0x3d4>
 80025a2:	2b2f      	cmp	r3, #47	@ 0x2f
 80025a4:	d820      	bhi.n	80025e8 <main+0x2dc>
 80025a6:	f7ff fc67 	bl	8001e78 <m1step>
 80025aa:	f7ff fccd 	bl	8001f48 <m2step>
 80025ae:	9b03      	ldr	r3, [sp, #12]
 80025b0:	781b      	ldrb	r3, [r3, #0]
 80025b2:	2b00      	cmp	r3, #0
 80025b4:	d0df      	beq.n	8002576 <main+0x26a>
 80025b6:	9b01      	ldr	r3, [sp, #4]
 80025b8:	781a      	ldrb	r2, [r3, #0]
 80025ba:	6833      	ldr	r3, [r6, #0]
 80025bc:	2b00      	cmp	r3, #0
 80025be:	d01c      	beq.n	80025fa <main+0x2ee>
 80025c0:	2380      	movs	r3, #128	@ 0x80
 80025c2:	4649      	mov	r1, r9
 80025c4:	05db      	lsls	r3, r3, #23
 80025c6:	6809      	ldr	r1, [r1, #0]
 80025c8:	6a5b      	ldr	r3, [r3, #36]	@ 0x24
 80025ca:	1a5b      	subs	r3, r3, r1
 80025cc:	4641      	mov	r1, r8
 80025ce:	600b      	str	r3, [r1, #0]
 80025d0:	2a00      	cmp	r2, #0
 80025d2:	d100      	bne.n	80025d6 <main+0x2ca>
 80025d4:	e09d      	b.n	8002712 <main+0x406>
 80025d6:	2b2f      	cmp	r3, #47	@ 0x2f
 80025d8:	d9cd      	bls.n	8002576 <main+0x26a>
 80025da:	e014      	b.n	8002606 <main+0x2fa>
 80025dc:	2a00      	cmp	r2, #0
 80025de:	d02f      	beq.n	8002640 <main+0x334>
 80025e0:	4653      	mov	r3, sl
 80025e2:	681b      	ldr	r3, [r3, #0]
 80025e4:	2b2f      	cmp	r3, #47	@ 0x2f
 80025e6:	d9de      	bls.n	80025a6 <main+0x29a>
 80025e8:	2180      	movs	r1, #128	@ 0x80
 80025ea:	2200      	movs	r2, #0
 80025ec:	9b02      	ldr	r3, [sp, #8]
 80025ee:	4823      	ldr	r0, [pc, #140]	@ (800267c <main+0x370>)
 80025f0:	0189      	lsls	r1, r1, #6
 80025f2:	701a      	strb	r2, [r3, #0]
 80025f4:	f001 fce8 	bl	8003fc8 <HAL_GPIO_WritePin>
 80025f8:	e7d5      	b.n	80025a6 <main+0x29a>
 80025fa:	2a00      	cmp	r2, #0
 80025fc:	d00b      	beq.n	8002616 <main+0x30a>
 80025fe:	4643      	mov	r3, r8
 8002600:	681b      	ldr	r3, [r3, #0]
 8002602:	2b2f      	cmp	r3, #47	@ 0x2f
 8002604:	d9b7      	bls.n	8002576 <main+0x26a>
 8002606:	2200      	movs	r2, #0
 8002608:	9b01      	ldr	r3, [sp, #4]
 800260a:	2108      	movs	r1, #8
 800260c:	481b      	ldr	r0, [pc, #108]	@ (800267c <main+0x370>)
 800260e:	701a      	strb	r2, [r3, #0]
 8002610:	f001 fcda 	bl	8003fc8 <HAL_GPIO_WritePin>
 8002614:	e7af      	b.n	8002576 <main+0x26a>
 8002616:	782b      	ldrb	r3, [r5, #0]
 8002618:	2b06      	cmp	r3, #6
 800261a:	d9ac      	bls.n	8002576 <main+0x26a>
 800261c:	9b03      	ldr	r3, [sp, #12]
 800261e:	701a      	strb	r2, [r3, #0]
 8002620:	23cb      	movs	r3, #203	@ 0xcb
 8002622:	7921      	ldrb	r1, [r4, #4]
 8002624:	7023      	strb	r3, [r4, #0]
 8002626:	7863      	ldrb	r3, [r4, #1]
 8002628:	404b      	eors	r3, r1
 800262a:	78a1      	ldrb	r1, [r4, #2]
 800262c:	404b      	eors	r3, r1
 800262e:	78e1      	ldrb	r1, [r4, #3]
 8002630:	702a      	strb	r2, [r5, #0]
 8002632:	404b      	eors	r3, r1
 8002634:	21cb      	movs	r1, #203	@ 0xcb
 8002636:	404b      	eors	r3, r1
 8002638:	9905      	ldr	r1, [sp, #20]
 800263a:	7163      	strb	r3, [r4, #5]
 800263c:	700b      	strb	r3, [r1, #0]
 800263e:	e79a      	b.n	8002576 <main+0x26a>
 8002640:	782b      	ldrb	r3, [r5, #0]
 8002642:	2b06      	cmp	r3, #6
 8002644:	d9af      	bls.n	80025a6 <main+0x29a>
 8002646:	9b04      	ldr	r3, [sp, #16]
 8002648:	701a      	strb	r2, [r3, #0]
 800264a:	23c8      	movs	r3, #200	@ 0xc8
 800264c:	7921      	ldrb	r1, [r4, #4]
 800264e:	7023      	strb	r3, [r4, #0]
 8002650:	7863      	ldrb	r3, [r4, #1]
 8002652:	404b      	eors	r3, r1
 8002654:	78a1      	ldrb	r1, [r4, #2]
 8002656:	404b      	eors	r3, r1
 8002658:	78e1      	ldrb	r1, [r4, #3]
 800265a:	702a      	strb	r2, [r5, #0]
 800265c:	404b      	eors	r3, r1
 800265e:	2138      	movs	r1, #56	@ 0x38
 8002660:	4249      	negs	r1, r1
 8002662:	404b      	eors	r3, r1
 8002664:	9905      	ldr	r1, [sp, #20]
 8002666:	b2db      	uxtb	r3, r3
 8002668:	700b      	strb	r3, [r1, #0]
 800266a:	7163      	strb	r3, [r4, #5]
 800266c:	e79b      	b.n	80025a6 <main+0x29a>
 800266e:	46c0      	nop			@ (mov r8, r8)
 8002670:	40021000 	.word	0x40021000
 8002674:	50000800 	.word	0x50000800
 8002678:	00007c1f 	.word	0x00007c1f
 800267c:	50000400 	.word	0x50000400
 8002680:	50000c00 	.word	0x50000c00
 8002684:	20000874 	.word	0x20000874
 8002688:	20000814 	.word	0x20000814
 800268c:	40004800 	.word	0x40004800
 8002690:	20000780 	.word	0x20000780
 8002694:	40005000 	.word	0x40005000
 8002698:	20000a10 	.word	0x20000a10
 800269c:	2000013e 	.word	0x2000013e
 80026a0:	20000290 	.word	0x20000290
 80026a4:	20000298 	.word	0x20000298
 80026a8:	200002bc 	.word	0x200002bc
 80026ac:	2000028a 	.word	0x2000028a
 80026b0:	20000260 	.word	0x20000260
 80026b4:	20000294 	.word	0x20000294
 80026b8:	200002a8 	.word	0x200002a8
 80026bc:	20000138 	.word	0x20000138
 80026c0:	2000013d 	.word	0x2000013d
 80026c4:	200002ac 	.word	0x200002ac
 80026c8:	20000268 	.word	0x20000268
 80026cc:	2000025a 	.word	0x2000025a
 80026d0:	20000264 	.word	0x20000264
 80026d4:	2000029c 	.word	0x2000029c
 80026d8:	20000120 	.word	0x20000120
 80026dc:	20000125 	.word	0x20000125
 80026e0:	9a08      	ldr	r2, [sp, #32]
 80026e2:	6812      	ldr	r2, [r2, #0]
 80026e4:	4293      	cmp	r3, r2
 80026e6:	d200      	bcs.n	80026ea <main+0x3de>
 80026e8:	e75d      	b.n	80025a6 <main+0x29a>
 80026ea:	2180      	movs	r1, #128	@ 0x80
 80026ec:	2201      	movs	r2, #1
 80026ee:	4815      	ldr	r0, [pc, #84]	@ (8002744 <main+0x438>)
 80026f0:	0189      	lsls	r1, r1, #6
 80026f2:	f001 fc69 	bl	8003fc8 <HAL_GPIO_WritePin>
 80026f6:	2380      	movs	r3, #128	@ 0x80
 80026f8:	465a      	mov	r2, fp
 80026fa:	05db      	lsls	r3, r3, #23
 80026fc:	6a5b      	ldr	r3, [r3, #36]	@ 0x24
 80026fe:	6013      	str	r3, [r2, #0]
 8002700:	2301      	movs	r3, #1
 8002702:	9a02      	ldr	r2, [sp, #8]
 8002704:	7013      	strb	r3, [r2, #0]
 8002706:	9b09      	ldr	r3, [sp, #36]	@ 0x24
 8002708:	781a      	ldrb	r2, [r3, #0]
 800270a:	683b      	ldr	r3, [r7, #0]
 800270c:	1a9b      	subs	r3, r3, r2
 800270e:	603b      	str	r3, [r7, #0]
 8002710:	e749      	b.n	80025a6 <main+0x29a>
 8002712:	9a06      	ldr	r2, [sp, #24]
 8002714:	6812      	ldr	r2, [r2, #0]
 8002716:	4293      	cmp	r3, r2
 8002718:	d200      	bcs.n	800271c <main+0x410>
 800271a:	e72c      	b.n	8002576 <main+0x26a>
 800271c:	2201      	movs	r2, #1
 800271e:	2108      	movs	r1, #8
 8002720:	4808      	ldr	r0, [pc, #32]	@ (8002744 <main+0x438>)
 8002722:	f001 fc51 	bl	8003fc8 <HAL_GPIO_WritePin>
 8002726:	2380      	movs	r3, #128	@ 0x80
 8002728:	464a      	mov	r2, r9
 800272a:	05db      	lsls	r3, r3, #23
 800272c:	6a5b      	ldr	r3, [r3, #36]	@ 0x24
 800272e:	6013      	str	r3, [r2, #0]
 8002730:	2301      	movs	r3, #1
 8002732:	9a01      	ldr	r2, [sp, #4]
 8002734:	7013      	strb	r3, [r2, #0]
 8002736:	9b07      	ldr	r3, [sp, #28]
 8002738:	781a      	ldrb	r2, [r3, #0]
 800273a:	6833      	ldr	r3, [r6, #0]
 800273c:	1a9b      	subs	r3, r3, r2
 800273e:	6033      	str	r3, [r6, #0]
 8002740:	e719      	b.n	8002576 <main+0x26a>
 8002742:	46c0      	nop			@ (mov r8, r8)
 8002744:	50000400 	.word	0x50000400

08002748 <Error_Handler>:
 8002748:	b672      	cpsid	i
 800274a:	e7fe      	b.n	800274a <Error_Handler+0x2>

0800274c <HAL_MspInit>:
 800274c:	2201      	movs	r2, #1
 800274e:	b500      	push	{lr}
 8002750:	4b0b      	ldr	r3, [pc, #44]	@ (8002780 <HAL_MspInit+0x34>)
 8002752:	b083      	sub	sp, #12
 8002754:	6c19      	ldr	r1, [r3, #64]	@ 0x40
 8002756:	20c0      	movs	r0, #192	@ 0xc0
 8002758:	4311      	orrs	r1, r2
 800275a:	6419      	str	r1, [r3, #64]	@ 0x40
 800275c:	6c19      	ldr	r1, [r3, #64]	@ 0x40
 800275e:	00c0      	lsls	r0, r0, #3
 8002760:	400a      	ands	r2, r1
 8002762:	2180      	movs	r1, #128	@ 0x80
 8002764:	9200      	str	r2, [sp, #0]
 8002766:	9a00      	ldr	r2, [sp, #0]
 8002768:	6bda      	ldr	r2, [r3, #60]	@ 0x3c
 800276a:	0549      	lsls	r1, r1, #21
 800276c:	430a      	orrs	r2, r1
 800276e:	63da      	str	r2, [r3, #60]	@ 0x3c
 8002770:	6bdb      	ldr	r3, [r3, #60]	@ 0x3c
 8002772:	400b      	ands	r3, r1
 8002774:	9301      	str	r3, [sp, #4]
 8002776:	9b01      	ldr	r3, [sp, #4]
 8002778:	f000 fee0 	bl	800353c <HAL_SYSCFG_StrobeDBattpinsConfig>
 800277c:	b003      	add	sp, #12
 800277e:	bd00      	pop	{pc}
 8002780:	40021000 	.word	0x40021000

08002784 <HAL_TIM_Base_MspInit>:
 8002784:	2380      	movs	r3, #128	@ 0x80
 8002786:	6802      	ldr	r2, [r0, #0]
 8002788:	b082      	sub	sp, #8
 800278a:	05db      	lsls	r3, r3, #23
 800278c:	429a      	cmp	r2, r3
 800278e:	d001      	beq.n	8002794 <HAL_TIM_Base_MspInit+0x10>
 8002790:	b002      	add	sp, #8
 8002792:	4770      	bx	lr
 8002794:	2301      	movs	r3, #1
 8002796:	4a04      	ldr	r2, [pc, #16]	@ (80027a8 <HAL_TIM_Base_MspInit+0x24>)
 8002798:	6bd1      	ldr	r1, [r2, #60]	@ 0x3c
 800279a:	4319      	orrs	r1, r3
 800279c:	63d1      	str	r1, [r2, #60]	@ 0x3c
 800279e:	6bd2      	ldr	r2, [r2, #60]	@ 0x3c
 80027a0:	4013      	ands	r3, r2
 80027a2:	9301      	str	r3, [sp, #4]
 80027a4:	9b01      	ldr	r3, [sp, #4]
 80027a6:	e7f3      	b.n	8002790 <HAL_TIM_Base_MspInit+0xc>
 80027a8:	40021000 	.word	0x40021000

080027ac <HAL_USART_MspInit>:
 80027ac:	b530      	push	{r4, r5, lr}
 80027ae:	0004      	movs	r4, r0
 80027b0:	b09d      	sub	sp, #116	@ 0x74
 80027b2:	2214      	movs	r2, #20
 80027b4:	2100      	movs	r1, #0
 80027b6:	a804      	add	r0, sp, #16
 80027b8:	f006 ffc0 	bl	800973c <memset>
 80027bc:	224c      	movs	r2, #76	@ 0x4c
 80027be:	2100      	movs	r1, #0
 80027c0:	a809      	add	r0, sp, #36	@ 0x24
 80027c2:	f006 ffbb 	bl	800973c <memset>
 80027c6:	4b28      	ldr	r3, [pc, #160]	@ (8002868 <HAL_USART_MspInit+0xbc>)
 80027c8:	6822      	ldr	r2, [r4, #0]
 80027ca:	429a      	cmp	r2, r3
 80027cc:	d001      	beq.n	80027d2 <HAL_USART_MspInit+0x26>
 80027ce:	b01d      	add	sp, #116	@ 0x74
 80027d0:	bd30      	pop	{r4, r5, pc}
 80027d2:	2304      	movs	r3, #4
 80027d4:	a809      	add	r0, sp, #36	@ 0x24
 80027d6:	9309      	str	r3, [sp, #36]	@ 0x24
 80027d8:	f003 f810 	bl	80057fc <HAL_RCCEx_PeriphCLKConfig>
 80027dc:	2800      	cmp	r0, #0
 80027de:	d13f      	bne.n	8002860 <HAL_USART_MspInit+0xb4>
 80027e0:	2180      	movs	r1, #128	@ 0x80
 80027e2:	4b22      	ldr	r3, [pc, #136]	@ (800286c <HAL_USART_MspInit+0xc0>)
 80027e4:	02c9      	lsls	r1, r1, #11
 80027e6:	6bda      	ldr	r2, [r3, #60]	@ 0x3c
 80027e8:	2400      	movs	r4, #0
 80027ea:	430a      	orrs	r2, r1
 80027ec:	63da      	str	r2, [r3, #60]	@ 0x3c
 80027ee:	6bda      	ldr	r2, [r3, #60]	@ 0x3c
 80027f0:	2500      	movs	r5, #0
 80027f2:	400a      	ands	r2, r1
 80027f4:	9201      	str	r2, [sp, #4]
 80027f6:	9a01      	ldr	r2, [sp, #4]
 80027f8:	2204      	movs	r2, #4
 80027fa:	6b59      	ldr	r1, [r3, #52]	@ 0x34
 80027fc:	481c      	ldr	r0, [pc, #112]	@ (8002870 <HAL_USART_MspInit+0xc4>)
 80027fe:	4311      	orrs	r1, r2
 8002800:	6359      	str	r1, [r3, #52]	@ 0x34
 8002802:	6b59      	ldr	r1, [r3, #52]	@ 0x34
 8002804:	400a      	ands	r2, r1
 8002806:	9202      	str	r2, [sp, #8]
 8002808:	9a02      	ldr	r2, [sp, #8]
 800280a:	2201      	movs	r2, #1
 800280c:	6b59      	ldr	r1, [r3, #52]	@ 0x34
 800280e:	4311      	orrs	r1, r2
 8002810:	6359      	str	r1, [r3, #52]	@ 0x34
 8002812:	6b5b      	ldr	r3, [r3, #52]	@ 0x34
 8002814:	a904      	add	r1, sp, #16
 8002816:	401a      	ands	r2, r3
 8002818:	9203      	str	r2, [sp, #12]
 800281a:	22c0      	movs	r2, #192	@ 0xc0
 800281c:	9b03      	ldr	r3, [sp, #12]
 800281e:	2302      	movs	r3, #2
 8002820:	0112      	lsls	r2, r2, #4
 8002822:	9204      	str	r2, [sp, #16]
 8002824:	9305      	str	r3, [sp, #20]
 8002826:	2300      	movs	r3, #0
 8002828:	9406      	str	r4, [sp, #24]
 800282a:	9507      	str	r5, [sp, #28]
 800282c:	9308      	str	r3, [sp, #32]
 800282e:	f001 f91d 	bl	8003a6c <HAL_GPIO_Init>
 8002832:	2280      	movs	r2, #128	@ 0x80
 8002834:	2302      	movs	r3, #2
 8002836:	0212      	lsls	r2, r2, #8
 8002838:	20a0      	movs	r0, #160	@ 0xa0
 800283a:	9204      	str	r2, [sp, #16]
 800283c:	9305      	str	r3, [sp, #20]
 800283e:	2305      	movs	r3, #5
 8002840:	a904      	add	r1, sp, #16
 8002842:	05c0      	lsls	r0, r0, #23
 8002844:	9308      	str	r3, [sp, #32]
 8002846:	9406      	str	r4, [sp, #24]
 8002848:	9507      	str	r5, [sp, #28]
 800284a:	f001 f90f 	bl	8003a6c <HAL_GPIO_Init>
 800284e:	2200      	movs	r2, #0
 8002850:	2100      	movs	r1, #0
 8002852:	201d      	movs	r0, #29
 8002854:	f000 fe7e 	bl	8003554 <HAL_NVIC_SetPriority>
 8002858:	201d      	movs	r0, #29
 800285a:	f000 fea5 	bl	80035a8 <HAL_NVIC_EnableIRQ>
 800285e:	e7b6      	b.n	80027ce <HAL_USART_MspInit+0x22>
 8002860:	f7ff ff72 	bl	8002748 <Error_Handler>
 8002864:	e7bc      	b.n	80027e0 <HAL_USART_MspInit+0x34>
 8002866:	46c0      	nop			@ (mov r8, r8)
 8002868:	40004800 	.word	0x40004800
 800286c:	40021000 	.word	0x40021000
 8002870:	50000800 	.word	0x50000800

08002874 <HAL_UART_MspInit>:
 8002874:	b530      	push	{r4, r5, lr}
 8002876:	0004      	movs	r4, r0
 8002878:	b089      	sub	sp, #36	@ 0x24
 800287a:	2214      	movs	r2, #20
 800287c:	2100      	movs	r1, #0
 800287e:	a802      	add	r0, sp, #8
 8002880:	f006 ff5c 	bl	800973c <memset>
 8002884:	4b2e      	ldr	r3, [pc, #184]	@ (8002940 <HAL_UART_MspInit+0xcc>)
 8002886:	6822      	ldr	r2, [r4, #0]
 8002888:	429a      	cmp	r2, r3
 800288a:	d001      	beq.n	8002890 <HAL_UART_MspInit+0x1c>
 800288c:	b009      	add	sp, #36	@ 0x24
 800288e:	bd30      	pop	{r4, r5, pc}
 8002890:	2180      	movs	r1, #128	@ 0x80
 8002892:	4b2c      	ldr	r3, [pc, #176]	@ (8002944 <HAL_UART_MspInit+0xd0>)
 8002894:	0049      	lsls	r1, r1, #1
 8002896:	6bda      	ldr	r2, [r3, #60]	@ 0x3c
 8002898:	482b      	ldr	r0, [pc, #172]	@ (8002948 <HAL_UART_MspInit+0xd4>)
 800289a:	430a      	orrs	r2, r1
 800289c:	63da      	str	r2, [r3, #60]	@ 0x3c
 800289e:	6bda      	ldr	r2, [r3, #60]	@ 0x3c
 80028a0:	400a      	ands	r2, r1
 80028a2:	9200      	str	r2, [sp, #0]
 80028a4:	9a00      	ldr	r2, [sp, #0]
 80028a6:	2208      	movs	r2, #8
 80028a8:	6b59      	ldr	r1, [r3, #52]	@ 0x34
 80028aa:	4311      	orrs	r1, r2
 80028ac:	6359      	str	r1, [r3, #52]	@ 0x34
 80028ae:	6b5b      	ldr	r3, [r3, #52]	@ 0x34
 80028b0:	a902      	add	r1, sp, #8
 80028b2:	401a      	ands	r2, r3
 80028b4:	9201      	str	r2, [sp, #4]
 80028b6:	9b01      	ldr	r3, [sp, #4]
 80028b8:	220c      	movs	r2, #12
 80028ba:	2302      	movs	r3, #2
 80028bc:	9202      	str	r2, [sp, #8]
 80028be:	9303      	str	r3, [sp, #12]
 80028c0:	2303      	movs	r3, #3
 80028c2:	9306      	str	r3, [sp, #24]
 80028c4:	f001 f8d2 	bl	8003a6c <HAL_GPIO_Init>
 80028c8:	4d20      	ldr	r5, [pc, #128]	@ (800294c <HAL_UART_MspInit+0xd8>)
 80028ca:	4b21      	ldr	r3, [pc, #132]	@ (8002950 <HAL_UART_MspInit+0xdc>)
 80028cc:	2280      	movs	r2, #128	@ 0x80
 80028ce:	602b      	str	r3, [r5, #0]
 80028d0:	234a      	movs	r3, #74	@ 0x4a
 80028d2:	606b      	str	r3, [r5, #4]
 80028d4:	2300      	movs	r3, #0
 80028d6:	612a      	str	r2, [r5, #16]
 80028d8:	0028      	movs	r0, r5
 80028da:	3a60      	subs	r2, #96	@ 0x60
 80028dc:	60ab      	str	r3, [r5, #8]
 80028de:	60eb      	str	r3, [r5, #12]
 80028e0:	616b      	str	r3, [r5, #20]
 80028e2:	61ab      	str	r3, [r5, #24]
 80028e4:	61ea      	str	r2, [r5, #28]
 80028e6:	622b      	str	r3, [r5, #32]
 80028e8:	f000 fe94 	bl	8003614 <HAL_DMA_Init>
 80028ec:	2800      	cmp	r0, #0
 80028ee:	d120      	bne.n	8002932 <HAL_UART_MspInit+0xbe>
 80028f0:	2280      	movs	r2, #128	@ 0x80
 80028f2:	4b18      	ldr	r3, [pc, #96]	@ (8002954 <HAL_UART_MspInit+0xe0>)
 80028f4:	50a5      	str	r5, [r4, r2]
 80028f6:	62ac      	str	r4, [r5, #40]	@ 0x28
 80028f8:	4d17      	ldr	r5, [pc, #92]	@ (8002958 <HAL_UART_MspInit+0xe4>)
 80028fa:	602b      	str	r3, [r5, #0]
 80028fc:	234b      	movs	r3, #75	@ 0x4b
 80028fe:	606b      	str	r3, [r5, #4]
 8002900:	3b3b      	subs	r3, #59	@ 0x3b
 8002902:	60ab      	str	r3, [r5, #8]
 8002904:	2300      	movs	r3, #0
 8002906:	0028      	movs	r0, r5
 8002908:	60eb      	str	r3, [r5, #12]
 800290a:	612a      	str	r2, [r5, #16]
 800290c:	616b      	str	r3, [r5, #20]
 800290e:	61ab      	str	r3, [r5, #24]
 8002910:	61eb      	str	r3, [r5, #28]
 8002912:	622b      	str	r3, [r5, #32]
 8002914:	f000 fe7e 	bl	8003614 <HAL_DMA_Init>
 8002918:	2800      	cmp	r0, #0
 800291a:	d10d      	bne.n	8002938 <HAL_UART_MspInit+0xc4>
 800291c:	2200      	movs	r2, #0
 800291e:	2100      	movs	r1, #0
 8002920:	201d      	movs	r0, #29
 8002922:	67e5      	str	r5, [r4, #124]	@ 0x7c
 8002924:	62ac      	str	r4, [r5, #40]	@ 0x28
 8002926:	f000 fe15 	bl	8003554 <HAL_NVIC_SetPriority>
 800292a:	201d      	movs	r0, #29
 800292c:	f000 fe3c 	bl	80035a8 <HAL_NVIC_EnableIRQ>
 8002930:	e7ac      	b.n	800288c <HAL_UART_MspInit+0x18>
 8002932:	f7ff ff09 	bl	8002748 <Error_Handler>
 8002936:	e7db      	b.n	80028f0 <HAL_UART_MspInit+0x7c>
 8002938:	f7ff ff06 	bl	8002748 <Error_Handler>
 800293c:	e7ee      	b.n	800291c <HAL_UART_MspInit+0xa8>
 800293e:	46c0      	nop			@ (mov r8, r8)
 8002940:	40005000 	.word	0x40005000
 8002944:	40021000 	.word	0x40021000
 8002948:	50000c00 	.word	0x50000c00
 800294c:	20000720 	.word	0x20000720
 8002950:	40020008 	.word	0x40020008
 8002954:	4002001c 	.word	0x4002001c
 8002958:	200006c0 	.word	0x200006c0

0800295c <HAL_UART_MspDeInit>:
 800295c:	4b0c      	ldr	r3, [pc, #48]	@ (8002990 <HAL_UART_MspDeInit+0x34>)
 800295e:	6802      	ldr	r2, [r0, #0]
 8002960:	b510      	push	{r4, lr}
 8002962:	0004      	movs	r4, r0
 8002964:	429a      	cmp	r2, r3
 8002966:	d000      	beq.n	800296a <HAL_UART_MspDeInit+0xe>
 8002968:	bd10      	pop	{r4, pc}
 800296a:	4a0a      	ldr	r2, [pc, #40]	@ (8002994 <HAL_UART_MspDeInit+0x38>)
 800296c:	490a      	ldr	r1, [pc, #40]	@ (8002998 <HAL_UART_MspDeInit+0x3c>)
 800296e:	6bd3      	ldr	r3, [r2, #60]	@ 0x3c
 8002970:	480a      	ldr	r0, [pc, #40]	@ (800299c <HAL_UART_MspDeInit+0x40>)
 8002972:	400b      	ands	r3, r1
 8002974:	310e      	adds	r1, #14
 8002976:	63d3      	str	r3, [r2, #60]	@ 0x3c
 8002978:	31ff      	adds	r1, #255	@ 0xff
 800297a:	f001 fa31 	bl	8003de0 <HAL_GPIO_DeInit>
 800297e:	2380      	movs	r3, #128	@ 0x80
 8002980:	58e0      	ldr	r0, [r4, r3]
 8002982:	f000 fed3 	bl	800372c <HAL_DMA_DeInit>
 8002986:	6fe0      	ldr	r0, [r4, #124]	@ 0x7c
 8002988:	f000 fed0 	bl	800372c <HAL_DMA_DeInit>
 800298c:	e7ec      	b.n	8002968 <HAL_UART_MspDeInit+0xc>
 800298e:	46c0      	nop			@ (mov r8, r8)
 8002990:	40005000 	.word	0x40005000
 8002994:	40021000 	.word	0x40021000
 8002998:	fffffeff 	.word	0xfffffeff
 800299c:	50000c00 	.word	0x50000c00

080029a0 <NMI_Handler>:
 80029a0:	e7fe      	b.n	80029a0 <NMI_Handler>
 80029a2:	46c0      	nop			@ (mov r8, r8)

080029a4 <HardFault_Handler>:
 80029a4:	e7fe      	b.n	80029a4 <HardFault_Handler>
 80029a6:	46c0      	nop			@ (mov r8, r8)

080029a8 <SVC_Handler>:
 80029a8:	4770      	bx	lr
 80029aa:	46c0      	nop			@ (mov r8, r8)

080029ac <PendSV_Handler>:
 80029ac:	4770      	bx	lr
 80029ae:	46c0      	nop			@ (mov r8, r8)

080029b0 <SysTick_Handler>:
 80029b0:	b510      	push	{r4, lr}
 80029b2:	f000 fd9f 	bl	80034f4 <HAL_IncTick>
 80029b6:	bd10      	pop	{r4, pc}

080029b8 <USB_UCPD1_2_IRQHandler>:
 80029b8:	b510      	push	{r4, lr}
 80029ba:	4802      	ldr	r0, [pc, #8]	@ (80029c4 <USB_UCPD1_2_IRQHandler+0xc>)
 80029bc:	f001 fc32 	bl	8004224 <HAL_PCD_IRQHandler>
 80029c0:	bd10      	pop	{r4, pc}
 80029c2:	46c0      	nop			@ (mov r8, r8)
 80029c4:	2000210c 	.word	0x2000210c

080029c8 <DMA1_Channel1_IRQHandler>:
 80029c8:	b510      	push	{r4, lr}
 80029ca:	4802      	ldr	r0, [pc, #8]	@ (80029d4 <DMA1_Channel1_IRQHandler+0xc>)
 80029cc:	f000 fff2 	bl	80039b4 <HAL_DMA_IRQHandler>
 80029d0:	bd10      	pop	{r4, pc}
 80029d2:	46c0      	nop			@ (mov r8, r8)
 80029d4:	20000720 	.word	0x20000720

080029d8 <DMA1_Channel2_3_IRQHandler>:
 80029d8:	b510      	push	{r4, lr}
 80029da:	4802      	ldr	r0, [pc, #8]	@ (80029e4 <DMA1_Channel2_3_IRQHandler+0xc>)
 80029dc:	f000 ffea 	bl	80039b4 <HAL_DMA_IRQHandler>
 80029e0:	bd10      	pop	{r4, pc}
 80029e2:	46c0      	nop			@ (mov r8, r8)
 80029e4:	200006c0 	.word	0x200006c0

080029e8 <USART3_4_5_6_LPUART1_IRQHandler>:
 80029e8:	b510      	push	{r4, lr}
 80029ea:	4803      	ldr	r0, [pc, #12]	@ (80029f8 <USART3_4_5_6_LPUART1_IRQHandler+0x10>)
 80029ec:	f004 fb66 	bl	80070bc <HAL_USART_IRQHandler>
 80029f0:	4802      	ldr	r0, [pc, #8]	@ (80029fc <USART3_4_5_6_LPUART1_IRQHandler+0x14>)
 80029f2:	f003 fb57 	bl	80060a4 <HAL_UART_IRQHandler>
 80029f6:	bd10      	pop	{r4, pc}
 80029f8:	20000814 	.word	0x20000814
 80029fc:	20000780 	.word	0x20000780

08002a00 <SystemInit>:
 8002a00:	4770      	bx	lr
 8002a02:	46c0      	nop			@ (mov r8, r8)

08002a04 <TMC2209_WriteRegister>:
 8002a04:	b5f8      	push	{r3, r4, r5, r6, r7, lr}
 8002a06:	2305      	movs	r3, #5
 8002a08:	000c      	movs	r4, r1
 8002a0a:	492f      	ldr	r1, [pc, #188]	@ (8002ac8 <TMC2209_WriteRegister+0xc4>)
 8002a0c:	2507      	movs	r5, #7
 8002a0e:	700b      	strb	r3, [r1, #0]
 8002a10:	3b85      	subs	r3, #133	@ 0x85
 8002a12:	4323      	orrs	r3, r4
 8002a14:	708b      	strb	r3, [r1, #2]
 8002a16:	0e13      	lsrs	r3, r2, #24
 8002a18:	70cb      	strb	r3, [r1, #3]
 8002a1a:	0c13      	lsrs	r3, r2, #16
 8002a1c:	710b      	strb	r3, [r1, #4]
 8002a1e:	0a13      	lsrs	r3, r2, #8
 8002a20:	714b      	strb	r3, [r1, #5]
 8002a22:	1dcb      	adds	r3, r1, #7
 8002a24:	469c      	mov	ip, r3
 8002a26:	7048      	strb	r0, [r1, #1]
 8002a28:	000e      	movs	r6, r1
 8002a2a:	2300      	movs	r3, #0
 8002a2c:	2001      	movs	r0, #1
 8002a2e:	718a      	strb	r2, [r1, #6]
 8002a30:	0007      	movs	r7, r0
 8002a32:	7832      	ldrb	r2, [r6, #0]
 8002a34:	09dc      	lsrs	r4, r3, #7
 8002a36:	4017      	ands	r7, r2
 8002a38:	005b      	lsls	r3, r3, #1
 8002a3a:	42a7      	cmp	r7, r4
 8002a3c:	d000      	beq.n	8002a40 <TMC2209_WriteRegister+0x3c>
 8002a3e:	406b      	eors	r3, r5
 8002a40:	b2db      	uxtb	r3, r3
 8002a42:	0854      	lsrs	r4, r2, #1
 8002a44:	09df      	lsrs	r7, r3, #7
 8002a46:	4004      	ands	r4, r0
 8002a48:	005b      	lsls	r3, r3, #1
 8002a4a:	42bc      	cmp	r4, r7
 8002a4c:	d000      	beq.n	8002a50 <TMC2209_WriteRegister+0x4c>
 8002a4e:	406b      	eors	r3, r5
 8002a50:	b2db      	uxtb	r3, r3
 8002a52:	0894      	lsrs	r4, r2, #2
 8002a54:	09df      	lsrs	r7, r3, #7
 8002a56:	4004      	ands	r4, r0
 8002a58:	005b      	lsls	r3, r3, #1
 8002a5a:	42bc      	cmp	r4, r7
 8002a5c:	d000      	beq.n	8002a60 <TMC2209_WriteRegister+0x5c>
 8002a5e:	406b      	eors	r3, r5
 8002a60:	b2db      	uxtb	r3, r3
 8002a62:	08d4      	lsrs	r4, r2, #3
 8002a64:	09df      	lsrs	r7, r3, #7
 8002a66:	4004      	ands	r4, r0
 8002a68:	005b      	lsls	r3, r3, #1
 8002a6a:	42bc      	cmp	r4, r7
 8002a6c:	d000      	beq.n	8002a70 <TMC2209_WriteRegister+0x6c>
 8002a6e:	406b      	eors	r3, r5
 8002a70:	b2db      	uxtb	r3, r3
 8002a72:	0914      	lsrs	r4, r2, #4
 8002a74:	09df      	lsrs	r7, r3, #7
 8002a76:	4004      	ands	r4, r0
 8002a78:	005b      	lsls	r3, r3, #1
 8002a7a:	42a7      	cmp	r7, r4
 8002a7c:	d000      	beq.n	8002a80 <TMC2209_WriteRegister+0x7c>
 8002a7e:	406b      	eors	r3, r5
 8002a80:	b2db      	uxtb	r3, r3
 8002a82:	0954      	lsrs	r4, r2, #5
 8002a84:	09df      	lsrs	r7, r3, #7
 8002a86:	4004      	ands	r4, r0
 8002a88:	005b      	lsls	r3, r3, #1
 8002a8a:	42a7      	cmp	r7, r4
 8002a8c:	d000      	beq.n	8002a90 <TMC2209_WriteRegister+0x8c>
 8002a8e:	406b      	eors	r3, r5
 8002a90:	b2db      	uxtb	r3, r3
 8002a92:	0994      	lsrs	r4, r2, #6
 8002a94:	09df      	lsrs	r7, r3, #7
 8002a96:	4004      	ands	r4, r0
 8002a98:	005b      	lsls	r3, r3, #1
 8002a9a:	42a7      	cmp	r7, r4
 8002a9c:	d000      	beq.n	8002aa0 <TMC2209_WriteRegister+0x9c>
 8002a9e:	406b      	eors	r3, r5
 8002aa0:	b2db      	uxtb	r3, r3
 8002aa2:	09dc      	lsrs	r4, r3, #7
 8002aa4:	09d2      	lsrs	r2, r2, #7
 8002aa6:	005b      	lsls	r3, r3, #1
 8002aa8:	42a2      	cmp	r2, r4
 8002aaa:	d000      	beq.n	8002aae <TMC2209_WriteRegister+0xaa>
 8002aac:	406b      	eors	r3, r5
 8002aae:	3601      	adds	r6, #1
 8002ab0:	b2db      	uxtb	r3, r3
 8002ab2:	45b4      	cmp	ip, r6
 8002ab4:	d1bc      	bne.n	8002a30 <TMC2209_WriteRegister+0x2c>
 8002ab6:	71cb      	strb	r3, [r1, #7]
 8002ab8:	2301      	movs	r3, #1
 8002aba:	2208      	movs	r2, #8
 8002abc:	425b      	negs	r3, r3
 8002abe:	4803      	ldr	r0, [pc, #12]	@ (8002acc <TMC2209_WriteRegister+0xc8>)
 8002ac0:	f004 fa44 	bl	8006f4c <HAL_USART_Transmit>
 8002ac4:	bdf8      	pop	{r3, r4, r5, r6, r7, pc}
 8002ac6:	46c0      	nop			@ (mov r8, r8)
 8002ac8:	200009a0 	.word	0x200009a0
 8002acc:	200009a8 	.word	0x200009a8

08002ad0 <TMC2209_Init>:
 8002ad0:	b084      	sub	sp, #16
 8002ad2:	b5f0      	push	{r4, r5, r6, r7, lr}
 8002ad4:	46de      	mov	lr, fp
 8002ad6:	464e      	mov	r6, r9
 8002ad8:	4657      	mov	r7, sl
 8002ada:	4645      	mov	r5, r8
 8002adc:	b5e0      	push	{r5, r6, r7, lr}
 8002ade:	b083      	sub	sp, #12
 8002ae0:	930f      	str	r3, [sp, #60]	@ 0x3c
 8002ae2:	4bb1      	ldr	r3, [pc, #708]	@ (8002da8 <TMC2209_Init+0x2d8>)
 8002ae4:	900c      	str	r0, [sp, #48]	@ 0x30
 8002ae6:	910d      	str	r1, [sp, #52]	@ 0x34
 8002ae8:	0018      	movs	r0, r3
 8002aea:	920e      	str	r2, [sp, #56]	@ 0x38
 8002aec:	a90c      	add	r1, sp, #48	@ 0x30
 8002aee:	2260      	movs	r2, #96	@ 0x60
 8002af0:	9300      	str	r3, [sp, #0]
 8002af2:	f006 fe4f 	bl	8009794 <memcpy>
 8002af6:	4bad      	ldr	r3, [pc, #692]	@ (8002dac <TMC2209_Init+0x2dc>)
 8002af8:	2401      	movs	r4, #1
 8002afa:	469a      	mov	sl, r3
 8002afc:	4699      	mov	r9, r3
 8002afe:	2300      	movs	r3, #0
 8002b00:	2507      	movs	r5, #7
 8002b02:	469b      	mov	fp, r3
 8002b04:	4eaa      	ldr	r6, [pc, #680]	@ (8002db0 <TMC2209_Init+0x2e0>)
 8002b06:	465b      	mov	r3, fp
 8002b08:	4649      	mov	r1, r9
 8002b0a:	b2da      	uxtb	r2, r3
 8002b0c:	2334      	movs	r3, #52	@ 0x34
 8002b0e:	54ca      	strb	r2, [r1, r3]
 8002b10:	465b      	mov	r3, fp
 8002b12:	4659      	mov	r1, fp
 8002b14:	2007      	movs	r0, #7
 8002b16:	00db      	lsls	r3, r3, #3
 8002b18:	9301      	str	r3, [sp, #4]
 8002b1a:	1a5b      	subs	r3, r3, r1
 8002b1c:	00db      	lsls	r3, r3, #3
 8002b1e:	4453      	add	r3, sl
 8002b20:	7919      	ldrb	r1, [r3, #4]
 8002b22:	7072      	strb	r2, [r6, #1]
 8002b24:	4381      	bics	r1, r0
 8002b26:	7119      	strb	r1, [r3, #4]
 8002b28:	464b      	mov	r3, r9
 8002b2a:	2281      	movs	r2, #129	@ 0x81
 8002b2c:	2105      	movs	r1, #5
 8002b2e:	685b      	ldr	r3, [r3, #4]
 8002b30:	70b2      	strb	r2, [r6, #2]
 8002b32:	0e1a      	lsrs	r2, r3, #24
 8002b34:	70f2      	strb	r2, [r6, #3]
 8002b36:	0c1a      	lsrs	r2, r3, #16
 8002b38:	7132      	strb	r2, [r6, #4]
 8002b3a:	0a1a      	lsrs	r2, r3, #8
 8002b3c:	7031      	strb	r1, [r6, #0]
 8002b3e:	46b0      	mov	r8, r6
 8002b40:	0030      	movs	r0, r6
 8002b42:	2100      	movs	r1, #0
 8002b44:	46b4      	mov	ip, r6
 8002b46:	7172      	strb	r2, [r6, #5]
 8002b48:	71b3      	strb	r3, [r6, #6]
 8002b4a:	1df7      	adds	r7, r6, #7
 8002b4c:	e034      	b.n	8002bb8 <TMC2209_Init+0xe8>
 8002b4e:	0071      	lsls	r1, r6, #1
 8002b50:	4069      	eors	r1, r5
 8002b52:	b2ce      	uxtb	r6, r1
 8002b54:	089a      	lsrs	r2, r3, #2
 8002b56:	09f1      	lsrs	r1, r6, #7
 8002b58:	4022      	ands	r2, r4
 8002b5a:	4291      	cmp	r1, r2
 8002b5c:	d041      	beq.n	8002be2 <TMC2209_Init+0x112>
 8002b5e:	0072      	lsls	r2, r6, #1
 8002b60:	406a      	eors	r2, r5
 8002b62:	b2d6      	uxtb	r6, r2
 8002b64:	08da      	lsrs	r2, r3, #3
 8002b66:	09f1      	lsrs	r1, r6, #7
 8002b68:	4022      	ands	r2, r4
 8002b6a:	4291      	cmp	r1, r2
 8002b6c:	d040      	beq.n	8002bf0 <TMC2209_Init+0x120>
 8002b6e:	0072      	lsls	r2, r6, #1
 8002b70:	406a      	eors	r2, r5
 8002b72:	b2d6      	uxtb	r6, r2
 8002b74:	091a      	lsrs	r2, r3, #4
 8002b76:	09f1      	lsrs	r1, r6, #7
 8002b78:	4022      	ands	r2, r4
 8002b7a:	4291      	cmp	r1, r2
 8002b7c:	d03f      	beq.n	8002bfe <TMC2209_Init+0x12e>
 8002b7e:	0072      	lsls	r2, r6, #1
 8002b80:	406a      	eors	r2, r5
 8002b82:	b2d6      	uxtb	r6, r2
 8002b84:	095a      	lsrs	r2, r3, #5
 8002b86:	09f1      	lsrs	r1, r6, #7
 8002b88:	4022      	ands	r2, r4
 8002b8a:	4291      	cmp	r1, r2
 8002b8c:	d03e      	beq.n	8002c0c <TMC2209_Init+0x13c>
 8002b8e:	0071      	lsls	r1, r6, #1
 8002b90:	4069      	eors	r1, r5
 8002b92:	b2ce      	uxtb	r6, r1
 8002b94:	099a      	lsrs	r2, r3, #6
 8002b96:	09f1      	lsrs	r1, r6, #7
 8002b98:	4022      	ands	r2, r4
 8002b9a:	4291      	cmp	r1, r2
 8002b9c:	d03d      	beq.n	8002c1a <TMC2209_Init+0x14a>
 8002b9e:	0071      	lsls	r1, r6, #1
 8002ba0:	4069      	eors	r1, r5
 8002ba2:	b2c9      	uxtb	r1, r1
 8002ba4:	09ca      	lsrs	r2, r1, #7
 8002ba6:	09db      	lsrs	r3, r3, #7
 8002ba8:	0049      	lsls	r1, r1, #1
 8002baa:	4293      	cmp	r3, r2
 8002bac:	d000      	beq.n	8002bb0 <TMC2209_Init+0xe0>
 8002bae:	4069      	eors	r1, r5
 8002bb0:	3001      	adds	r0, #1
 8002bb2:	b2c9      	uxtb	r1, r1
 8002bb4:	4287      	cmp	r7, r0
 8002bb6:	d033      	beq.n	8002c20 <TMC2209_Init+0x150>
 8002bb8:	0026      	movs	r6, r4
 8002bba:	7803      	ldrb	r3, [r0, #0]
 8002bbc:	09ca      	lsrs	r2, r1, #7
 8002bbe:	401e      	ands	r6, r3
 8002bc0:	0049      	lsls	r1, r1, #1
 8002bc2:	42b2      	cmp	r2, r6
 8002bc4:	d000      	beq.n	8002bc8 <TMC2209_Init+0xf8>
 8002bc6:	4069      	eors	r1, r5
 8002bc8:	b2ce      	uxtb	r6, r1
 8002bca:	085a      	lsrs	r2, r3, #1
 8002bcc:	09f1      	lsrs	r1, r6, #7
 8002bce:	4022      	ands	r2, r4
 8002bd0:	4291      	cmp	r1, r2
 8002bd2:	d1bc      	bne.n	8002b4e <TMC2209_Init+0x7e>
 8002bd4:	0076      	lsls	r6, r6, #1
 8002bd6:	b2f6      	uxtb	r6, r6
 8002bd8:	089a      	lsrs	r2, r3, #2
 8002bda:	09f1      	lsrs	r1, r6, #7
 8002bdc:	4022      	ands	r2, r4
 8002bde:	4291      	cmp	r1, r2
 8002be0:	d1bd      	bne.n	8002b5e <TMC2209_Init+0x8e>
 8002be2:	0076      	lsls	r6, r6, #1
 8002be4:	b2f6      	uxtb	r6, r6
 8002be6:	08da      	lsrs	r2, r3, #3
 8002be8:	09f1      	lsrs	r1, r6, #7
 8002bea:	4022      	ands	r2, r4
 8002bec:	4291      	cmp	r1, r2
 8002bee:	d1be      	bne.n	8002b6e <TMC2209_Init+0x9e>
 8002bf0:	0076      	lsls	r6, r6, #1
 8002bf2:	b2f6      	uxtb	r6, r6
 8002bf4:	091a      	lsrs	r2, r3, #4
 8002bf6:	09f1      	lsrs	r1, r6, #7
 8002bf8:	4022      	ands	r2, r4
 8002bfa:	4291      	cmp	r1, r2
 8002bfc:	d1bf      	bne.n	8002b7e <TMC2209_Init+0xae>
 8002bfe:	0076      	lsls	r6, r6, #1
 8002c00:	b2f6      	uxtb	r6, r6
 8002c02:	095a      	lsrs	r2, r3, #5
 8002c04:	09f1      	lsrs	r1, r6, #7
 8002c06:	4022      	ands	r2, r4
 8002c08:	4291      	cmp	r1, r2
 8002c0a:	d1c0      	bne.n	8002b8e <TMC2209_Init+0xbe>
 8002c0c:	0076      	lsls	r6, r6, #1
 8002c0e:	b2f6      	uxtb	r6, r6
 8002c10:	099a      	lsrs	r2, r3, #6
 8002c12:	09f1      	lsrs	r1, r6, #7
 8002c14:	4022      	ands	r2, r4
 8002c16:	4291      	cmp	r1, r2
 8002c18:	d1c1      	bne.n	8002b9e <TMC2209_Init+0xce>
 8002c1a:	0071      	lsls	r1, r6, #1
 8002c1c:	b2c9      	uxtb	r1, r1
 8002c1e:	e7c1      	b.n	8002ba4 <TMC2209_Init+0xd4>
 8002c20:	4666      	mov	r6, ip
 8002c22:	2301      	movs	r3, #1
 8002c24:	2208      	movs	r2, #8
 8002c26:	71f1      	strb	r1, [r6, #7]
 8002c28:	425b      	negs	r3, r3
 8002c2a:	0031      	movs	r1, r6
 8002c2c:	9800      	ldr	r0, [sp, #0]
 8002c2e:	f004 f98d 	bl	8006f4c <HAL_USART_Transmit>
 8002c32:	464b      	mov	r3, r9
 8002c34:	2200      	movs	r2, #0
 8002c36:	601a      	str	r2, [r3, #0]
 8002c38:	465a      	mov	r2, fp
 8002c3a:	9b01      	ldr	r3, [sp, #4]
 8002c3c:	21d4      	movs	r1, #212	@ 0xd4
 8002c3e:	1a9a      	subs	r2, r3, r2
 8002c40:	4653      	mov	r3, sl
 8002c42:	00d2      	lsls	r2, r2, #3
 8002c44:	5a9b      	ldrh	r3, [r3, r2]
 8002c46:	31ff      	adds	r1, #255	@ 0xff
 8002c48:	0a9b      	lsrs	r3, r3, #10
 8002c4a:	029b      	lsls	r3, r3, #10
 8002c4c:	430b      	orrs	r3, r1
 8002c4e:	4651      	mov	r1, sl
 8002c50:	528b      	strh	r3, [r1, r2]
 8002c52:	2334      	movs	r3, #52	@ 0x34
 8002c54:	464a      	mov	r2, r9
 8002c56:	5cd2      	ldrb	r2, [r2, r3]
 8002c58:	464b      	mov	r3, r9
 8002c5a:	7072      	strb	r2, [r6, #1]
 8002c5c:	2280      	movs	r2, #128	@ 0x80
 8002c5e:	2105      	movs	r1, #5
 8002c60:	681b      	ldr	r3, [r3, #0]
 8002c62:	70b2      	strb	r2, [r6, #2]
 8002c64:	0e1a      	lsrs	r2, r3, #24
 8002c66:	70f2      	strb	r2, [r6, #3]
 8002c68:	0c1a      	lsrs	r2, r3, #16
 8002c6a:	7132      	strb	r2, [r6, #4]
 8002c6c:	0a1a      	lsrs	r2, r3, #8
 8002c6e:	7031      	strb	r1, [r6, #0]
 8002c70:	0030      	movs	r0, r6
 8002c72:	2100      	movs	r1, #0
 8002c74:	46b4      	mov	ip, r6
 8002c76:	7172      	strb	r2, [r6, #5]
 8002c78:	71b3      	strb	r3, [r6, #6]
 8002c7a:	e034      	b.n	8002ce6 <TMC2209_Init+0x216>
 8002c7c:	0071      	lsls	r1, r6, #1
 8002c7e:	4069      	eors	r1, r5
 8002c80:	b2ce      	uxtb	r6, r1
 8002c82:	089a      	lsrs	r2, r3, #2
 8002c84:	09f1      	lsrs	r1, r6, #7
 8002c86:	4022      	ands	r2, r4
 8002c88:	4291      	cmp	r1, r2
 8002c8a:	d041      	beq.n	8002d10 <TMC2209_Init+0x240>
 8002c8c:	0072      	lsls	r2, r6, #1
 8002c8e:	406a      	eors	r2, r5
 8002c90:	b2d6      	uxtb	r6, r2
 8002c92:	08da      	lsrs	r2, r3, #3
 8002c94:	09f1      	lsrs	r1, r6, #7
 8002c96:	4022      	ands	r2, r4
 8002c98:	4291      	cmp	r1, r2
 8002c9a:	d040      	beq.n	8002d1e <TMC2209_Init+0x24e>
 8002c9c:	0072      	lsls	r2, r6, #1
 8002c9e:	406a      	eors	r2, r5
 8002ca0:	b2d6      	uxtb	r6, r2
 8002ca2:	091a      	lsrs	r2, r3, #4
 8002ca4:	09f1      	lsrs	r1, r6, #7
 8002ca6:	4022      	ands	r2, r4
 8002ca8:	4291      	cmp	r1, r2
 8002caa:	d03f      	beq.n	8002d2c <TMC2209_Init+0x25c>
 8002cac:	0072      	lsls	r2, r6, #1
 8002cae:	406a      	eors	r2, r5
 8002cb0:	b2d6      	uxtb	r6, r2
 8002cb2:	095a      	lsrs	r2, r3, #5
 8002cb4:	09f1      	lsrs	r1, r6, #7
 8002cb6:	4022      	ands	r2, r4
 8002cb8:	4291      	cmp	r1, r2
 8002cba:	d03e      	beq.n	8002d3a <TMC2209_Init+0x26a>
 8002cbc:	0071      	lsls	r1, r6, #1
 8002cbe:	4069      	eors	r1, r5
 8002cc0:	b2ce      	uxtb	r6, r1
 8002cc2:	099a      	lsrs	r2, r3, #6
 8002cc4:	09f1      	lsrs	r1, r6, #7
 8002cc6:	4022      	ands	r2, r4
 8002cc8:	4291      	cmp	r1, r2
 8002cca:	d03d      	beq.n	8002d48 <TMC2209_Init+0x278>
 8002ccc:	0071      	lsls	r1, r6, #1
 8002cce:	4069      	eors	r1, r5
 8002cd0:	b2c9      	uxtb	r1, r1
 8002cd2:	09ca      	lsrs	r2, r1, #7
 8002cd4:	09db      	lsrs	r3, r3, #7
 8002cd6:	0049      	lsls	r1, r1, #1
 8002cd8:	4293      	cmp	r3, r2
 8002cda:	d000      	beq.n	8002cde <TMC2209_Init+0x20e>
 8002cdc:	4069      	eors	r1, r5
 8002cde:	3001      	adds	r0, #1
 8002ce0:	b2c9      	uxtb	r1, r1
 8002ce2:	4287      	cmp	r7, r0
 8002ce4:	d033      	beq.n	8002d4e <TMC2209_Init+0x27e>
 8002ce6:	0026      	movs	r6, r4
 8002ce8:	7803      	ldrb	r3, [r0, #0]
 8002cea:	09ca      	lsrs	r2, r1, #7
 8002cec:	401e      	ands	r6, r3
 8002cee:	0049      	lsls	r1, r1, #1
 8002cf0:	42b2      	cmp	r2, r6
 8002cf2:	d000      	beq.n	8002cf6 <TMC2209_Init+0x226>
 8002cf4:	4069      	eors	r1, r5
 8002cf6:	b2ce      	uxtb	r6, r1
 8002cf8:	085a      	lsrs	r2, r3, #1
 8002cfa:	09f1      	lsrs	r1, r6, #7
 8002cfc:	4022      	ands	r2, r4
 8002cfe:	4291      	cmp	r1, r2
 8002d00:	d1bc      	bne.n	8002c7c <TMC2209_Init+0x1ac>
 8002d02:	0076      	lsls	r6, r6, #1
 8002d04:	b2f6      	uxtb	r6, r6
 8002d06:	089a      	lsrs	r2, r3, #2
 8002d08:	09f1      	lsrs	r1, r6, #7
 8002d0a:	4022      	ands	r2, r4
 8002d0c:	4291      	cmp	r1, r2
 8002d0e:	d1bd      	bne.n	8002c8c <TMC2209_Init+0x1bc>
 8002d10:	0076      	lsls	r6, r6, #1
 8002d12:	b2f6      	uxtb	r6, r6
 8002d14:	08da      	lsrs	r2, r3, #3
 8002d16:	09f1      	lsrs	r1, r6, #7
 8002d18:	4022      	ands	r2, r4
 8002d1a:	4291      	cmp	r1, r2
 8002d1c:	d1be      	bne.n	8002c9c <TMC2209_Init+0x1cc>
 8002d1e:	0076      	lsls	r6, r6, #1
 8002d20:	b2f6      	uxtb	r6, r6
 8002d22:	091a      	lsrs	r2, r3, #4
 8002d24:	09f1      	lsrs	r1, r6, #7
 8002d26:	4022      	ands	r2, r4
 8002d28:	4291      	cmp	r1, r2
 8002d2a:	d1bf      	bne.n	8002cac <TMC2209_Init+0x1dc>
 8002d2c:	0076      	lsls	r6, r6, #1
 8002d2e:	b2f6      	uxtb	r6, r6
 8002d30:	095a      	lsrs	r2, r3, #5
 8002d32:	09f1      	lsrs	r1, r6, #7
 8002d34:	4022      	ands	r2, r4
 8002d36:	4291      	cmp	r1, r2
 8002d38:	d1c0      	bne.n	8002cbc <TMC2209_Init+0x1ec>
 8002d3a:	0076      	lsls	r6, r6, #1
 8002d3c:	b2f6      	uxtb	r6, r6
 8002d3e:	099a      	lsrs	r2, r3, #6
 8002d40:	09f1      	lsrs	r1, r6, #7
 8002d42:	4022      	ands	r2, r4
 8002d44:	4291      	cmp	r1, r2
 8002d46:	d1c1      	bne.n	8002ccc <TMC2209_Init+0x1fc>
 8002d48:	0071      	lsls	r1, r6, #1
 8002d4a:	b2c9      	uxtb	r1, r1
 8002d4c:	e7c1      	b.n	8002cd2 <TMC2209_Init+0x202>
 8002d4e:	4666      	mov	r6, ip
 8002d50:	2301      	movs	r3, #1
 8002d52:	2208      	movs	r2, #8
 8002d54:	71f1      	strb	r1, [r6, #7]
 8002d56:	425b      	negs	r3, r3
 8002d58:	0031      	movs	r1, r6
 8002d5a:	9800      	ldr	r0, [sp, #0]
 8002d5c:	f004 f8f6 	bl	8006f4c <HAL_USART_Transmit>
 8002d60:	464a      	mov	r2, r9
 8002d62:	4b14      	ldr	r3, [pc, #80]	@ (8002db4 <TMC2209_Init+0x2e4>)
 8002d64:	2130      	movs	r1, #48	@ 0x30
 8002d66:	61d3      	str	r3, [r2, #28]
 8002d68:	465a      	mov	r2, fp
 8002d6a:	9b01      	ldr	r3, [sp, #4]
 8002d6c:	0030      	movs	r0, r6
 8002d6e:	1a9b      	subs	r3, r3, r2
 8002d70:	00db      	lsls	r3, r3, #3
 8002d72:	4453      	add	r3, sl
 8002d74:	7f9a      	ldrb	r2, [r3, #30]
 8002d76:	46b4      	mov	ip, r6
 8002d78:	438a      	bics	r2, r1
 8002d7a:	2120      	movs	r1, #32
 8002d7c:	430a      	orrs	r2, r1
 8002d7e:	779a      	strb	r2, [r3, #30]
 8002d80:	2334      	movs	r3, #52	@ 0x34
 8002d82:	464a      	mov	r2, r9
 8002d84:	5cd2      	ldrb	r2, [r2, r3]
 8002d86:	464b      	mov	r3, r9
 8002d88:	7072      	strb	r2, [r6, #1]
 8002d8a:	22f0      	movs	r2, #240	@ 0xf0
 8002d8c:	2105      	movs	r1, #5
 8002d8e:	69db      	ldr	r3, [r3, #28]
 8002d90:	70b2      	strb	r2, [r6, #2]
 8002d92:	0e1a      	lsrs	r2, r3, #24
 8002d94:	70f2      	strb	r2, [r6, #3]
 8002d96:	0c1a      	lsrs	r2, r3, #16
 8002d98:	7132      	strb	r2, [r6, #4]
 8002d9a:	0a1a      	lsrs	r2, r3, #8
 8002d9c:	7031      	strb	r1, [r6, #0]
 8002d9e:	7172      	strb	r2, [r6, #5]
 8002da0:	2100      	movs	r1, #0
 8002da2:	71b3      	strb	r3, [r6, #6]
 8002da4:	e03d      	b.n	8002e22 <TMC2209_Init+0x352>
 8002da6:	46c0      	nop			@ (mov r8, r8)
 8002da8:	200009a8 	.word	0x200009a8
 8002dac:	200008c0 	.word	0x200008c0
 8002db0:	200009a0 	.word	0x200009a0
 8002db4:	c10d0024 	.word	0xc10d0024
 8002db8:	0071      	lsls	r1, r6, #1
 8002dba:	4069      	eors	r1, r5
 8002dbc:	b2ce      	uxtb	r6, r1
 8002dbe:	089a      	lsrs	r2, r3, #2
 8002dc0:	09f1      	lsrs	r1, r6, #7
 8002dc2:	4022      	ands	r2, r4
 8002dc4:	4291      	cmp	r1, r2
 8002dc6:	d041      	beq.n	8002e4c <TMC2209_Init+0x37c>
 8002dc8:	0072      	lsls	r2, r6, #1
 8002dca:	406a      	eors	r2, r5
 8002dcc:	b2d6      	uxtb	r6, r2
 8002dce:	08da      	lsrs	r2, r3, #3
 8002dd0:	09f1      	lsrs	r1, r6, #7
 8002dd2:	4022      	ands	r2, r4
 8002dd4:	4291      	cmp	r1, r2
 8002dd6:	d040      	beq.n	8002e5a <TMC2209_Init+0x38a>
 8002dd8:	0072      	lsls	r2, r6, #1
 8002dda:	406a      	eors	r2, r5
 8002ddc:	b2d6      	uxtb	r6, r2
 8002dde:	091a      	lsrs	r2, r3, #4
 8002de0:	09f1      	lsrs	r1, r6, #7
 8002de2:	4022      	ands	r2, r4
 8002de4:	4291      	cmp	r1, r2
 8002de6:	d03f      	beq.n	8002e68 <TMC2209_Init+0x398>
 8002de8:	0072      	lsls	r2, r6, #1
 8002dea:	406a      	eors	r2, r5
 8002dec:	b2d6      	uxtb	r6, r2
 8002dee:	095a      	lsrs	r2, r3, #5
 8002df0:	09f1      	lsrs	r1, r6, #7
 8002df2:	4022      	ands	r2, r4
 8002df4:	4291      	cmp	r1, r2
 8002df6:	d03e      	beq.n	8002e76 <TMC2209_Init+0x3a6>
 8002df8:	0071      	lsls	r1, r6, #1
 8002dfa:	4069      	eors	r1, r5
 8002dfc:	b2ce      	uxtb	r6, r1
 8002dfe:	099a      	lsrs	r2, r3, #6
 8002e00:	09f1      	lsrs	r1, r6, #7
 8002e02:	4022      	ands	r2, r4
 8002e04:	4291      	cmp	r1, r2
 8002e06:	d03d      	beq.n	8002e84 <TMC2209_Init+0x3b4>
 8002e08:	0071      	lsls	r1, r6, #1
 8002e0a:	4069      	eors	r1, r5
 8002e0c:	b2c9      	uxtb	r1, r1
 8002e0e:	09ca      	lsrs	r2, r1, #7
 8002e10:	09db      	lsrs	r3, r3, #7
 8002e12:	0049      	lsls	r1, r1, #1
 8002e14:	4293      	cmp	r3, r2
 8002e16:	d000      	beq.n	8002e1a <TMC2209_Init+0x34a>
 8002e18:	4069      	eors	r1, r5
 8002e1a:	3001      	adds	r0, #1
 8002e1c:	b2c9      	uxtb	r1, r1
 8002e1e:	4287      	cmp	r7, r0
 8002e20:	d033      	beq.n	8002e8a <TMC2209_Init+0x3ba>
 8002e22:	0026      	movs	r6, r4
 8002e24:	7803      	ldrb	r3, [r0, #0]
 8002e26:	09ca      	lsrs	r2, r1, #7
 8002e28:	401e      	ands	r6, r3
 8002e2a:	0049      	lsls	r1, r1, #1
 8002e2c:	42b2      	cmp	r2, r6
 8002e2e:	d000      	beq.n	8002e32 <TMC2209_Init+0x362>
 8002e30:	4069      	eors	r1, r5
 8002e32:	b2ce      	uxtb	r6, r1
 8002e34:	085a      	lsrs	r2, r3, #1
 8002e36:	09f1      	lsrs	r1, r6, #7
 8002e38:	4022      	ands	r2, r4
 8002e3a:	4291      	cmp	r1, r2
 8002e3c:	d1bc      	bne.n	8002db8 <TMC2209_Init+0x2e8>
 8002e3e:	0076      	lsls	r6, r6, #1
 8002e40:	b2f6      	uxtb	r6, r6
 8002e42:	089a      	lsrs	r2, r3, #2
 8002e44:	09f1      	lsrs	r1, r6, #7
 8002e46:	4022      	ands	r2, r4
 8002e48:	4291      	cmp	r1, r2
 8002e4a:	d1bd      	bne.n	8002dc8 <TMC2209_Init+0x2f8>
 8002e4c:	0076      	lsls	r6, r6, #1
 8002e4e:	b2f6      	uxtb	r6, r6
 8002e50:	08da      	lsrs	r2, r3, #3
 8002e52:	09f1      	lsrs	r1, r6, #7
 8002e54:	4022      	ands	r2, r4
 8002e56:	4291      	cmp	r1, r2
 8002e58:	d1be      	bne.n	8002dd8 <TMC2209_Init+0x308>
 8002e5a:	0076      	lsls	r6, r6, #1
 8002e5c:	b2f6      	uxtb	r6, r6
 8002e5e:	091a      	lsrs	r2, r3, #4
 8002e60:	09f1      	lsrs	r1, r6, #7
 8002e62:	4022      	ands	r2, r4
 8002e64:	4291      	cmp	r1, r2
 8002e66:	d1bf      	bne.n	8002de8 <TMC2209_Init+0x318>
 8002e68:	0076      	lsls	r6, r6, #1
 8002e6a:	b2f6      	uxtb	r6, r6
 8002e6c:	095a      	lsrs	r2, r3, #5
 8002e6e:	09f1      	lsrs	r1, r6, #7
 8002e70:	4022      	ands	r2, r4
 8002e72:	4291      	cmp	r1, r2
 8002e74:	d1c0      	bne.n	8002df8 <TMC2209_Init+0x328>
 8002e76:	0076      	lsls	r6, r6, #1
 8002e78:	b2f6      	uxtb	r6, r6
 8002e7a:	099a      	lsrs	r2, r3, #6
 8002e7c:	09f1      	lsrs	r1, r6, #7
 8002e7e:	4022      	ands	r2, r4
 8002e80:	4291      	cmp	r1, r2
 8002e82:	d1c1      	bne.n	8002e08 <TMC2209_Init+0x338>
 8002e84:	0071      	lsls	r1, r6, #1
 8002e86:	b2c9      	uxtb	r1, r1
 8002e88:	e7c1      	b.n	8002e0e <TMC2209_Init+0x33e>
 8002e8a:	4666      	mov	r6, ip
 8002e8c:	2301      	movs	r3, #1
 8002e8e:	2208      	movs	r2, #8
 8002e90:	71f1      	strb	r1, [r6, #7]
 8002e92:	425b      	negs	r3, r3
 8002e94:	0031      	movs	r1, r6
 8002e96:	9800      	ldr	r0, [sp, #0]
 8002e98:	f004 f858 	bl	8006f4c <HAL_USART_Transmit>
 8002e9c:	464a      	mov	r2, r9
 8002e9e:	4b80      	ldr	r3, [pc, #512]	@ (80030a0 <TMC2209_Init+0x5d0>)
 8002ea0:	211f      	movs	r1, #31
 8002ea2:	6093      	str	r3, [r2, #8]
 8002ea4:	465a      	mov	r2, fp
 8002ea6:	9b01      	ldr	r3, [sp, #4]
 8002ea8:	0030      	movs	r0, r6
 8002eaa:	1a9b      	subs	r3, r3, r2
 8002eac:	00db      	lsls	r3, r3, #3
 8002eae:	4453      	add	r3, sl
 8002eb0:	7ada      	ldrb	r2, [r3, #11]
 8002eb2:	46b4      	mov	ip, r6
 8002eb4:	438a      	bics	r2, r1
 8002eb6:	2118      	movs	r1, #24
 8002eb8:	430a      	orrs	r2, r1
 8002eba:	72da      	strb	r2, [r3, #11]
 8002ebc:	2334      	movs	r3, #52	@ 0x34
 8002ebe:	464a      	mov	r2, r9
 8002ec0:	5cd2      	ldrb	r2, [r2, r3]
 8002ec2:	464b      	mov	r3, r9
 8002ec4:	7072      	strb	r2, [r6, #1]
 8002ec6:	22ec      	movs	r2, #236	@ 0xec
 8002ec8:	2105      	movs	r1, #5
 8002eca:	689b      	ldr	r3, [r3, #8]
 8002ecc:	70b2      	strb	r2, [r6, #2]
 8002ece:	0e1a      	lsrs	r2, r3, #24
 8002ed0:	70f2      	strb	r2, [r6, #3]
 8002ed2:	0c1a      	lsrs	r2, r3, #16
 8002ed4:	7132      	strb	r2, [r6, #4]
 8002ed6:	0a1a      	lsrs	r2, r3, #8
 8002ed8:	7031      	strb	r1, [r6, #0]
 8002eda:	7172      	strb	r2, [r6, #5]
 8002edc:	2100      	movs	r1, #0
 8002ede:	71b3      	strb	r3, [r6, #6]
 8002ee0:	e034      	b.n	8002f4c <TMC2209_Init+0x47c>
 8002ee2:	0071      	lsls	r1, r6, #1
 8002ee4:	4069      	eors	r1, r5
 8002ee6:	b2ce      	uxtb	r6, r1
 8002ee8:	089a      	lsrs	r2, r3, #2
 8002eea:	09f1      	lsrs	r1, r6, #7
 8002eec:	4022      	ands	r2, r4
 8002eee:	4291      	cmp	r1, r2
 8002ef0:	d041      	beq.n	8002f76 <TMC2209_Init+0x4a6>
 8002ef2:	0072      	lsls	r2, r6, #1
 8002ef4:	406a      	eors	r2, r5
 8002ef6:	b2d6      	uxtb	r6, r2
 8002ef8:	08da      	lsrs	r2, r3, #3
 8002efa:	09f1      	lsrs	r1, r6, #7
 8002efc:	4022      	ands	r2, r4
 8002efe:	4291      	cmp	r1, r2
 8002f00:	d040      	beq.n	8002f84 <TMC2209_Init+0x4b4>
 8002f02:	0072      	lsls	r2, r6, #1
 8002f04:	406a      	eors	r2, r5
 8002f06:	b2d6      	uxtb	r6, r2
 8002f08:	091a      	lsrs	r2, r3, #4
 8002f0a:	09f1      	lsrs	r1, r6, #7
 8002f0c:	4022      	ands	r2, r4
 8002f0e:	4291      	cmp	r1, r2
 8002f10:	d03f      	beq.n	8002f92 <TMC2209_Init+0x4c2>
 8002f12:	0072      	lsls	r2, r6, #1
 8002f14:	406a      	eors	r2, r5
 8002f16:	b2d6      	uxtb	r6, r2
 8002f18:	095a      	lsrs	r2, r3, #5
 8002f1a:	09f1      	lsrs	r1, r6, #7
 8002f1c:	4022      	ands	r2, r4
 8002f1e:	4291      	cmp	r1, r2
 8002f20:	d03e      	beq.n	8002fa0 <TMC2209_Init+0x4d0>
 8002f22:	0071      	lsls	r1, r6, #1
 8002f24:	4069      	eors	r1, r5
 8002f26:	b2ce      	uxtb	r6, r1
 8002f28:	099a      	lsrs	r2, r3, #6
 8002f2a:	09f1      	lsrs	r1, r6, #7
 8002f2c:	4022      	ands	r2, r4
 8002f2e:	4291      	cmp	r1, r2
 8002f30:	d03d      	beq.n	8002fae <TMC2209_Init+0x4de>
 8002f32:	0071      	lsls	r1, r6, #1
 8002f34:	4069      	eors	r1, r5
 8002f36:	b2c9      	uxtb	r1, r1
 8002f38:	09ca      	lsrs	r2, r1, #7
 8002f3a:	09db      	lsrs	r3, r3, #7
 8002f3c:	0049      	lsls	r1, r1, #1
 8002f3e:	4293      	cmp	r3, r2
 8002f40:	d000      	beq.n	8002f44 <TMC2209_Init+0x474>
 8002f42:	4069      	eors	r1, r5
 8002f44:	3001      	adds	r0, #1
 8002f46:	b2c9      	uxtb	r1, r1
 8002f48:	4287      	cmp	r7, r0
 8002f4a:	d033      	beq.n	8002fb4 <TMC2209_Init+0x4e4>
 8002f4c:	0026      	movs	r6, r4
 8002f4e:	7803      	ldrb	r3, [r0, #0]
 8002f50:	09ca      	lsrs	r2, r1, #7
 8002f52:	401e      	ands	r6, r3
 8002f54:	0049      	lsls	r1, r1, #1
 8002f56:	42b2      	cmp	r2, r6
 8002f58:	d000      	beq.n	8002f5c <TMC2209_Init+0x48c>
 8002f5a:	4069      	eors	r1, r5
 8002f5c:	b2ce      	uxtb	r6, r1
 8002f5e:	085a      	lsrs	r2, r3, #1
 8002f60:	09f1      	lsrs	r1, r6, #7
 8002f62:	4022      	ands	r2, r4
 8002f64:	4291      	cmp	r1, r2
 8002f66:	d1bc      	bne.n	8002ee2 <TMC2209_Init+0x412>
 8002f68:	0076      	lsls	r6, r6, #1
 8002f6a:	b2f6      	uxtb	r6, r6
 8002f6c:	089a      	lsrs	r2, r3, #2
 8002f6e:	09f1      	lsrs	r1, r6, #7
 8002f70:	4022      	ands	r2, r4
 8002f72:	4291      	cmp	r1, r2
 8002f74:	d1bd      	bne.n	8002ef2 <TMC2209_Init+0x422>
 8002f76:	0076      	lsls	r6, r6, #1
 8002f78:	b2f6      	uxtb	r6, r6
 8002f7a:	08da      	lsrs	r2, r3, #3
 8002f7c:	09f1      	lsrs	r1, r6, #7
 8002f7e:	4022      	ands	r2, r4
 8002f80:	4291      	cmp	r1, r2
 8002f82:	d1be      	bne.n	8002f02 <TMC2209_Init+0x432>
 8002f84:	0076      	lsls	r6, r6, #1
 8002f86:	b2f6      	uxtb	r6, r6
 8002f88:	091a      	lsrs	r2, r3, #4
 8002f8a:	09f1      	lsrs	r1, r6, #7
 8002f8c:	4022      	ands	r2, r4
 8002f8e:	4291      	cmp	r1, r2
 8002f90:	d1bf      	bne.n	8002f12 <TMC2209_Init+0x442>
 8002f92:	0076      	lsls	r6, r6, #1
 8002f94:	b2f6      	uxtb	r6, r6
 8002f96:	095a      	lsrs	r2, r3, #5
 8002f98:	09f1      	lsrs	r1, r6, #7
 8002f9a:	4022      	ands	r2, r4
 8002f9c:	4291      	cmp	r1, r2
 8002f9e:	d1c0      	bne.n	8002f22 <TMC2209_Init+0x452>
 8002fa0:	0076      	lsls	r6, r6, #1
 8002fa2:	b2f6      	uxtb	r6, r6
 8002fa4:	099a      	lsrs	r2, r3, #6
 8002fa6:	09f1      	lsrs	r1, r6, #7
 8002fa8:	4022      	ands	r2, r4
 8002faa:	4291      	cmp	r1, r2
 8002fac:	d1c1      	bne.n	8002f32 <TMC2209_Init+0x462>
 8002fae:	0071      	lsls	r1, r6, #1
 8002fb0:	b2c9      	uxtb	r1, r1
 8002fb2:	e7c1      	b.n	8002f38 <TMC2209_Init+0x468>
 8002fb4:	4666      	mov	r6, ip
 8002fb6:	2301      	movs	r3, #1
 8002fb8:	2208      	movs	r2, #8
 8002fba:	71f1      	strb	r1, [r6, #7]
 8002fbc:	425b      	negs	r3, r3
 8002fbe:	0031      	movs	r1, r6
 8002fc0:	9800      	ldr	r0, [sp, #0]
 8002fc2:	f003 ffc3 	bl	8006f4c <HAL_USART_Transmit>
 8002fc6:	464b      	mov	r3, r9
 8002fc8:	2200      	movs	r2, #0
 8002fca:	615a      	str	r2, [r3, #20]
 8002fcc:	465a      	mov	r2, fp
 8002fce:	9b01      	ldr	r3, [sp, #4]
 8002fd0:	0030      	movs	r0, r6
 8002fd2:	1a9b      	subs	r3, r3, r2
 8002fd4:	00db      	lsls	r3, r3, #3
 8002fd6:	4453      	add	r3, sl
 8002fd8:	6959      	ldr	r1, [r3, #20]
 8002fda:	4a32      	ldr	r2, [pc, #200]	@ (80030a4 <TMC2209_Init+0x5d4>)
 8002fdc:	46b4      	mov	ip, r6
 8002fde:	4011      	ands	r1, r2
 8002fe0:	4a31      	ldr	r2, [pc, #196]	@ (80030a8 <TMC2209_Init+0x5d8>)
 8002fe2:	430a      	orrs	r2, r1
 8002fe4:	615a      	str	r2, [r3, #20]
 8002fe6:	2334      	movs	r3, #52	@ 0x34
 8002fe8:	464a      	mov	r2, r9
 8002fea:	5cd2      	ldrb	r2, [r2, r3]
 8002fec:	464b      	mov	r3, r9
 8002fee:	7072      	strb	r2, [r6, #1]
 8002ff0:	2290      	movs	r2, #144	@ 0x90
 8002ff2:	2105      	movs	r1, #5
 8002ff4:	695b      	ldr	r3, [r3, #20]
 8002ff6:	70b2      	strb	r2, [r6, #2]
 8002ff8:	0e1a      	lsrs	r2, r3, #24
 8002ffa:	70f2      	strb	r2, [r6, #3]
 8002ffc:	0c1a      	lsrs	r2, r3, #16
 8002ffe:	7132      	strb	r2, [r6, #4]
 8003000:	0a1a      	lsrs	r2, r3, #8
 8003002:	71b3      	strb	r3, [r6, #6]
 8003004:	7031      	strb	r1, [r6, #0]
 8003006:	2300      	movs	r3, #0
 8003008:	7172      	strb	r2, [r6, #5]
 800300a:	e01c      	b.n	8003046 <TMC2209_Init+0x576>
 800300c:	0073      	lsls	r3, r6, #1
 800300e:	406b      	eors	r3, r5
 8003010:	b2db      	uxtb	r3, r3
 8003012:	0951      	lsrs	r1, r2, #5
 8003014:	09de      	lsrs	r6, r3, #7
 8003016:	4021      	ands	r1, r4
 8003018:	005b      	lsls	r3, r3, #1
 800301a:	42b1      	cmp	r1, r6
 800301c:	d000      	beq.n	8003020 <TMC2209_Init+0x550>
 800301e:	406b      	eors	r3, r5
 8003020:	b2de      	uxtb	r6, r3
 8003022:	0993      	lsrs	r3, r2, #6
 8003024:	09f1      	lsrs	r1, r6, #7
 8003026:	4023      	ands	r3, r4
 8003028:	4299      	cmp	r1, r3
 800302a:	d035      	beq.n	8003098 <TMC2209_Init+0x5c8>
 800302c:	0073      	lsls	r3, r6, #1
 800302e:	406b      	eors	r3, r5
 8003030:	b2db      	uxtb	r3, r3
 8003032:	09d9      	lsrs	r1, r3, #7
 8003034:	09d2      	lsrs	r2, r2, #7
 8003036:	005b      	lsls	r3, r3, #1
 8003038:	428a      	cmp	r2, r1
 800303a:	d000      	beq.n	800303e <TMC2209_Init+0x56e>
 800303c:	406b      	eors	r3, r5
 800303e:	3001      	adds	r0, #1
 8003040:	b2db      	uxtb	r3, r3
 8003042:	4287      	cmp	r7, r0
 8003044:	d032      	beq.n	80030ac <TMC2209_Init+0x5dc>
 8003046:	0026      	movs	r6, r4
 8003048:	7802      	ldrb	r2, [r0, #0]
 800304a:	09d9      	lsrs	r1, r3, #7
 800304c:	4016      	ands	r6, r2
 800304e:	005b      	lsls	r3, r3, #1
 8003050:	428e      	cmp	r6, r1
 8003052:	d000      	beq.n	8003056 <TMC2209_Init+0x586>
 8003054:	406b      	eors	r3, r5
 8003056:	b2db      	uxtb	r3, r3
 8003058:	0851      	lsrs	r1, r2, #1
 800305a:	09de      	lsrs	r6, r3, #7
 800305c:	4021      	ands	r1, r4
 800305e:	005b      	lsls	r3, r3, #1
 8003060:	42b1      	cmp	r1, r6
 8003062:	d000      	beq.n	8003066 <TMC2209_Init+0x596>
 8003064:	406b      	eors	r3, r5
 8003066:	b2db      	uxtb	r3, r3
 8003068:	0891      	lsrs	r1, r2, #2
 800306a:	09de      	lsrs	r6, r3, #7
 800306c:	4021      	ands	r1, r4
 800306e:	005b      	lsls	r3, r3, #1
 8003070:	42b1      	cmp	r1, r6
 8003072:	d000      	beq.n	8003076 <TMC2209_Init+0x5a6>
 8003074:	406b      	eors	r3, r5
 8003076:	b2db      	uxtb	r3, r3
 8003078:	08d1      	lsrs	r1, r2, #3
 800307a:	09de      	lsrs	r6, r3, #7
 800307c:	4021      	ands	r1, r4
 800307e:	005b      	lsls	r3, r3, #1
 8003080:	42b1      	cmp	r1, r6
 8003082:	d000      	beq.n	8003086 <TMC2209_Init+0x5b6>
 8003084:	406b      	eors	r3, r5
 8003086:	b2de      	uxtb	r6, r3
 8003088:	0913      	lsrs	r3, r2, #4
 800308a:	09f1      	lsrs	r1, r6, #7
 800308c:	4023      	ands	r3, r4
 800308e:	4299      	cmp	r1, r3
 8003090:	d1bc      	bne.n	800300c <TMC2209_Init+0x53c>
 8003092:	0073      	lsls	r3, r6, #1
 8003094:	b2db      	uxtb	r3, r3
 8003096:	e7bc      	b.n	8003012 <TMC2209_Init+0x542>
 8003098:	0073      	lsls	r3, r6, #1
 800309a:	b2db      	uxtb	r3, r3
 800309c:	e7c9      	b.n	8003032 <TMC2209_Init+0x562>
 800309e:	46c0      	nop			@ (mov r8, r8)
 80030a0:	10000053 	.word	0x10000053
 80030a4:	fff0e0e0 	.word	0xfff0e0e0
 80030a8:	00011f00 	.word	0x00011f00
 80030ac:	4666      	mov	r6, ip
 80030ae:	71f3      	strb	r3, [r6, #7]
 80030b0:	2301      	movs	r3, #1
 80030b2:	2208      	movs	r2, #8
 80030b4:	0031      	movs	r1, r6
 80030b6:	425b      	negs	r3, r3
 80030b8:	9800      	ldr	r0, [sp, #0]
 80030ba:	f003 ff47 	bl	8006f4c <HAL_USART_Transmit>
 80030be:	465a      	mov	r2, fp
 80030c0:	9b01      	ldr	r3, [sp, #4]
 80030c2:	2105      	movs	r1, #5
 80030c4:	1a9b      	subs	r3, r3, r2
 80030c6:	00db      	lsls	r3, r3, #3
 80030c8:	4453      	add	r3, sl
 80030ca:	6b1a      	ldr	r2, [r3, #48]	@ 0x30
 80030cc:	46b4      	mov	ip, r6
 80030ce:	0d12      	lsrs	r2, r2, #20
 80030d0:	0512      	lsls	r2, r2, #20
 80030d2:	631a      	str	r2, [r3, #48]	@ 0x30
 80030d4:	2334      	movs	r3, #52	@ 0x34
 80030d6:	464a      	mov	r2, r9
 80030d8:	5cd2      	ldrb	r2, [r2, r3]
 80030da:	464b      	mov	r3, r9
 80030dc:	7072      	strb	r2, [r6, #1]
 80030de:	2294      	movs	r2, #148	@ 0x94
 80030e0:	6b1b      	ldr	r3, [r3, #48]	@ 0x30
 80030e2:	70b2      	strb	r2, [r6, #2]
 80030e4:	0e1a      	lsrs	r2, r3, #24
 80030e6:	70f2      	strb	r2, [r6, #3]
 80030e8:	0c1a      	lsrs	r2, r3, #16
 80030ea:	7031      	strb	r1, [r6, #0]
 80030ec:	7132      	strb	r2, [r6, #4]
 80030ee:	71b3      	strb	r3, [r6, #6]
 80030f0:	0a1a      	lsrs	r2, r3, #8
 80030f2:	0031      	movs	r1, r6
 80030f4:	2300      	movs	r3, #0
 80030f6:	7172      	strb	r2, [r6, #5]
 80030f8:	0026      	movs	r6, r4
 80030fa:	780a      	ldrb	r2, [r1, #0]
 80030fc:	09d8      	lsrs	r0, r3, #7
 80030fe:	4016      	ands	r6, r2
 8003100:	005b      	lsls	r3, r3, #1
 8003102:	4286      	cmp	r6, r0
 8003104:	d000      	beq.n	8003108 <TMC2209_Init+0x638>
 8003106:	406b      	eors	r3, r5
 8003108:	b2db      	uxtb	r3, r3
 800310a:	0850      	lsrs	r0, r2, #1
 800310c:	09de      	lsrs	r6, r3, #7
 800310e:	4020      	ands	r0, r4
 8003110:	005b      	lsls	r3, r3, #1
 8003112:	42b0      	cmp	r0, r6
 8003114:	d000      	beq.n	8003118 <TMC2209_Init+0x648>
 8003116:	406b      	eors	r3, r5
 8003118:	b2db      	uxtb	r3, r3
 800311a:	0890      	lsrs	r0, r2, #2
 800311c:	09de      	lsrs	r6, r3, #7
 800311e:	4020      	ands	r0, r4
 8003120:	005b      	lsls	r3, r3, #1
 8003122:	42b0      	cmp	r0, r6
 8003124:	d000      	beq.n	8003128 <TMC2209_Init+0x658>
 8003126:	406b      	eors	r3, r5
 8003128:	b2db      	uxtb	r3, r3
 800312a:	08d0      	lsrs	r0, r2, #3
 800312c:	09de      	lsrs	r6, r3, #7
 800312e:	4020      	ands	r0, r4
 8003130:	005b      	lsls	r3, r3, #1
 8003132:	42b0      	cmp	r0, r6
 8003134:	d000      	beq.n	8003138 <TMC2209_Init+0x668>
 8003136:	406b      	eors	r3, r5
 8003138:	b2db      	uxtb	r3, r3
 800313a:	0910      	lsrs	r0, r2, #4
 800313c:	09de      	lsrs	r6, r3, #7
 800313e:	4020      	ands	r0, r4
 8003140:	005b      	lsls	r3, r3, #1
 8003142:	42b0      	cmp	r0, r6
 8003144:	d000      	beq.n	8003148 <TMC2209_Init+0x678>
 8003146:	406b      	eors	r3, r5
 8003148:	b2db      	uxtb	r3, r3
 800314a:	0950      	lsrs	r0, r2, #5
 800314c:	09de      	lsrs	r6, r3, #7
 800314e:	4020      	ands	r0, r4
 8003150:	005b      	lsls	r3, r3, #1
 8003152:	42b0      	cmp	r0, r6
 8003154:	d000      	beq.n	8003158 <TMC2209_Init+0x688>
 8003156:	406b      	eors	r3, r5
 8003158:	b2db      	uxtb	r3, r3
 800315a:	0990      	lsrs	r0, r2, #6
 800315c:	09de      	lsrs	r6, r3, #7
 800315e:	4020      	ands	r0, r4
 8003160:	005b      	lsls	r3, r3, #1
 8003162:	42b0      	cmp	r0, r6
 8003164:	d000      	beq.n	8003168 <TMC2209_Init+0x698>
 8003166:	406b      	eors	r3, r5
 8003168:	b2db      	uxtb	r3, r3
 800316a:	09d8      	lsrs	r0, r3, #7
 800316c:	09d2      	lsrs	r2, r2, #7
 800316e:	005b      	lsls	r3, r3, #1
 8003170:	4290      	cmp	r0, r2
 8003172:	d000      	beq.n	8003176 <TMC2209_Init+0x6a6>
 8003174:	406b      	eors	r3, r5
 8003176:	3101      	adds	r1, #1
 8003178:	b2db      	uxtb	r3, r3
 800317a:	428f      	cmp	r7, r1
 800317c:	d1bc      	bne.n	80030f8 <TMC2209_Init+0x628>
 800317e:	4666      	mov	r6, ip
 8003180:	71f3      	strb	r3, [r6, #7]
 8003182:	2301      	movs	r3, #1
 8003184:	2208      	movs	r2, #8
 8003186:	0031      	movs	r1, r6
 8003188:	425b      	negs	r3, r3
 800318a:	9800      	ldr	r0, [sp, #0]
 800318c:	f003 fede 	bl	8006f4c <HAL_USART_Transmit>
 8003190:	465a      	mov	r2, fp
 8003192:	9b01      	ldr	r3, [sp, #4]
 8003194:	2105      	movs	r1, #5
 8003196:	1a9b      	subs	r3, r3, r2
 8003198:	00db      	lsls	r3, r3, #3
 800319a:	4453      	add	r3, sl
 800319c:	6a9a      	ldr	r2, [r3, #40]	@ 0x28
 800319e:	46b4      	mov	ip, r6
 80031a0:	0d12      	lsrs	r2, r2, #20
 80031a2:	0512      	lsls	r2, r2, #20
 80031a4:	629a      	str	r2, [r3, #40]	@ 0x28
 80031a6:	2334      	movs	r3, #52	@ 0x34
 80031a8:	464a      	mov	r2, r9
 80031aa:	5cd2      	ldrb	r2, [r2, r3]
 80031ac:	464b      	mov	r3, r9
 80031ae:	7072      	strb	r2, [r6, #1]
 80031b0:	2293      	movs	r2, #147	@ 0x93
 80031b2:	6a9b      	ldr	r3, [r3, #40]	@ 0x28
 80031b4:	70b2      	strb	r2, [r6, #2]
 80031b6:	0e1a      	lsrs	r2, r3, #24
 80031b8:	70f2      	strb	r2, [r6, #3]
 80031ba:	0c1a      	lsrs	r2, r3, #16
 80031bc:	7031      	strb	r1, [r6, #0]
 80031be:	7132      	strb	r2, [r6, #4]
 80031c0:	71b3      	strb	r3, [r6, #6]
 80031c2:	0a1a      	lsrs	r2, r3, #8
 80031c4:	0031      	movs	r1, r6
 80031c6:	2300      	movs	r3, #0
 80031c8:	7172      	strb	r2, [r6, #5]
 80031ca:	0026      	movs	r6, r4
 80031cc:	780a      	ldrb	r2, [r1, #0]
 80031ce:	09d8      	lsrs	r0, r3, #7
 80031d0:	4016      	ands	r6, r2
 80031d2:	005b      	lsls	r3, r3, #1
 80031d4:	4286      	cmp	r6, r0
 80031d6:	d000      	beq.n	80031da <TMC2209_Init+0x70a>
 80031d8:	406b      	eors	r3, r5
 80031da:	b2db      	uxtb	r3, r3
 80031dc:	0850      	lsrs	r0, r2, #1
 80031de:	09de      	lsrs	r6, r3, #7
 80031e0:	4020      	ands	r0, r4
 80031e2:	005b      	lsls	r3, r3, #1
 80031e4:	42b0      	cmp	r0, r6
 80031e6:	d000      	beq.n	80031ea <TMC2209_Init+0x71a>
 80031e8:	406b      	eors	r3, r5
 80031ea:	b2db      	uxtb	r3, r3
 80031ec:	0890      	lsrs	r0, r2, #2
 80031ee:	09de      	lsrs	r6, r3, #7
 80031f0:	4020      	ands	r0, r4
 80031f2:	005b      	lsls	r3, r3, #1
 80031f4:	42b0      	cmp	r0, r6
 80031f6:	d000      	beq.n	80031fa <TMC2209_Init+0x72a>
 80031f8:	406b      	eors	r3, r5
 80031fa:	b2db      	uxtb	r3, r3
 80031fc:	08d0      	lsrs	r0, r2, #3
 80031fe:	09de      	lsrs	r6, r3, #7
 8003200:	4020      	ands	r0, r4
 8003202:	005b      	lsls	r3, r3, #1
 8003204:	42b0      	cmp	r0, r6
 8003206:	d000      	beq.n	800320a <TMC2209_Init+0x73a>
 8003208:	406b      	eors	r3, r5
 800320a:	b2db      	uxtb	r3, r3
 800320c:	0910      	lsrs	r0, r2, #4
 800320e:	09de      	lsrs	r6, r3, #7
 8003210:	4020      	ands	r0, r4
 8003212:	005b      	lsls	r3, r3, #1
 8003214:	42b0      	cmp	r0, r6
 8003216:	d000      	beq.n	800321a <TMC2209_Init+0x74a>
 8003218:	406b      	eors	r3, r5
 800321a:	b2db      	uxtb	r3, r3
 800321c:	0950      	lsrs	r0, r2, #5
 800321e:	09de      	lsrs	r6, r3, #7
 8003220:	4020      	ands	r0, r4
 8003222:	005b      	lsls	r3, r3, #1
 8003224:	42b0      	cmp	r0, r6
 8003226:	d000      	beq.n	800322a <TMC2209_Init+0x75a>
 8003228:	406b      	eors	r3, r5
 800322a:	b2db      	uxtb	r3, r3
 800322c:	0990      	lsrs	r0, r2, #6
 800322e:	09de      	lsrs	r6, r3, #7
 8003230:	4020      	ands	r0, r4
 8003232:	005b      	lsls	r3, r3, #1
 8003234:	42b0      	cmp	r0, r6
 8003236:	d000      	beq.n	800323a <TMC2209_Init+0x76a>
 8003238:	406b      	eors	r3, r5
 800323a:	b2db      	uxtb	r3, r3
 800323c:	09d8      	lsrs	r0, r3, #7
 800323e:	09d2      	lsrs	r2, r2, #7
 8003240:	005b      	lsls	r3, r3, #1
 8003242:	4290      	cmp	r0, r2
 8003244:	d000      	beq.n	8003248 <TMC2209_Init+0x778>
 8003246:	406b      	eors	r3, r5
 8003248:	3101      	adds	r1, #1
 800324a:	b2db      	uxtb	r3, r3
 800324c:	428f      	cmp	r7, r1
 800324e:	d1bc      	bne.n	80031ca <TMC2209_Init+0x6fa>
 8003250:	4666      	mov	r6, ip
 8003252:	71f3      	strb	r3, [r6, #7]
 8003254:	2301      	movs	r3, #1
 8003256:	2208      	movs	r2, #8
 8003258:	0031      	movs	r1, r6
 800325a:	425b      	negs	r3, r3
 800325c:	9800      	ldr	r0, [sp, #0]
 800325e:	f003 fe75 	bl	8006f4c <HAL_USART_Transmit>
 8003262:	465a      	mov	r2, fp
 8003264:	9b01      	ldr	r3, [sp, #4]
 8003266:	2105      	movs	r1, #5
 8003268:	1a9b      	subs	r3, r3, r2
 800326a:	22ff      	movs	r2, #255	@ 0xff
 800326c:	00db      	lsls	r3, r3, #3
 800326e:	4453      	add	r3, sl
 8003270:	761a      	strb	r2, [r3, #24]
 8003272:	2334      	movs	r3, #52	@ 0x34
 8003274:	464a      	mov	r2, r9
 8003276:	5cd2      	ldrb	r2, [r2, r3]
 8003278:	464b      	mov	r3, r9
 800327a:	7072      	strb	r2, [r6, #1]
 800327c:	2291      	movs	r2, #145	@ 0x91
 800327e:	699b      	ldr	r3, [r3, #24]
 8003280:	70b2      	strb	r2, [r6, #2]
 8003282:	0e1a      	lsrs	r2, r3, #24
 8003284:	70f2      	strb	r2, [r6, #3]
 8003286:	0c1a      	lsrs	r2, r3, #16
 8003288:	7031      	strb	r1, [r6, #0]
 800328a:	7132      	strb	r2, [r6, #4]
 800328c:	71b3      	strb	r3, [r6, #6]
 800328e:	0a1a      	lsrs	r2, r3, #8
 8003290:	0031      	movs	r1, r6
 8003292:	2300      	movs	r3, #0
 8003294:	46b4      	mov	ip, r6
 8003296:	7172      	strb	r2, [r6, #5]
 8003298:	0026      	movs	r6, r4
 800329a:	780a      	ldrb	r2, [r1, #0]
 800329c:	09d8      	lsrs	r0, r3, #7
 800329e:	4016      	ands	r6, r2
 80032a0:	005b      	lsls	r3, r3, #1
 80032a2:	4286      	cmp	r6, r0
 80032a4:	d000      	beq.n	80032a8 <TMC2209_Init+0x7d8>
 80032a6:	406b      	eors	r3, r5
 80032a8:	b2db      	uxtb	r3, r3
 80032aa:	0850      	lsrs	r0, r2, #1
 80032ac:	09de      	lsrs	r6, r3, #7
 80032ae:	4020      	ands	r0, r4
 80032b0:	005b      	lsls	r3, r3, #1
 80032b2:	42b0      	cmp	r0, r6
 80032b4:	d000      	beq.n	80032b8 <TMC2209_Init+0x7e8>
 80032b6:	406b      	eors	r3, r5
 80032b8:	b2db      	uxtb	r3, r3
 80032ba:	0890      	lsrs	r0, r2, #2
 80032bc:	09de      	lsrs	r6, r3, #7
 80032be:	4020      	ands	r0, r4
 80032c0:	005b      	lsls	r3, r3, #1
 80032c2:	42b0      	cmp	r0, r6
 80032c4:	d000      	beq.n	80032c8 <TMC2209_Init+0x7f8>
 80032c6:	406b      	eors	r3, r5
 80032c8:	b2db      	uxtb	r3, r3
 80032ca:	08d0      	lsrs	r0, r2, #3
 80032cc:	09de      	lsrs	r6, r3, #7
 80032ce:	4020      	ands	r0, r4
 80032d0:	005b      	lsls	r3, r3, #1
 80032d2:	42b0      	cmp	r0, r6
 80032d4:	d000      	beq.n	80032d8 <TMC2209_Init+0x808>
 80032d6:	406b      	eors	r3, r5
 80032d8:	b2db      	uxtb	r3, r3
 80032da:	0910      	lsrs	r0, r2, #4
 80032dc:	09de      	lsrs	r6, r3, #7
 80032de:	4020      	ands	r0, r4
 80032e0:	005b      	lsls	r3, r3, #1
 80032e2:	42b0      	cmp	r0, r6
 80032e4:	d000      	beq.n	80032e8 <TMC2209_Init+0x818>
 80032e6:	406b      	eors	r3, r5
 80032e8:	b2db      	uxtb	r3, r3
 80032ea:	0950      	lsrs	r0, r2, #5
 80032ec:	09de      	lsrs	r6, r3, #7
 80032ee:	4020      	ands	r0, r4
 80032f0:	005b      	lsls	r3, r3, #1
 80032f2:	42b0      	cmp	r0, r6
 80032f4:	d000      	beq.n	80032f8 <TMC2209_Init+0x828>
 80032f6:	406b      	eors	r3, r5
 80032f8:	b2db      	uxtb	r3, r3
 80032fa:	0990      	lsrs	r0, r2, #6
 80032fc:	09de      	lsrs	r6, r3, #7
 80032fe:	4020      	ands	r0, r4
 8003300:	005b      	lsls	r3, r3, #1
 8003302:	42b0      	cmp	r0, r6
 8003304:	d000      	beq.n	8003308 <TMC2209_Init+0x838>
 8003306:	406b      	eors	r3, r5
 8003308:	b2db      	uxtb	r3, r3
 800330a:	09d8      	lsrs	r0, r3, #7
 800330c:	09d2      	lsrs	r2, r2, #7
 800330e:	005b      	lsls	r3, r3, #1
 8003310:	4290      	cmp	r0, r2
 8003312:	d000      	beq.n	8003316 <TMC2209_Init+0x846>
 8003314:	406b      	eors	r3, r5
 8003316:	3101      	adds	r1, #1
 8003318:	b2db      	uxtb	r3, r3
 800331a:	42b9      	cmp	r1, r7
 800331c:	d1bc      	bne.n	8003298 <TMC2209_Init+0x7c8>
 800331e:	4666      	mov	r6, ip
 8003320:	71f3      	strb	r3, [r6, #7]
 8003322:	2301      	movs	r3, #1
 8003324:	2208      	movs	r2, #8
 8003326:	0031      	movs	r1, r6
 8003328:	425b      	negs	r3, r3
 800332a:	9800      	ldr	r0, [sp, #0]
 800332c:	f003 fe0e 	bl	8006f4c <HAL_USART_Transmit>
 8003330:	465a      	mov	r2, fp
 8003332:	9b01      	ldr	r3, [sp, #4]
 8003334:	2105      	movs	r1, #5
 8003336:	1a9b      	subs	r3, r3, r2
 8003338:	00db      	lsls	r3, r3, #3
 800333a:	4453      	add	r3, sl
 800333c:	7bda      	ldrb	r2, [r3, #15]
 800333e:	46b4      	mov	ip, r6
 8003340:	0612      	lsls	r2, r2, #24
 8003342:	60da      	str	r2, [r3, #12]
 8003344:	2334      	movs	r3, #52	@ 0x34
 8003346:	464a      	mov	r2, r9
 8003348:	5cd2      	ldrb	r2, [r2, r3]
 800334a:	464b      	mov	r3, r9
 800334c:	7072      	strb	r2, [r6, #1]
 800334e:	22a2      	movs	r2, #162	@ 0xa2
 8003350:	68db      	ldr	r3, [r3, #12]
 8003352:	70b2      	strb	r2, [r6, #2]
 8003354:	0e1a      	lsrs	r2, r3, #24
 8003356:	70f2      	strb	r2, [r6, #3]
 8003358:	0c1a      	lsrs	r2, r3, #16
 800335a:	7031      	strb	r1, [r6, #0]
 800335c:	7132      	strb	r2, [r6, #4]
 800335e:	71b3      	strb	r3, [r6, #6]
 8003360:	0a1a      	lsrs	r2, r3, #8
 8003362:	4641      	mov	r1, r8
 8003364:	2300      	movs	r3, #0
 8003366:	7172      	strb	r2, [r6, #5]
 8003368:	0026      	movs	r6, r4
 800336a:	780a      	ldrb	r2, [r1, #0]
 800336c:	09d8      	lsrs	r0, r3, #7
 800336e:	4016      	ands	r6, r2
 8003370:	005b      	lsls	r3, r3, #1
 8003372:	4286      	cmp	r6, r0
 8003374:	d000      	beq.n	8003378 <TMC2209_Init+0x8a8>
 8003376:	406b      	eors	r3, r5
 8003378:	b2db      	uxtb	r3, r3
 800337a:	0850      	lsrs	r0, r2, #1
 800337c:	09de      	lsrs	r6, r3, #7
 800337e:	4020      	ands	r0, r4
 8003380:	005b      	lsls	r3, r3, #1
 8003382:	42b0      	cmp	r0, r6
 8003384:	d000      	beq.n	8003388 <TMC2209_Init+0x8b8>
 8003386:	406b      	eors	r3, r5
 8003388:	b2db      	uxtb	r3, r3
 800338a:	0890      	lsrs	r0, r2, #2
 800338c:	09de      	lsrs	r6, r3, #7
 800338e:	4020      	ands	r0, r4
 8003390:	005b      	lsls	r3, r3, #1
 8003392:	42b0      	cmp	r0, r6
 8003394:	d000      	beq.n	8003398 <TMC2209_Init+0x8c8>
 8003396:	406b      	eors	r3, r5
 8003398:	b2db      	uxtb	r3, r3
 800339a:	08d0      	lsrs	r0, r2, #3
 800339c:	09de      	lsrs	r6, r3, #7
 800339e:	4020      	ands	r0, r4
 80033a0:	005b      	lsls	r3, r3, #1
 80033a2:	42b0      	cmp	r0, r6
 80033a4:	d000      	beq.n	80033a8 <TMC2209_Init+0x8d8>
 80033a6:	406b      	eors	r3, r5
 80033a8:	b2db      	uxtb	r3, r3
 80033aa:	0910      	lsrs	r0, r2, #4
 80033ac:	09de      	lsrs	r6, r3, #7
 80033ae:	4020      	ands	r0, r4
 80033b0:	005b      	lsls	r3, r3, #1
 80033b2:	42b0      	cmp	r0, r6
 80033b4:	d000      	beq.n	80033b8 <TMC2209_Init+0x8e8>
 80033b6:	406b      	eors	r3, r5
 80033b8:	b2db      	uxtb	r3, r3
 80033ba:	0950      	lsrs	r0, r2, #5
 80033bc:	09de      	lsrs	r6, r3, #7
 80033be:	4020      	ands	r0, r4
 80033c0:	005b      	lsls	r3, r3, #1
 80033c2:	42b0      	cmp	r0, r6
 80033c4:	d000      	beq.n	80033c8 <TMC2209_Init+0x8f8>
 80033c6:	406b      	eors	r3, r5
 80033c8:	b2db      	uxtb	r3, r3
 80033ca:	0990      	lsrs	r0, r2, #6
 80033cc:	09de      	lsrs	r6, r3, #7
 80033ce:	4020      	ands	r0, r4
 80033d0:	005b      	lsls	r3, r3, #1
 80033d2:	42b0      	cmp	r0, r6
 80033d4:	d000      	beq.n	80033d8 <TMC2209_Init+0x908>
 80033d6:	406b      	eors	r3, r5
 80033d8:	b2db      	uxtb	r3, r3
 80033da:	09d8      	lsrs	r0, r3, #7
 80033dc:	09d2      	lsrs	r2, r2, #7
 80033de:	005b      	lsls	r3, r3, #1
 80033e0:	4290      	cmp	r0, r2
 80033e2:	d000      	beq.n	80033e6 <TMC2209_Init+0x916>
 80033e4:	406b      	eors	r3, r5
 80033e6:	3101      	adds	r1, #1
 80033e8:	b2db      	uxtb	r3, r3
 80033ea:	428f      	cmp	r7, r1
 80033ec:	d1bc      	bne.n	8003368 <TMC2209_Init+0x898>
 80033ee:	4666      	mov	r6, ip
 80033f0:	71f3      	strb	r3, [r6, #7]
 80033f2:	2301      	movs	r3, #1
 80033f4:	2208      	movs	r2, #8
 80033f6:	425b      	negs	r3, r3
 80033f8:	0031      	movs	r1, r6
 80033fa:	9800      	ldr	r0, [sp, #0]
 80033fc:	f003 fda6 	bl	8006f4c <HAL_USART_Transmit>
 8003400:	2301      	movs	r3, #1
 8003402:	469c      	mov	ip, r3
 8003404:	3337      	adds	r3, #55	@ 0x37
 8003406:	44e3      	add	fp, ip
 8003408:	469c      	mov	ip, r3
 800340a:	465b      	mov	r3, fp
 800340c:	44e1      	add	r9, ip
 800340e:	2b04      	cmp	r3, #4
 8003410:	d001      	beq.n	8003416 <TMC2209_Init+0x946>
 8003412:	f7ff fb78 	bl	8002b06 <TMC2209_Init+0x36>
 8003416:	2000      	movs	r0, #0
 8003418:	b003      	add	sp, #12
 800341a:	bcf0      	pop	{r4, r5, r6, r7}
 800341c:	46bb      	mov	fp, r7
 800341e:	46b2      	mov	sl, r6
 8003420:	46a9      	mov	r9, r5
 8003422:	46a0      	mov	r8, r4
 8003424:	bcf0      	pop	{r4, r5, r6, r7}
 8003426:	bc08      	pop	{r3}
 8003428:	b004      	add	sp, #16
 800342a:	4718      	bx	r3

0800342c <Reset_Handler>:
 800342c:	480d      	ldr	r0, [pc, #52]	@ (8003464 <LoopForever+0x2>)
 800342e:	4685      	mov	sp, r0
 8003430:	f7ff fae6 	bl	8002a00 <SystemInit>
 8003434:	480c      	ldr	r0, [pc, #48]	@ (8003468 <LoopForever+0x6>)
 8003436:	490d      	ldr	r1, [pc, #52]	@ (800346c <LoopForever+0xa>)
 8003438:	4a0d      	ldr	r2, [pc, #52]	@ (8003470 <LoopForever+0xe>)
 800343a:	2300      	movs	r3, #0
 800343c:	e002      	b.n	8003444 <LoopCopyDataInit>

0800343e <CopyDataInit>:
 800343e:	58d4      	ldr	r4, [r2, r3]
 8003440:	50c4      	str	r4, [r0, r3]
 8003442:	3304      	adds	r3, #4

08003444 <LoopCopyDataInit>:
 8003444:	18c4      	adds	r4, r0, r3
 8003446:	428c      	cmp	r4, r1
 8003448:	d3f9      	bcc.n	800343e <CopyDataInit>
 800344a:	4a0a      	ldr	r2, [pc, #40]	@ (8003474 <LoopForever+0x12>)
 800344c:	4c0a      	ldr	r4, [pc, #40]	@ (8003478 <LoopForever+0x16>)
 800344e:	2300      	movs	r3, #0
 8003450:	e001      	b.n	8003456 <LoopFillZerobss>

08003452 <FillZerobss>:
 8003452:	6013      	str	r3, [r2, #0]
 8003454:	3204      	adds	r2, #4

08003456 <LoopFillZerobss>:
 8003456:	42a2      	cmp	r2, r4
 8003458:	d3fb      	bcc.n	8003452 <FillZerobss>
 800345a:	f006 f977 	bl	800974c <__libc_init_array>
 800345e:	f7fe ff55 	bl	800230c <main>

08003462 <LoopForever>:
 8003462:	e7fe      	b.n	8003462 <LoopForever>
 8003464:	20024000 	.word	0x20024000
 8003468:	20000000 	.word	0x20000000
 800346c:	2000023c 	.word	0x2000023c
 8003470:	08009950 	.word	0x08009950
 8003474:	2000023c 	.word	0x2000023c
 8003478:	200023ec 	.word	0x200023ec

0800347c <ADC1_COMP_IRQHandler>:
 800347c:	e7fe      	b.n	800347c <ADC1_COMP_IRQHandler>
	...

08003480 <HAL_InitTick>:
 8003480:	b570      	push	{r4, r5, r6, lr}
 8003482:	4b0f      	ldr	r3, [pc, #60]	@ (80034c0 <HAL_InitTick+0x40>)
 8003484:	0004      	movs	r4, r0
 8003486:	7819      	ldrb	r1, [r3, #0]
 8003488:	2900      	cmp	r1, #0
 800348a:	d101      	bne.n	8003490 <HAL_InitTick+0x10>
 800348c:	2001      	movs	r0, #1
 800348e:	bd70      	pop	{r4, r5, r6, pc}
 8003490:	20fa      	movs	r0, #250	@ 0xfa
 8003492:	0080      	lsls	r0, r0, #2
 8003494:	f7fc fe3e 	bl	8000114 <__udivsi3>
 8003498:	4d0a      	ldr	r5, [pc, #40]	@ (80034c4 <HAL_InitTick+0x44>)
 800349a:	0001      	movs	r1, r0
 800349c:	6828      	ldr	r0, [r5, #0]
 800349e:	f7fc fe39 	bl	8000114 <__udivsi3>
 80034a2:	f000 f89d 	bl	80035e0 <HAL_SYSTICK_Config>
 80034a6:	2800      	cmp	r0, #0
 80034a8:	d1f0      	bne.n	800348c <HAL_InitTick+0xc>
 80034aa:	2c03      	cmp	r4, #3
 80034ac:	d8ee      	bhi.n	800348c <HAL_InitTick+0xc>
 80034ae:	3801      	subs	r0, #1
 80034b0:	2200      	movs	r2, #0
 80034b2:	0021      	movs	r1, r4
 80034b4:	f000 f84e 	bl	8003554 <HAL_NVIC_SetPriority>
 80034b8:	4b03      	ldr	r3, [pc, #12]	@ (80034c8 <HAL_InitTick+0x48>)
 80034ba:	2000      	movs	r0, #0
 80034bc:	601c      	str	r4, [r3, #0]
 80034be:	e7e6      	b.n	800348e <HAL_InitTick+0xe>
 80034c0:	20000144 	.word	0x20000144
 80034c4:	20000140 	.word	0x20000140
 80034c8:	20000148 	.word	0x20000148

080034cc <HAL_Init>:
 80034cc:	2380      	movs	r3, #128	@ 0x80
 80034ce:	4a08      	ldr	r2, [pc, #32]	@ (80034f0 <HAL_Init+0x24>)
 80034d0:	005b      	lsls	r3, r3, #1
 80034d2:	6811      	ldr	r1, [r2, #0]
 80034d4:	b510      	push	{r4, lr}
 80034d6:	430b      	orrs	r3, r1
 80034d8:	2003      	movs	r0, #3
 80034da:	6013      	str	r3, [r2, #0]
 80034dc:	f7ff ffd0 	bl	8003480 <HAL_InitTick>
 80034e0:	1e04      	subs	r4, r0, #0
 80034e2:	d002      	beq.n	80034ea <HAL_Init+0x1e>
 80034e4:	2401      	movs	r4, #1
 80034e6:	0020      	movs	r0, r4
 80034e8:	bd10      	pop	{r4, pc}
 80034ea:	f7ff f92f 	bl	800274c <HAL_MspInit>
 80034ee:	e7fa      	b.n	80034e6 <HAL_Init+0x1a>
 80034f0:	40022000 	.word	0x40022000

080034f4 <HAL_IncTick>:
 80034f4:	4a03      	ldr	r2, [pc, #12]	@ (8003504 <HAL_IncTick+0x10>)
 80034f6:	4b04      	ldr	r3, [pc, #16]	@ (8003508 <HAL_IncTick+0x14>)
 80034f8:	6811      	ldr	r1, [r2, #0]
 80034fa:	781b      	ldrb	r3, [r3, #0]
 80034fc:	185b      	adds	r3, r3, r1
 80034fe:	6013      	str	r3, [r2, #0]
 8003500:	4770      	bx	lr
 8003502:	46c0      	nop			@ (mov r8, r8)
 8003504:	20000a08 	.word	0x20000a08
 8003508:	20000144 	.word	0x20000144

0800350c <HAL_GetTick>:
 800350c:	4b01      	ldr	r3, [pc, #4]	@ (8003514 <HAL_GetTick+0x8>)
 800350e:	6818      	ldr	r0, [r3, #0]
 8003510:	4770      	bx	lr
 8003512:	46c0      	nop			@ (mov r8, r8)
 8003514:	20000a08 	.word	0x20000a08

08003518 <HAL_Delay>:
 8003518:	b570      	push	{r4, r5, r6, lr}
 800351a:	0004      	movs	r4, r0
 800351c:	f7ff fff6 	bl	800350c <HAL_GetTick>
 8003520:	0005      	movs	r5, r0
 8003522:	1c63      	adds	r3, r4, #1
 8003524:	d002      	beq.n	800352c <HAL_Delay+0x14>
 8003526:	4b04      	ldr	r3, [pc, #16]	@ (8003538 <HAL_Delay+0x20>)
 8003528:	781b      	ldrb	r3, [r3, #0]
 800352a:	18e4      	adds	r4, r4, r3
 800352c:	f7ff ffee 	bl	800350c <HAL_GetTick>
 8003530:	1b40      	subs	r0, r0, r5
 8003532:	42a0      	cmp	r0, r4
 8003534:	d3fa      	bcc.n	800352c <HAL_Delay+0x14>
 8003536:	bd70      	pop	{r4, r5, r6, pc}
 8003538:	20000144 	.word	0x20000144

0800353c <HAL_SYSCFG_StrobeDBattpinsConfig>:
 800353c:	4a03      	ldr	r2, [pc, #12]	@ (800354c <HAL_SYSCFG_StrobeDBattpinsConfig+0x10>)
 800353e:	4904      	ldr	r1, [pc, #16]	@ (8003550 <HAL_SYSCFG_StrobeDBattpinsConfig+0x14>)
 8003540:	6813      	ldr	r3, [r2, #0]
 8003542:	400b      	ands	r3, r1
 8003544:	4303      	orrs	r3, r0
 8003546:	6013      	str	r3, [r2, #0]
 8003548:	4770      	bx	lr
 800354a:	46c0      	nop			@ (mov r8, r8)
 800354c:	40010000 	.word	0x40010000
 8003550:	fffff9ff 	.word	0xfffff9ff

08003554 <HAL_NVIC_SetPriority>:
 8003554:	22ff      	movs	r2, #255	@ 0xff
 8003556:	2303      	movs	r3, #3
 8003558:	b510      	push	{r4, lr}
 800355a:	0014      	movs	r4, r2
 800355c:	4003      	ands	r3, r0
 800355e:	00db      	lsls	r3, r3, #3
 8003560:	409c      	lsls	r4, r3
 8003562:	0189      	lsls	r1, r1, #6
 8003564:	400a      	ands	r2, r1
 8003566:	43e4      	mvns	r4, r4
 8003568:	409a      	lsls	r2, r3
 800356a:	2800      	cmp	r0, #0
 800356c:	db0b      	blt.n	8003586 <HAL_NVIC_SetPriority+0x32>
 800356e:	4b0c      	ldr	r3, [pc, #48]	@ (80035a0 <HAL_NVIC_SetPriority+0x4c>)
 8003570:	21c0      	movs	r1, #192	@ 0xc0
 8003572:	469c      	mov	ip, r3
 8003574:	0880      	lsrs	r0, r0, #2
 8003576:	0080      	lsls	r0, r0, #2
 8003578:	4460      	add	r0, ip
 800357a:	0089      	lsls	r1, r1, #2
 800357c:	5843      	ldr	r3, [r0, r1]
 800357e:	4023      	ands	r3, r4
 8003580:	4313      	orrs	r3, r2
 8003582:	5043      	str	r3, [r0, r1]
 8003584:	bd10      	pop	{r4, pc}
 8003586:	230f      	movs	r3, #15
 8003588:	4906      	ldr	r1, [pc, #24]	@ (80035a4 <HAL_NVIC_SetPriority+0x50>)
 800358a:	4003      	ands	r3, r0
 800358c:	468c      	mov	ip, r1
 800358e:	3b08      	subs	r3, #8
 8003590:	089b      	lsrs	r3, r3, #2
 8003592:	009b      	lsls	r3, r3, #2
 8003594:	4463      	add	r3, ip
 8003596:	69d9      	ldr	r1, [r3, #28]
 8003598:	400c      	ands	r4, r1
 800359a:	4314      	orrs	r4, r2
 800359c:	61dc      	str	r4, [r3, #28]
 800359e:	e7f1      	b.n	8003584 <HAL_NVIC_SetPriority+0x30>
 80035a0:	e000e100 	.word	0xe000e100
 80035a4:	e000ed00 	.word	0xe000ed00

080035a8 <HAL_NVIC_EnableIRQ>:
 80035a8:	2800      	cmp	r0, #0
 80035aa:	db05      	blt.n	80035b8 <HAL_NVIC_EnableIRQ+0x10>
 80035ac:	221f      	movs	r2, #31
 80035ae:	2301      	movs	r3, #1
 80035b0:	4002      	ands	r2, r0
 80035b2:	4093      	lsls	r3, r2
 80035b4:	4a01      	ldr	r2, [pc, #4]	@ (80035bc <HAL_NVIC_EnableIRQ+0x14>)
 80035b6:	6013      	str	r3, [r2, #0]
 80035b8:	4770      	bx	lr
 80035ba:	46c0      	nop			@ (mov r8, r8)
 80035bc:	e000e100 	.word	0xe000e100

080035c0 <HAL_NVIC_DisableIRQ>:
 80035c0:	2800      	cmp	r0, #0
 80035c2:	db0a      	blt.n	80035da <HAL_NVIC_DisableIRQ+0x1a>
 80035c4:	221f      	movs	r2, #31
 80035c6:	2301      	movs	r3, #1
 80035c8:	4002      	ands	r2, r0
 80035ca:	4093      	lsls	r3, r2
 80035cc:	2280      	movs	r2, #128	@ 0x80
 80035ce:	4903      	ldr	r1, [pc, #12]	@ (80035dc <HAL_NVIC_DisableIRQ+0x1c>)
 80035d0:	508b      	str	r3, [r1, r2]
 80035d2:	f3bf 8f4f 	dsb	sy
 80035d6:	f3bf 8f6f 	isb	sy
 80035da:	4770      	bx	lr
 80035dc:	e000e100 	.word	0xe000e100

080035e0 <HAL_SYSTICK_Config>:
 80035e0:	2280      	movs	r2, #128	@ 0x80
 80035e2:	1e43      	subs	r3, r0, #1
 80035e4:	0452      	lsls	r2, r2, #17
 80035e6:	2001      	movs	r0, #1
 80035e8:	4293      	cmp	r3, r2
 80035ea:	d20e      	bcs.n	800360a <HAL_SYSTICK_Config+0x2a>
 80035ec:	21c0      	movs	r1, #192	@ 0xc0
 80035ee:	4a07      	ldr	r2, [pc, #28]	@ (800360c <HAL_SYSTICK_Config+0x2c>)
 80035f0:	4807      	ldr	r0, [pc, #28]	@ (8003610 <HAL_SYSTICK_Config+0x30>)
 80035f2:	6053      	str	r3, [r2, #4]
 80035f4:	6a03      	ldr	r3, [r0, #32]
 80035f6:	0609      	lsls	r1, r1, #24
 80035f8:	021b      	lsls	r3, r3, #8
 80035fa:	0a1b      	lsrs	r3, r3, #8
 80035fc:	430b      	orrs	r3, r1
 80035fe:	6203      	str	r3, [r0, #32]
 8003600:	2300      	movs	r3, #0
 8003602:	2000      	movs	r0, #0
 8003604:	6093      	str	r3, [r2, #8]
 8003606:	3307      	adds	r3, #7
 8003608:	6013      	str	r3, [r2, #0]
 800360a:	4770      	bx	lr
 800360c:	e000e010 	.word	0xe000e010
 8003610:	e000ed00 	.word	0xe000ed00

08003614 <HAL_DMA_Init>:
 8003614:	b5f8      	push	{r3, r4, r5, r6, r7, lr}
 8003616:	1e04      	subs	r4, r0, #0
 8003618:	d100      	bne.n	800361c <HAL_DMA_Init+0x8>
 800361a:	e06e      	b.n	80036fa <HAL_DMA_Init+0xe6>
 800361c:	6805      	ldr	r5, [r0, #0]
 800361e:	4b38      	ldr	r3, [pc, #224]	@ (8003700 <HAL_DMA_Init+0xec>)
 8003620:	2114      	movs	r1, #20
 8003622:	429d      	cmp	r5, r3
 8003624:	d954      	bls.n	80036d0 <HAL_DMA_Init+0xbc>
 8003626:	4b37      	ldr	r3, [pc, #220]	@ (8003704 <HAL_DMA_Init+0xf0>)
 8003628:	18e8      	adds	r0, r5, r3
 800362a:	f7fc fd73 	bl	8000114 <__udivsi3>
 800362e:	4b36      	ldr	r3, [pc, #216]	@ (8003708 <HAL_DMA_Init+0xf4>)
 8003630:	0087      	lsls	r7, r0, #2
 8003632:	6423      	str	r3, [r4, #64]	@ 0x40
 8003634:	2202      	movs	r2, #2
 8003636:	2325      	movs	r3, #37	@ 0x25
 8003638:	20ff      	movs	r0, #255	@ 0xff
 800363a:	6467      	str	r7, [r4, #68]	@ 0x44
 800363c:	54e2      	strb	r2, [r4, r3]
 800363e:	682b      	ldr	r3, [r5, #0]
 8003640:	4a32      	ldr	r2, [pc, #200]	@ (800370c <HAL_DMA_Init+0xf8>)
 8003642:	68a6      	ldr	r6, [r4, #8]
 8003644:	4013      	ands	r3, r2
 8003646:	602b      	str	r3, [r5, #0]
 8003648:	68e3      	ldr	r3, [r4, #12]
 800364a:	6921      	ldr	r1, [r4, #16]
 800364c:	4333      	orrs	r3, r6
 800364e:	430b      	orrs	r3, r1
 8003650:	6961      	ldr	r1, [r4, #20]
 8003652:	682a      	ldr	r2, [r5, #0]
 8003654:	430b      	orrs	r3, r1
 8003656:	69a1      	ldr	r1, [r4, #24]
 8003658:	4028      	ands	r0, r5
 800365a:	430b      	orrs	r3, r1
 800365c:	69e1      	ldr	r1, [r4, #28]
 800365e:	3808      	subs	r0, #8
 8003660:	430b      	orrs	r3, r1
 8003662:	6a21      	ldr	r1, [r4, #32]
 8003664:	430b      	orrs	r3, r1
 8003666:	4313      	orrs	r3, r2
 8003668:	602b      	str	r3, [r5, #0]
 800366a:	2114      	movs	r1, #20
 800366c:	f7fc fd52 	bl	8000114 <__udivsi3>
 8003670:	4b23      	ldr	r3, [pc, #140]	@ (8003700 <HAL_DMA_Init+0xec>)
 8003672:	429d      	cmp	r5, r3
 8003674:	d83c      	bhi.n	80036f0 <HAL_DMA_Init+0xdc>
 8003676:	4b26      	ldr	r3, [pc, #152]	@ (8003710 <HAL_DMA_Init+0xfc>)
 8003678:	469c      	mov	ip, r3
 800367a:	4467      	add	r7, ip
 800367c:	231f      	movs	r3, #31
 800367e:	2201      	movs	r2, #1
 8003680:	4003      	ands	r3, r0
 8003682:	0010      	movs	r0, r2
 8003684:	4098      	lsls	r0, r3
 8003686:	2380      	movs	r3, #128	@ 0x80
 8003688:	4d22      	ldr	r5, [pc, #136]	@ (8003714 <HAL_DMA_Init+0x100>)
 800368a:	64a7      	str	r7, [r4, #72]	@ 0x48
 800368c:	64e5      	str	r5, [r4, #76]	@ 0x4c
 800368e:	6520      	str	r0, [r4, #80]	@ 0x50
 8003690:	01db      	lsls	r3, r3, #7
 8003692:	429e      	cmp	r6, r3
 8003694:	d023      	beq.n	80036de <HAL_DMA_Init+0xca>
 8003696:	237f      	movs	r3, #127	@ 0x7f
 8003698:	6861      	ldr	r1, [r4, #4]
 800369a:	400b      	ands	r3, r1
 800369c:	3901      	subs	r1, #1
 800369e:	603b      	str	r3, [r7, #0]
 80036a0:	6068      	str	r0, [r5, #4]
 80036a2:	2903      	cmp	r1, #3
 80036a4:	d81f      	bhi.n	80036e6 <HAL_DMA_Init+0xd2>
 80036a6:	491c      	ldr	r1, [pc, #112]	@ (8003718 <HAL_DMA_Init+0x104>)
 80036a8:	481c      	ldr	r0, [pc, #112]	@ (800371c <HAL_DMA_Init+0x108>)
 80036aa:	1859      	adds	r1, r3, r1
 80036ac:	3b01      	subs	r3, #1
 80036ae:	409a      	lsls	r2, r3
 80036b0:	2300      	movs	r3, #0
 80036b2:	0089      	lsls	r1, r1, #2
 80036b4:	6561      	str	r1, [r4, #84]	@ 0x54
 80036b6:	65a0      	str	r0, [r4, #88]	@ 0x58
 80036b8:	65e2      	str	r2, [r4, #92]	@ 0x5c
 80036ba:	600b      	str	r3, [r1, #0]
 80036bc:	6042      	str	r2, [r0, #4]
 80036be:	2300      	movs	r3, #0
 80036c0:	2225      	movs	r2, #37	@ 0x25
 80036c2:	2101      	movs	r1, #1
 80036c4:	2000      	movs	r0, #0
 80036c6:	63e3      	str	r3, [r4, #60]	@ 0x3c
 80036c8:	54a1      	strb	r1, [r4, r2]
 80036ca:	3a01      	subs	r2, #1
 80036cc:	54a3      	strb	r3, [r4, r2]
 80036ce:	bdf8      	pop	{r3, r4, r5, r6, r7, pc}
 80036d0:	4b13      	ldr	r3, [pc, #76]	@ (8003720 <HAL_DMA_Init+0x10c>)
 80036d2:	18e8      	adds	r0, r5, r3
 80036d4:	f7fc fd1e 	bl	8000114 <__udivsi3>
 80036d8:	4b12      	ldr	r3, [pc, #72]	@ (8003724 <HAL_DMA_Init+0x110>)
 80036da:	0087      	lsls	r7, r0, #2
 80036dc:	e7a9      	b.n	8003632 <HAL_DMA_Init+0x1e>
 80036de:	2300      	movs	r3, #0
 80036e0:	6063      	str	r3, [r4, #4]
 80036e2:	603b      	str	r3, [r7, #0]
 80036e4:	6068      	str	r0, [r5, #4]
 80036e6:	2300      	movs	r3, #0
 80036e8:	6563      	str	r3, [r4, #84]	@ 0x54
 80036ea:	65a3      	str	r3, [r4, #88]	@ 0x58
 80036ec:	65e3      	str	r3, [r4, #92]	@ 0x5c
 80036ee:	e7e6      	b.n	80036be <HAL_DMA_Init+0xaa>
 80036f0:	4b0d      	ldr	r3, [pc, #52]	@ (8003728 <HAL_DMA_Init+0x114>)
 80036f2:	3007      	adds	r0, #7
 80036f4:	469c      	mov	ip, r3
 80036f6:	4467      	add	r7, ip
 80036f8:	e7c0      	b.n	800367c <HAL_DMA_Init+0x68>
 80036fa:	2001      	movs	r0, #1
 80036fc:	e7e7      	b.n	80036ce <HAL_DMA_Init+0xba>
 80036fe:	46c0      	nop			@ (mov r8, r8)
 8003700:	40020407 	.word	0x40020407
 8003704:	bffdfbf8 	.word	0xbffdfbf8
 8003708:	40020400 	.word	0x40020400
 800370c:	ffff800f 	.word	0xffff800f
 8003710:	40020800 	.word	0x40020800
 8003714:	40020880 	.word	0x40020880
 8003718:	1000823f 	.word	0x1000823f
 800371c:	40020940 	.word	0x40020940
 8003720:	bffdfff8 	.word	0xbffdfff8
 8003724:	40020000 	.word	0x40020000
 8003728:	4002081c 	.word	0x4002081c

0800372c <HAL_DMA_DeInit>:
 800372c:	b5f8      	push	{r3, r4, r5, r6, r7, lr}
 800372e:	1e04      	subs	r4, r0, #0
 8003730:	d05c      	beq.n	80037ec <HAL_DMA_DeInit+0xc0>
 8003732:	6805      	ldr	r5, [r0, #0]
 8003734:	2701      	movs	r7, #1
 8003736:	20ff      	movs	r0, #255	@ 0xff
 8003738:	682b      	ldr	r3, [r5, #0]
 800373a:	4028      	ands	r0, r5
 800373c:	43bb      	bics	r3, r7
 800373e:	602b      	str	r3, [r5, #0]
 8003740:	2114      	movs	r1, #20
 8003742:	3808      	subs	r0, #8
 8003744:	f7fc fce6 	bl	8000114 <__udivsi3>
 8003748:	4b29      	ldr	r3, [pc, #164]	@ (80037f0 <HAL_DMA_DeInit+0xc4>)
 800374a:	0006      	movs	r6, r0
 800374c:	429d      	cmp	r5, r3
 800374e:	d93a      	bls.n	80037c6 <HAL_DMA_DeInit+0x9a>
 8003750:	4b28      	ldr	r3, [pc, #160]	@ (80037f4 <HAL_DMA_DeInit+0xc8>)
 8003752:	2114      	movs	r1, #20
 8003754:	18e8      	adds	r0, r5, r3
 8003756:	f7fc fcdd 	bl	8000114 <__udivsi3>
 800375a:	2200      	movs	r2, #0
 800375c:	4926      	ldr	r1, [pc, #152]	@ (80037f8 <HAL_DMA_DeInit+0xcc>)
 800375e:	0083      	lsls	r3, r0, #2
 8003760:	6463      	str	r3, [r4, #68]	@ 0x44
 8003762:	6421      	str	r1, [r4, #64]	@ 0x40
 8003764:	602a      	str	r2, [r5, #0]
 8003766:	321c      	adds	r2, #28
 8003768:	401a      	ands	r2, r3
 800376a:	4097      	lsls	r7, r2
 800376c:	4a23      	ldr	r2, [pc, #140]	@ (80037fc <HAL_DMA_DeInit+0xd0>)
 800376e:	604f      	str	r7, [r1, #4]
 8003770:	4694      	mov	ip, r2
 8003772:	3607      	adds	r6, #7
 8003774:	4463      	add	r3, ip
 8003776:	2101      	movs	r1, #1
 8003778:	221f      	movs	r2, #31
 800377a:	000d      	movs	r5, r1
 800377c:	4032      	ands	r2, r6
 800377e:	4095      	lsls	r5, r2
 8003780:	002a      	movs	r2, r5
 8003782:	6525      	str	r5, [r4, #80]	@ 0x50
 8003784:	2500      	movs	r5, #0
 8003786:	481e      	ldr	r0, [pc, #120]	@ (8003800 <HAL_DMA_DeInit+0xd4>)
 8003788:	64a3      	str	r3, [r4, #72]	@ 0x48
 800378a:	64e0      	str	r0, [r4, #76]	@ 0x4c
 800378c:	601d      	str	r5, [r3, #0]
 800378e:	6042      	str	r2, [r0, #4]
 8003790:	6863      	ldr	r3, [r4, #4]
 8003792:	1e5a      	subs	r2, r3, #1
 8003794:	2a03      	cmp	r2, #3
 8003796:	d807      	bhi.n	80037a8 <HAL_DMA_DeInit+0x7c>
 8003798:	481a      	ldr	r0, [pc, #104]	@ (8003804 <HAL_DMA_DeInit+0xd8>)
 800379a:	4091      	lsls	r1, r2
 800379c:	4684      	mov	ip, r0
 800379e:	4463      	add	r3, ip
 80037a0:	009b      	lsls	r3, r3, #2
 80037a2:	601d      	str	r5, [r3, #0]
 80037a4:	4b18      	ldr	r3, [pc, #96]	@ (8003808 <HAL_DMA_DeInit+0xdc>)
 80037a6:	6059      	str	r1, [r3, #4]
 80037a8:	2300      	movs	r3, #0
 80037aa:	2225      	movs	r2, #37	@ 0x25
 80037ac:	2000      	movs	r0, #0
 80037ae:	6563      	str	r3, [r4, #84]	@ 0x54
 80037b0:	65a3      	str	r3, [r4, #88]	@ 0x58
 80037b2:	65e3      	str	r3, [r4, #92]	@ 0x5c
 80037b4:	62e3      	str	r3, [r4, #44]	@ 0x2c
 80037b6:	6323      	str	r3, [r4, #48]	@ 0x30
 80037b8:	6363      	str	r3, [r4, #52]	@ 0x34
 80037ba:	63a3      	str	r3, [r4, #56]	@ 0x38
 80037bc:	63e3      	str	r3, [r4, #60]	@ 0x3c
 80037be:	54a3      	strb	r3, [r4, r2]
 80037c0:	3a01      	subs	r2, #1
 80037c2:	54a3      	strb	r3, [r4, r2]
 80037c4:	bdf8      	pop	{r3, r4, r5, r6, r7, pc}
 80037c6:	4b11      	ldr	r3, [pc, #68]	@ (800380c <HAL_DMA_DeInit+0xe0>)
 80037c8:	2114      	movs	r1, #20
 80037ca:	18e8      	adds	r0, r5, r3
 80037cc:	f7fc fca2 	bl	8000114 <__udivsi3>
 80037d0:	2200      	movs	r2, #0
 80037d2:	490f      	ldr	r1, [pc, #60]	@ (8003810 <HAL_DMA_DeInit+0xe4>)
 80037d4:	0083      	lsls	r3, r0, #2
 80037d6:	6463      	str	r3, [r4, #68]	@ 0x44
 80037d8:	6421      	str	r1, [r4, #64]	@ 0x40
 80037da:	602a      	str	r2, [r5, #0]
 80037dc:	321c      	adds	r2, #28
 80037de:	401a      	ands	r2, r3
 80037e0:	4097      	lsls	r7, r2
 80037e2:	4a0c      	ldr	r2, [pc, #48]	@ (8003814 <HAL_DMA_DeInit+0xe8>)
 80037e4:	604f      	str	r7, [r1, #4]
 80037e6:	4694      	mov	ip, r2
 80037e8:	4463      	add	r3, ip
 80037ea:	e7c4      	b.n	8003776 <HAL_DMA_DeInit+0x4a>
 80037ec:	2001      	movs	r0, #1
 80037ee:	e7e9      	b.n	80037c4 <HAL_DMA_DeInit+0x98>
 80037f0:	40020407 	.word	0x40020407
 80037f4:	bffdfbf8 	.word	0xbffdfbf8
 80037f8:	40020400 	.word	0x40020400
 80037fc:	4002081c 	.word	0x4002081c
 8003800:	40020880 	.word	0x40020880
 8003804:	1000823f 	.word	0x1000823f
 8003808:	40020940 	.word	0x40020940
 800380c:	bffdfff8 	.word	0xbffdfff8
 8003810:	40020000 	.word	0x40020000
 8003814:	40020800 	.word	0x40020800

08003818 <HAL_DMA_Start_IT>:
 8003818:	b5f0      	push	{r4, r5, r6, r7, lr}
 800381a:	2424      	movs	r4, #36	@ 0x24
 800381c:	5d05      	ldrb	r5, [r0, r4]
 800381e:	2d01      	cmp	r5, #1
 8003820:	d04c      	beq.n	80038bc <HAL_DMA_Start_IT+0xa4>
 8003822:	2501      	movs	r5, #1
 8003824:	2625      	movs	r6, #37	@ 0x25
 8003826:	5505      	strb	r5, [r0, r4]
 8003828:	5d85      	ldrb	r5, [r0, r6]
 800382a:	b2ef      	uxtb	r7, r5
 800382c:	2d01      	cmp	r5, #1
 800382e:	d005      	beq.n	800383c <HAL_DMA_Start_IT+0x24>
 8003830:	2380      	movs	r3, #128	@ 0x80
 8003832:	63c3      	str	r3, [r0, #60]	@ 0x3c
 8003834:	2300      	movs	r3, #0
 8003836:	5503      	strb	r3, [r0, r4]
 8003838:	2001      	movs	r0, #1
 800383a:	bdf0      	pop	{r4, r5, r6, r7, pc}
 800383c:	3c22      	subs	r4, #34	@ 0x22
 800383e:	5584      	strb	r4, [r0, r6]
 8003840:	2400      	movs	r4, #0
 8003842:	63c4      	str	r4, [r0, #60]	@ 0x3c
 8003844:	6804      	ldr	r4, [r0, #0]
 8003846:	6d06      	ldr	r6, [r0, #80]	@ 0x50
 8003848:	6825      	ldr	r5, [r4, #0]
 800384a:	43bd      	bics	r5, r7
 800384c:	6025      	str	r5, [r4, #0]
 800384e:	6cc5      	ldr	r5, [r0, #76]	@ 0x4c
 8003850:	606e      	str	r6, [r5, #4]
 8003852:	6d45      	ldr	r5, [r0, #84]	@ 0x54
 8003854:	2d00      	cmp	r5, #0
 8003856:	d002      	beq.n	800385e <HAL_DMA_Start_IT+0x46>
 8003858:	6d86      	ldr	r6, [r0, #88]	@ 0x58
 800385a:	6dc7      	ldr	r7, [r0, #92]	@ 0x5c
 800385c:	6077      	str	r7, [r6, #4]
 800385e:	6c06      	ldr	r6, [r0, #64]	@ 0x40
 8003860:	6c47      	ldr	r7, [r0, #68]	@ 0x44
 8003862:	46b4      	mov	ip, r6
 8003864:	261c      	movs	r6, #28
 8003866:	4037      	ands	r7, r6
 8003868:	3e1b      	subs	r6, #27
 800386a:	40be      	lsls	r6, r7
 800386c:	4667      	mov	r7, ip
 800386e:	607e      	str	r6, [r7, #4]
 8003870:	6063      	str	r3, [r4, #4]
 8003872:	6883      	ldr	r3, [r0, #8]
 8003874:	2b10      	cmp	r3, #16
 8003876:	d01e      	beq.n	80038b6 <HAL_DMA_Start_IT+0x9e>
 8003878:	60a1      	str	r1, [r4, #8]
 800387a:	60e2      	str	r2, [r4, #12]
 800387c:	6b03      	ldr	r3, [r0, #48]	@ 0x30
 800387e:	2b00      	cmp	r3, #0
 8003880:	d01e      	beq.n	80038c0 <HAL_DMA_Start_IT+0xa8>
 8003882:	220e      	movs	r2, #14
 8003884:	6823      	ldr	r3, [r4, #0]
 8003886:	4313      	orrs	r3, r2
 8003888:	6023      	str	r3, [r4, #0]
 800388a:	6c82      	ldr	r2, [r0, #72]	@ 0x48
 800388c:	6813      	ldr	r3, [r2, #0]
 800388e:	03db      	lsls	r3, r3, #15
 8003890:	d504      	bpl.n	800389c <HAL_DMA_Start_IT+0x84>
 8003892:	2380      	movs	r3, #128	@ 0x80
 8003894:	6811      	ldr	r1, [r2, #0]
 8003896:	005b      	lsls	r3, r3, #1
 8003898:	430b      	orrs	r3, r1
 800389a:	6013      	str	r3, [r2, #0]
 800389c:	2d00      	cmp	r5, #0
 800389e:	d004      	beq.n	80038aa <HAL_DMA_Start_IT+0x92>
 80038a0:	2380      	movs	r3, #128	@ 0x80
 80038a2:	682a      	ldr	r2, [r5, #0]
 80038a4:	005b      	lsls	r3, r3, #1
 80038a6:	4313      	orrs	r3, r2
 80038a8:	602b      	str	r3, [r5, #0]
 80038aa:	2201      	movs	r2, #1
 80038ac:	6823      	ldr	r3, [r4, #0]
 80038ae:	2000      	movs	r0, #0
 80038b0:	4313      	orrs	r3, r2
 80038b2:	6023      	str	r3, [r4, #0]
 80038b4:	e7c1      	b.n	800383a <HAL_DMA_Start_IT+0x22>
 80038b6:	60a2      	str	r2, [r4, #8]
 80038b8:	60e1      	str	r1, [r4, #12]
 80038ba:	e7df      	b.n	800387c <HAL_DMA_Start_IT+0x64>
 80038bc:	2002      	movs	r0, #2
 80038be:	e7bc      	b.n	800383a <HAL_DMA_Start_IT+0x22>
 80038c0:	2204      	movs	r2, #4
 80038c2:	6823      	ldr	r3, [r4, #0]
 80038c4:	4393      	bics	r3, r2
 80038c6:	6023      	str	r3, [r4, #0]
 80038c8:	6823      	ldr	r3, [r4, #0]
 80038ca:	3206      	adds	r2, #6
 80038cc:	4313      	orrs	r3, r2
 80038ce:	6023      	str	r3, [r4, #0]
 80038d0:	e7db      	b.n	800388a <HAL_DMA_Start_IT+0x72>
 80038d2:	46c0      	nop			@ (mov r8, r8)

080038d4 <HAL_DMA_Abort>:
 80038d4:	b530      	push	{r4, r5, lr}
 80038d6:	2800      	cmp	r0, #0
 80038d8:	d030      	beq.n	800393c <HAL_DMA_Abort+0x68>
 80038da:	2325      	movs	r3, #37	@ 0x25
 80038dc:	5cc3      	ldrb	r3, [r0, r3]
 80038de:	2b02      	cmp	r3, #2
 80038e0:	d127      	bne.n	8003932 <HAL_DMA_Abort+0x5e>
 80038e2:	210e      	movs	r1, #14
 80038e4:	6802      	ldr	r2, [r0, #0]
 80038e6:	4c16      	ldr	r4, [pc, #88]	@ (8003940 <HAL_DMA_Abort+0x6c>)
 80038e8:	6813      	ldr	r3, [r2, #0]
 80038ea:	251c      	movs	r5, #28
 80038ec:	438b      	bics	r3, r1
 80038ee:	6c81      	ldr	r1, [r0, #72]	@ 0x48
 80038f0:	6013      	str	r3, [r2, #0]
 80038f2:	680b      	ldr	r3, [r1, #0]
 80038f4:	4023      	ands	r3, r4
 80038f6:	600b      	str	r3, [r1, #0]
 80038f8:	2301      	movs	r3, #1
 80038fa:	6811      	ldr	r1, [r2, #0]
 80038fc:	4399      	bics	r1, r3
 80038fe:	6011      	str	r1, [r2, #0]
 8003900:	6c42      	ldr	r2, [r0, #68]	@ 0x44
 8003902:	6c01      	ldr	r1, [r0, #64]	@ 0x40
 8003904:	402a      	ands	r2, r5
 8003906:	4093      	lsls	r3, r2
 8003908:	6d02      	ldr	r2, [r0, #80]	@ 0x50
 800390a:	604b      	str	r3, [r1, #4]
 800390c:	6cc3      	ldr	r3, [r0, #76]	@ 0x4c
 800390e:	605a      	str	r2, [r3, #4]
 8003910:	6d43      	ldr	r3, [r0, #84]	@ 0x54
 8003912:	2b00      	cmp	r3, #0
 8003914:	d005      	beq.n	8003922 <HAL_DMA_Abort+0x4e>
 8003916:	681a      	ldr	r2, [r3, #0]
 8003918:	4022      	ands	r2, r4
 800391a:	601a      	str	r2, [r3, #0]
 800391c:	6d83      	ldr	r3, [r0, #88]	@ 0x58
 800391e:	6dc2      	ldr	r2, [r0, #92]	@ 0x5c
 8003920:	605a      	str	r2, [r3, #4]
 8003922:	2325      	movs	r3, #37	@ 0x25
 8003924:	2201      	movs	r2, #1
 8003926:	54c2      	strb	r2, [r0, r3]
 8003928:	2200      	movs	r2, #0
 800392a:	3b01      	subs	r3, #1
 800392c:	54c2      	strb	r2, [r0, r3]
 800392e:	2000      	movs	r0, #0
 8003930:	bd30      	pop	{r4, r5, pc}
 8003932:	2304      	movs	r3, #4
 8003934:	2200      	movs	r2, #0
 8003936:	63c3      	str	r3, [r0, #60]	@ 0x3c
 8003938:	3320      	adds	r3, #32
 800393a:	54c2      	strb	r2, [r0, r3]
 800393c:	2001      	movs	r0, #1
 800393e:	e7f7      	b.n	8003930 <HAL_DMA_Abort+0x5c>
 8003940:	fffffeff 	.word	0xfffffeff

08003944 <HAL_DMA_Abort_IT>:
 8003944:	2325      	movs	r3, #37	@ 0x25
 8003946:	b570      	push	{r4, r5, r6, lr}
 8003948:	5cc3      	ldrb	r3, [r0, r3]
 800394a:	2b02      	cmp	r3, #2
 800394c:	d003      	beq.n	8003956 <HAL_DMA_Abort_IT+0x12>
 800394e:	2304      	movs	r3, #4
 8003950:	63c3      	str	r3, [r0, #60]	@ 0x3c
 8003952:	2001      	movs	r0, #1
 8003954:	bd70      	pop	{r4, r5, r6, pc}
 8003956:	210e      	movs	r1, #14
 8003958:	6802      	ldr	r2, [r0, #0]
 800395a:	251c      	movs	r5, #28
 800395c:	6813      	ldr	r3, [r2, #0]
 800395e:	4c14      	ldr	r4, [pc, #80]	@ (80039b0 <HAL_DMA_Abort_IT+0x6c>)
 8003960:	438b      	bics	r3, r1
 8003962:	6013      	str	r3, [r2, #0]
 8003964:	2301      	movs	r3, #1
 8003966:	6811      	ldr	r1, [r2, #0]
 8003968:	4399      	bics	r1, r3
 800396a:	6011      	str	r1, [r2, #0]
 800396c:	6c81      	ldr	r1, [r0, #72]	@ 0x48
 800396e:	680a      	ldr	r2, [r1, #0]
 8003970:	4022      	ands	r2, r4
 8003972:	600a      	str	r2, [r1, #0]
 8003974:	6c42      	ldr	r2, [r0, #68]	@ 0x44
 8003976:	6c01      	ldr	r1, [r0, #64]	@ 0x40
 8003978:	402a      	ands	r2, r5
 800397a:	4093      	lsls	r3, r2
 800397c:	6d02      	ldr	r2, [r0, #80]	@ 0x50
 800397e:	604b      	str	r3, [r1, #4]
 8003980:	6cc3      	ldr	r3, [r0, #76]	@ 0x4c
 8003982:	605a      	str	r2, [r3, #4]
 8003984:	6d43      	ldr	r3, [r0, #84]	@ 0x54
 8003986:	2b00      	cmp	r3, #0
 8003988:	d005      	beq.n	8003996 <HAL_DMA_Abort_IT+0x52>
 800398a:	681a      	ldr	r2, [r3, #0]
 800398c:	4022      	ands	r2, r4
 800398e:	601a      	str	r2, [r3, #0]
 8003990:	6d83      	ldr	r3, [r0, #88]	@ 0x58
 8003992:	6dc2      	ldr	r2, [r0, #92]	@ 0x5c
 8003994:	605a      	str	r2, [r3, #4]
 8003996:	2325      	movs	r3, #37	@ 0x25
 8003998:	2201      	movs	r2, #1
 800399a:	54c2      	strb	r2, [r0, r3]
 800399c:	2200      	movs	r2, #0
 800399e:	3b01      	subs	r3, #1
 80039a0:	54c2      	strb	r2, [r0, r3]
 80039a2:	6b83      	ldr	r3, [r0, #56]	@ 0x38
 80039a4:	2b00      	cmp	r3, #0
 80039a6:	d000      	beq.n	80039aa <HAL_DMA_Abort_IT+0x66>
 80039a8:	4798      	blx	r3
 80039aa:	2000      	movs	r0, #0
 80039ac:	e7d2      	b.n	8003954 <HAL_DMA_Abort_IT+0x10>
 80039ae:	46c0      	nop			@ (mov r8, r8)
 80039b0:	fffffeff 	.word	0xfffffeff

080039b4 <HAL_DMA_IRQHandler>:
 80039b4:	221c      	movs	r2, #28
 80039b6:	b5f8      	push	{r3, r4, r5, r6, r7, lr}
 80039b8:	6c43      	ldr	r3, [r0, #68]	@ 0x44
 80039ba:	6c06      	ldr	r6, [r0, #64]	@ 0x40
 80039bc:	4013      	ands	r3, r2
 80039be:	3a18      	subs	r2, #24
 80039c0:	0011      	movs	r1, r2
 80039c2:	4099      	lsls	r1, r3
 80039c4:	6835      	ldr	r5, [r6, #0]
 80039c6:	6804      	ldr	r4, [r0, #0]
 80039c8:	6827      	ldr	r7, [r4, #0]
 80039ca:	420d      	tst	r5, r1
 80039cc:	d00d      	beq.n	80039ea <HAL_DMA_IRQHandler+0x36>
 80039ce:	423a      	tst	r2, r7
 80039d0:	d00b      	beq.n	80039ea <HAL_DMA_IRQHandler+0x36>
 80039d2:	6823      	ldr	r3, [r4, #0]
 80039d4:	069b      	lsls	r3, r3, #26
 80039d6:	d402      	bmi.n	80039de <HAL_DMA_IRQHandler+0x2a>
 80039d8:	6823      	ldr	r3, [r4, #0]
 80039da:	4393      	bics	r3, r2
 80039dc:	6023      	str	r3, [r4, #0]
 80039de:	6b03      	ldr	r3, [r0, #48]	@ 0x30
 80039e0:	6071      	str	r1, [r6, #4]
 80039e2:	2b00      	cmp	r3, #0
 80039e4:	d000      	beq.n	80039e8 <HAL_DMA_IRQHandler+0x34>
 80039e6:	4798      	blx	r3
 80039e8:	bdf8      	pop	{r3, r4, r5, r6, r7, pc}
 80039ea:	2202      	movs	r2, #2
 80039ec:	0011      	movs	r1, r2
 80039ee:	4099      	lsls	r1, r3
 80039f0:	420d      	tst	r5, r1
 80039f2:	d018      	beq.n	8003a26 <HAL_DMA_IRQHandler+0x72>
 80039f4:	423a      	tst	r2, r7
 80039f6:	d016      	beq.n	8003a26 <HAL_DMA_IRQHandler+0x72>
 80039f8:	6823      	ldr	r3, [r4, #0]
 80039fa:	069b      	lsls	r3, r3, #26
 80039fc:	d406      	bmi.n	8003a0c <HAL_DMA_IRQHandler+0x58>
 80039fe:	6823      	ldr	r3, [r4, #0]
 8003a00:	3208      	adds	r2, #8
 8003a02:	4393      	bics	r3, r2
 8003a04:	6023      	str	r3, [r4, #0]
 8003a06:	2325      	movs	r3, #37	@ 0x25
 8003a08:	3a09      	subs	r2, #9
 8003a0a:	54c2      	strb	r2, [r0, r3]
 8003a0c:	4b14      	ldr	r3, [pc, #80]	@ (8003a60 <HAL_DMA_IRQHandler+0xac>)
 8003a0e:	429c      	cmp	r4, r3
 8003a10:	d923      	bls.n	8003a5a <HAL_DMA_IRQHandler+0xa6>
 8003a12:	4b14      	ldr	r3, [pc, #80]	@ (8003a64 <HAL_DMA_IRQHandler+0xb0>)
 8003a14:	6059      	str	r1, [r3, #4]
 8003a16:	2324      	movs	r3, #36	@ 0x24
 8003a18:	2200      	movs	r2, #0
 8003a1a:	54c2      	strb	r2, [r0, r3]
 8003a1c:	6ac3      	ldr	r3, [r0, #44]	@ 0x2c
 8003a1e:	2b00      	cmp	r3, #0
 8003a20:	d0e2      	beq.n	80039e8 <HAL_DMA_IRQHandler+0x34>
 8003a22:	4798      	blx	r3
 8003a24:	e7e0      	b.n	80039e8 <HAL_DMA_IRQHandler+0x34>
 8003a26:	2208      	movs	r2, #8
 8003a28:	0011      	movs	r1, r2
 8003a2a:	4099      	lsls	r1, r3
 8003a2c:	420d      	tst	r5, r1
 8003a2e:	d0db      	beq.n	80039e8 <HAL_DMA_IRQHandler+0x34>
 8003a30:	423a      	tst	r2, r7
 8003a32:	d0d9      	beq.n	80039e8 <HAL_DMA_IRQHandler+0x34>
 8003a34:	210e      	movs	r1, #14
 8003a36:	6822      	ldr	r2, [r4, #0]
 8003a38:	438a      	bics	r2, r1
 8003a3a:	6022      	str	r2, [r4, #0]
 8003a3c:	2201      	movs	r2, #1
 8003a3e:	0011      	movs	r1, r2
 8003a40:	4099      	lsls	r1, r3
 8003a42:	2325      	movs	r3, #37	@ 0x25
 8003a44:	6071      	str	r1, [r6, #4]
 8003a46:	63c2      	str	r2, [r0, #60]	@ 0x3c
 8003a48:	54c2      	strb	r2, [r0, r3]
 8003a4a:	2200      	movs	r2, #0
 8003a4c:	3b01      	subs	r3, #1
 8003a4e:	54c2      	strb	r2, [r0, r3]
 8003a50:	6b43      	ldr	r3, [r0, #52]	@ 0x34
 8003a52:	2b00      	cmp	r3, #0
 8003a54:	d0c8      	beq.n	80039e8 <HAL_DMA_IRQHandler+0x34>
 8003a56:	4798      	blx	r3
 8003a58:	e7c6      	b.n	80039e8 <HAL_DMA_IRQHandler+0x34>
 8003a5a:	4b03      	ldr	r3, [pc, #12]	@ (8003a68 <HAL_DMA_IRQHandler+0xb4>)
 8003a5c:	6059      	str	r1, [r3, #4]
 8003a5e:	e7da      	b.n	8003a16 <HAL_DMA_IRQHandler+0x62>
 8003a60:	40020080 	.word	0x40020080
 8003a64:	40020400 	.word	0x40020400
 8003a68:	40020000 	.word	0x40020000

08003a6c <HAL_GPIO_Init>:
 8003a6c:	b5f0      	push	{r4, r5, r6, r7, lr}
 8003a6e:	46de      	mov	lr, fp
 8003a70:	4657      	mov	r7, sl
 8003a72:	464e      	mov	r6, r9
 8003a74:	4645      	mov	r5, r8
 8003a76:	b5e0      	push	{r5, r6, r7, lr}
 8003a78:	680a      	ldr	r2, [r1, #0]
 8003a7a:	468b      	mov	fp, r1
 8003a7c:	b085      	sub	sp, #20
 8003a7e:	2a00      	cmp	r2, #0
 8003a80:	d06e      	beq.n	8003b60 <HAL_GPIO_Init+0xf4>
 8003a82:	21a0      	movs	r1, #160	@ 0xa0
 8003a84:	2300      	movs	r3, #0
 8003a86:	05c9      	lsls	r1, r1, #23
 8003a88:	4288      	cmp	r0, r1
 8003a8a:	d100      	bne.n	8003a8e <HAL_GPIO_Init+0x22>
 8003a8c:	e0c9      	b.n	8003c22 <HAL_GPIO_Init+0x1b6>
 8003a8e:	2101      	movs	r1, #1
 8003a90:	4099      	lsls	r1, r3
 8003a92:	468c      	mov	ip, r1
 8003a94:	4011      	ands	r1, r2
 8003a96:	468a      	mov	sl, r1
 8003a98:	4661      	mov	r1, ip
 8003a9a:	420a      	tst	r2, r1
 8003a9c:	d05c      	beq.n	8003b58 <HAL_GPIO_Init+0xec>
 8003a9e:	2503      	movs	r5, #3
 8003aa0:	4659      	mov	r1, fp
 8003aa2:	005e      	lsls	r6, r3, #1
 8003aa4:	40b5      	lsls	r5, r6
 8003aa6:	684c      	ldr	r4, [r1, #4]
 8003aa8:	2103      	movs	r1, #3
 8003aaa:	43ed      	mvns	r5, r5
 8003aac:	4021      	ands	r1, r4
 8003aae:	1e4f      	subs	r7, r1, #1
 8003ab0:	9501      	str	r5, [sp, #4]
 8003ab2:	2f01      	cmp	r7, #1
 8003ab4:	d95b      	bls.n	8003b6e <HAL_GPIO_Init+0x102>
 8003ab6:	2903      	cmp	r1, #3
 8003ab8:	d000      	beq.n	8003abc <HAL_GPIO_Init+0x50>
 8003aba:	e167      	b.n	8003d8c <HAL_GPIO_Init+0x320>
 8003abc:	40b1      	lsls	r1, r6
 8003abe:	6807      	ldr	r7, [r0, #0]
 8003ac0:	9d01      	ldr	r5, [sp, #4]
 8003ac2:	403d      	ands	r5, r7
 8003ac4:	4329      	orrs	r1, r5
 8003ac6:	6001      	str	r1, [r0, #0]
 8003ac8:	21c0      	movs	r1, #192	@ 0xc0
 8003aca:	0289      	lsls	r1, r1, #10
 8003acc:	420c      	tst	r4, r1
 8003ace:	d043      	beq.n	8003b58 <HAL_GPIO_Init+0xec>
 8003ad0:	2603      	movs	r6, #3
 8003ad2:	270f      	movs	r7, #15
 8003ad4:	4dbd      	ldr	r5, [pc, #756]	@ (8003dcc <HAL_GPIO_Init+0x360>)
 8003ad6:	401e      	ands	r6, r3
 8003ad8:	46ac      	mov	ip, r5
 8003ada:	00f6      	lsls	r6, r6, #3
 8003adc:	40b7      	lsls	r7, r6
 8003ade:	0899      	lsrs	r1, r3, #2
 8003ae0:	0089      	lsls	r1, r1, #2
 8003ae2:	4461      	add	r1, ip
 8003ae4:	6e0d      	ldr	r5, [r1, #96]	@ 0x60
 8003ae6:	43bd      	bics	r5, r7
 8003ae8:	4fb9      	ldr	r7, [pc, #740]	@ (8003dd0 <HAL_GPIO_Init+0x364>)
 8003aea:	42b8      	cmp	r0, r7
 8003aec:	d100      	bne.n	8003af0 <HAL_GPIO_Init+0x84>
 8003aee:	e094      	b.n	8003c1a <HAL_GPIO_Init+0x1ae>
 8003af0:	4fb8      	ldr	r7, [pc, #736]	@ (8003dd4 <HAL_GPIO_Init+0x368>)
 8003af2:	42b8      	cmp	r0, r7
 8003af4:	d100      	bne.n	8003af8 <HAL_GPIO_Init+0x8c>
 8003af6:	e07f      	b.n	8003bf8 <HAL_GPIO_Init+0x18c>
 8003af8:	4fb7      	ldr	r7, [pc, #732]	@ (8003dd8 <HAL_GPIO_Init+0x36c>)
 8003afa:	42b8      	cmp	r0, r7
 8003afc:	d100      	bne.n	8003b00 <HAL_GPIO_Init+0x94>
 8003afe:	e13d      	b.n	8003d7c <HAL_GPIO_Init+0x310>
 8003b00:	4fb6      	ldr	r7, [pc, #728]	@ (8003ddc <HAL_GPIO_Init+0x370>)
 8003b02:	42b8      	cmp	r0, r7
 8003b04:	d100      	bne.n	8003b08 <HAL_GPIO_Init+0x9c>
 8003b06:	e13d      	b.n	8003d84 <HAL_GPIO_Init+0x318>
 8003b08:	2705      	movs	r7, #5
 8003b0a:	40b7      	lsls	r7, r6
 8003b0c:	433d      	orrs	r5, r7
 8003b0e:	2680      	movs	r6, #128	@ 0x80
 8003b10:	660d      	str	r5, [r1, #96]	@ 0x60
 8003b12:	4655      	mov	r5, sl
 8003b14:	49ad      	ldr	r1, [pc, #692]	@ (8003dcc <HAL_GPIO_Init+0x360>)
 8003b16:	0376      	lsls	r6, r6, #13
 8003b18:	43ed      	mvns	r5, r5
 8003b1a:	6809      	ldr	r1, [r1, #0]
 8003b1c:	4234      	tst	r4, r6
 8003b1e:	d000      	beq.n	8003b22 <HAL_GPIO_Init+0xb6>
 8003b20:	e078      	b.n	8003c14 <HAL_GPIO_Init+0x1a8>
 8003b22:	4029      	ands	r1, r5
 8003b24:	4ea9      	ldr	r6, [pc, #676]	@ (8003dcc <HAL_GPIO_Init+0x360>)
 8003b26:	6031      	str	r1, [r6, #0]
 8003b28:	6871      	ldr	r1, [r6, #4]
 8003b2a:	2680      	movs	r6, #128	@ 0x80
 8003b2c:	03b6      	lsls	r6, r6, #14
 8003b2e:	4234      	tst	r4, r6
 8003b30:	d16d      	bne.n	8003c0e <HAL_GPIO_Init+0x1a2>
 8003b32:	4029      	ands	r1, r5
 8003b34:	4ea5      	ldr	r6, [pc, #660]	@ (8003dcc <HAL_GPIO_Init+0x360>)
 8003b36:	6071      	str	r1, [r6, #4]
 8003b38:	2184      	movs	r1, #132	@ 0x84
 8003b3a:	5871      	ldr	r1, [r6, r1]
 8003b3c:	03a6      	lsls	r6, r4, #14
 8003b3e:	d463      	bmi.n	8003c08 <HAL_GPIO_Init+0x19c>
 8003b40:	4029      	ands	r1, r5
 8003b42:	2684      	movs	r6, #132	@ 0x84
 8003b44:	4fa1      	ldr	r7, [pc, #644]	@ (8003dcc <HAL_GPIO_Init+0x360>)
 8003b46:	51b9      	str	r1, [r7, r6]
 8003b48:	2180      	movs	r1, #128	@ 0x80
 8003b4a:	5879      	ldr	r1, [r7, r1]
 8003b4c:	03e4      	lsls	r4, r4, #15
 8003b4e:	d457      	bmi.n	8003c00 <HAL_GPIO_Init+0x194>
 8003b50:	4029      	ands	r1, r5
 8003b52:	2480      	movs	r4, #128	@ 0x80
 8003b54:	4d9d      	ldr	r5, [pc, #628]	@ (8003dcc <HAL_GPIO_Init+0x360>)
 8003b56:	5129      	str	r1, [r5, r4]
 8003b58:	0011      	movs	r1, r2
 8003b5a:	3301      	adds	r3, #1
 8003b5c:	40d9      	lsrs	r1, r3
 8003b5e:	d196      	bne.n	8003a8e <HAL_GPIO_Init+0x22>
 8003b60:	b005      	add	sp, #20
 8003b62:	bcf0      	pop	{r4, r5, r6, r7}
 8003b64:	46bb      	mov	fp, r7
 8003b66:	46b2      	mov	sl, r6
 8003b68:	46a9      	mov	r9, r5
 8003b6a:	46a0      	mov	r8, r4
 8003b6c:	bdf0      	pop	{r4, r5, r6, r7, pc}
 8003b6e:	6887      	ldr	r7, [r0, #8]
 8003b70:	402f      	ands	r7, r5
 8003b72:	46b9      	mov	r9, r7
 8003b74:	465f      	mov	r7, fp
 8003b76:	68ff      	ldr	r7, [r7, #12]
 8003b78:	40b7      	lsls	r7, r6
 8003b7a:	46b8      	mov	r8, r7
 8003b7c:	464f      	mov	r7, r9
 8003b7e:	4645      	mov	r5, r8
 8003b80:	432f      	orrs	r7, r5
 8003b82:	6087      	str	r7, [r0, #8]
 8003b84:	6845      	ldr	r5, [r0, #4]
 8003b86:	002f      	movs	r7, r5
 8003b88:	4665      	mov	r5, ip
 8003b8a:	43af      	bics	r7, r5
 8003b8c:	0925      	lsrs	r5, r4, #4
 8003b8e:	46b8      	mov	r8, r7
 8003b90:	002f      	movs	r7, r5
 8003b92:	2501      	movs	r5, #1
 8003b94:	402f      	ands	r7, r5
 8003b96:	409f      	lsls	r7, r3
 8003b98:	46bc      	mov	ip, r7
 8003b9a:	4647      	mov	r7, r8
 8003b9c:	4665      	mov	r5, ip
 8003b9e:	432f      	orrs	r7, r5
 8003ba0:	6047      	str	r7, [r0, #4]
 8003ba2:	68c5      	ldr	r5, [r0, #12]
 8003ba4:	002f      	movs	r7, r5
 8003ba6:	9d01      	ldr	r5, [sp, #4]
 8003ba8:	402f      	ands	r7, r5
 8003baa:	465d      	mov	r5, fp
 8003bac:	68ad      	ldr	r5, [r5, #8]
 8003bae:	46b8      	mov	r8, r7
 8003bb0:	002f      	movs	r7, r5
 8003bb2:	40b7      	lsls	r7, r6
 8003bb4:	46bc      	mov	ip, r7
 8003bb6:	4647      	mov	r7, r8
 8003bb8:	4665      	mov	r5, ip
 8003bba:	432f      	orrs	r7, r5
 8003bbc:	60c7      	str	r7, [r0, #12]
 8003bbe:	2902      	cmp	r1, #2
 8003bc0:	d000      	beq.n	8003bc4 <HAL_GPIO_Init+0x158>
 8003bc2:	e77b      	b.n	8003abc <HAL_GPIO_Init+0x50>
 8003bc4:	08dd      	lsrs	r5, r3, #3
 8003bc6:	00ad      	lsls	r5, r5, #2
 8003bc8:	46ac      	mov	ip, r5
 8003bca:	4484      	add	ip, r0
 8003bcc:	4665      	mov	r5, ip
 8003bce:	6a2f      	ldr	r7, [r5, #32]
 8003bd0:	2507      	movs	r5, #7
 8003bd2:	401d      	ands	r5, r3
 8003bd4:	00ad      	lsls	r5, r5, #2
 8003bd6:	46a8      	mov	r8, r5
 8003bd8:	9702      	str	r7, [sp, #8]
 8003bda:	250f      	movs	r5, #15
 8003bdc:	4647      	mov	r7, r8
 8003bde:	40bd      	lsls	r5, r7
 8003be0:	9f02      	ldr	r7, [sp, #8]
 8003be2:	43af      	bics	r7, r5
 8003be4:	465d      	mov	r5, fp
 8003be6:	9702      	str	r7, [sp, #8]
 8003be8:	4647      	mov	r7, r8
 8003bea:	692d      	ldr	r5, [r5, #16]
 8003bec:	40bd      	lsls	r5, r7
 8003bee:	9f02      	ldr	r7, [sp, #8]
 8003bf0:	432f      	orrs	r7, r5
 8003bf2:	4665      	mov	r5, ip
 8003bf4:	622f      	str	r7, [r5, #32]
 8003bf6:	e761      	b.n	8003abc <HAL_GPIO_Init+0x50>
 8003bf8:	2702      	movs	r7, #2
 8003bfa:	40b7      	lsls	r7, r6
 8003bfc:	433d      	orrs	r5, r7
 8003bfe:	e786      	b.n	8003b0e <HAL_GPIO_Init+0xa2>
 8003c00:	4654      	mov	r4, sl
 8003c02:	430c      	orrs	r4, r1
 8003c04:	0021      	movs	r1, r4
 8003c06:	e7a4      	b.n	8003b52 <HAL_GPIO_Init+0xe6>
 8003c08:	4656      	mov	r6, sl
 8003c0a:	4331      	orrs	r1, r6
 8003c0c:	e799      	b.n	8003b42 <HAL_GPIO_Init+0xd6>
 8003c0e:	4656      	mov	r6, sl
 8003c10:	4331      	orrs	r1, r6
 8003c12:	e78f      	b.n	8003b34 <HAL_GPIO_Init+0xc8>
 8003c14:	4656      	mov	r6, sl
 8003c16:	4331      	orrs	r1, r6
 8003c18:	e784      	b.n	8003b24 <HAL_GPIO_Init+0xb8>
 8003c1a:	2701      	movs	r7, #1
 8003c1c:	40b7      	lsls	r7, r6
 8003c1e:	433d      	orrs	r5, r7
 8003c20:	e775      	b.n	8003b0e <HAL_GPIO_Init+0xa2>
 8003c22:	2101      	movs	r1, #1
 8003c24:	468a      	mov	sl, r1
 8003c26:	4659      	mov	r1, fp
 8003c28:	9102      	str	r1, [sp, #8]
 8003c2a:	e040      	b.n	8003cae <HAL_GPIO_Init+0x242>
 8003c2c:	2903      	cmp	r1, #3
 8003c2e:	d000      	beq.n	8003c32 <HAL_GPIO_Init+0x1c6>
 8003c30:	e0b9      	b.n	8003da6 <HAL_GPIO_Init+0x33a>
 8003c32:	40b1      	lsls	r1, r6
 8003c34:	6807      	ldr	r7, [r0, #0]
 8003c36:	9d01      	ldr	r5, [sp, #4]
 8003c38:	403d      	ands	r5, r7
 8003c3a:	4329      	orrs	r1, r5
 8003c3c:	6001      	str	r1, [r0, #0]
 8003c3e:	21c0      	movs	r1, #192	@ 0xc0
 8003c40:	0289      	lsls	r1, r1, #10
 8003c42:	420c      	tst	r4, r1
 8003c44:	d02e      	beq.n	8003ca4 <HAL_GPIO_Init+0x238>
 8003c46:	2603      	movs	r6, #3
 8003c48:	270f      	movs	r7, #15
 8003c4a:	4d60      	ldr	r5, [pc, #384]	@ (8003dcc <HAL_GPIO_Init+0x360>)
 8003c4c:	401e      	ands	r6, r3
 8003c4e:	46ac      	mov	ip, r5
 8003c50:	00f6      	lsls	r6, r6, #3
 8003c52:	40b7      	lsls	r7, r6
 8003c54:	0899      	lsrs	r1, r3, #2
 8003c56:	0089      	lsls	r1, r1, #2
 8003c58:	4461      	add	r1, ip
 8003c5a:	6e0d      	ldr	r5, [r1, #96]	@ 0x60
 8003c5c:	2680      	movs	r6, #128	@ 0x80
 8003c5e:	43bd      	bics	r5, r7
 8003c60:	660d      	str	r5, [r1, #96]	@ 0x60
 8003c62:	4661      	mov	r1, ip
 8003c64:	465d      	mov	r5, fp
 8003c66:	0376      	lsls	r6, r6, #13
 8003c68:	43ed      	mvns	r5, r5
 8003c6a:	6809      	ldr	r1, [r1, #0]
 8003c6c:	4234      	tst	r4, r6
 8003c6e:	d000      	beq.n	8003c72 <HAL_GPIO_Init+0x206>
 8003c70:	e081      	b.n	8003d76 <HAL_GPIO_Init+0x30a>
 8003c72:	4029      	ands	r1, r5
 8003c74:	4e55      	ldr	r6, [pc, #340]	@ (8003dcc <HAL_GPIO_Init+0x360>)
 8003c76:	6031      	str	r1, [r6, #0]
 8003c78:	6871      	ldr	r1, [r6, #4]
 8003c7a:	02a6      	lsls	r6, r4, #10
 8003c7c:	d478      	bmi.n	8003d70 <HAL_GPIO_Init+0x304>
 8003c7e:	4029      	ands	r1, r5
 8003c80:	4e52      	ldr	r6, [pc, #328]	@ (8003dcc <HAL_GPIO_Init+0x360>)
 8003c82:	6071      	str	r1, [r6, #4]
 8003c84:	2184      	movs	r1, #132	@ 0x84
 8003c86:	5871      	ldr	r1, [r6, r1]
 8003c88:	03a6      	lsls	r6, r4, #14
 8003c8a:	d46e      	bmi.n	8003d6a <HAL_GPIO_Init+0x2fe>
 8003c8c:	4029      	ands	r1, r5
 8003c8e:	2684      	movs	r6, #132	@ 0x84
 8003c90:	4f4e      	ldr	r7, [pc, #312]	@ (8003dcc <HAL_GPIO_Init+0x360>)
 8003c92:	51b9      	str	r1, [r7, r6]
 8003c94:	2180      	movs	r1, #128	@ 0x80
 8003c96:	5879      	ldr	r1, [r7, r1]
 8003c98:	03e4      	lsls	r4, r4, #15
 8003c9a:	d463      	bmi.n	8003d64 <HAL_GPIO_Init+0x2f8>
 8003c9c:	4029      	ands	r1, r5
 8003c9e:	2480      	movs	r4, #128	@ 0x80
 8003ca0:	4d4a      	ldr	r5, [pc, #296]	@ (8003dcc <HAL_GPIO_Init+0x360>)
 8003ca2:	5129      	str	r1, [r5, r4]
 8003ca4:	0011      	movs	r1, r2
 8003ca6:	3301      	adds	r3, #1
 8003ca8:	40d9      	lsrs	r1, r3
 8003caa:	d100      	bne.n	8003cae <HAL_GPIO_Init+0x242>
 8003cac:	e758      	b.n	8003b60 <HAL_GPIO_Init+0xf4>
 8003cae:	4651      	mov	r1, sl
 8003cb0:	4099      	lsls	r1, r3
 8003cb2:	468c      	mov	ip, r1
 8003cb4:	4011      	ands	r1, r2
 8003cb6:	468b      	mov	fp, r1
 8003cb8:	4661      	mov	r1, ip
 8003cba:	4211      	tst	r1, r2
 8003cbc:	d0f2      	beq.n	8003ca4 <HAL_GPIO_Init+0x238>
 8003cbe:	2503      	movs	r5, #3
 8003cc0:	005e      	lsls	r6, r3, #1
 8003cc2:	40b5      	lsls	r5, r6
 8003cc4:	9902      	ldr	r1, [sp, #8]
 8003cc6:	43ed      	mvns	r5, r5
 8003cc8:	684c      	ldr	r4, [r1, #4]
 8003cca:	2103      	movs	r1, #3
 8003ccc:	4021      	ands	r1, r4
 8003cce:	1e4f      	subs	r7, r1, #1
 8003cd0:	9501      	str	r5, [sp, #4]
 8003cd2:	2f01      	cmp	r7, #1
 8003cd4:	d8aa      	bhi.n	8003c2c <HAL_GPIO_Init+0x1c0>
 8003cd6:	6887      	ldr	r7, [r0, #8]
 8003cd8:	402f      	ands	r7, r5
 8003cda:	9d02      	ldr	r5, [sp, #8]
 8003cdc:	46b9      	mov	r9, r7
 8003cde:	68ef      	ldr	r7, [r5, #12]
 8003ce0:	40b7      	lsls	r7, r6
 8003ce2:	46b8      	mov	r8, r7
 8003ce4:	464f      	mov	r7, r9
 8003ce6:	4645      	mov	r5, r8
 8003ce8:	432f      	orrs	r7, r5
 8003cea:	6087      	str	r7, [r0, #8]
 8003cec:	6845      	ldr	r5, [r0, #4]
 8003cee:	002f      	movs	r7, r5
 8003cf0:	4665      	mov	r5, ip
 8003cf2:	43af      	bics	r7, r5
 8003cf4:	0925      	lsrs	r5, r4, #4
 8003cf6:	46b8      	mov	r8, r7
 8003cf8:	002f      	movs	r7, r5
 8003cfa:	4655      	mov	r5, sl
 8003cfc:	402f      	ands	r7, r5
 8003cfe:	409f      	lsls	r7, r3
 8003d00:	46bc      	mov	ip, r7
 8003d02:	4647      	mov	r7, r8
 8003d04:	4665      	mov	r5, ip
 8003d06:	432f      	orrs	r7, r5
 8003d08:	6047      	str	r7, [r0, #4]
 8003d0a:	68c5      	ldr	r5, [r0, #12]
 8003d0c:	002f      	movs	r7, r5
 8003d0e:	9d01      	ldr	r5, [sp, #4]
 8003d10:	402f      	ands	r7, r5
 8003d12:	9d02      	ldr	r5, [sp, #8]
 8003d14:	46b8      	mov	r8, r7
 8003d16:	68ad      	ldr	r5, [r5, #8]
 8003d18:	002f      	movs	r7, r5
 8003d1a:	40b7      	lsls	r7, r6
 8003d1c:	46bc      	mov	ip, r7
 8003d1e:	4647      	mov	r7, r8
 8003d20:	4665      	mov	r5, ip
 8003d22:	432f      	orrs	r7, r5
 8003d24:	60c7      	str	r7, [r0, #12]
 8003d26:	2902      	cmp	r1, #2
 8003d28:	d183      	bne.n	8003c32 <HAL_GPIO_Init+0x1c6>
 8003d2a:	08dd      	lsrs	r5, r3, #3
 8003d2c:	00ad      	lsls	r5, r5, #2
 8003d2e:	46ac      	mov	ip, r5
 8003d30:	25a0      	movs	r5, #160	@ 0xa0
 8003d32:	05ed      	lsls	r5, r5, #23
 8003d34:	46a8      	mov	r8, r5
 8003d36:	44c4      	add	ip, r8
 8003d38:	4665      	mov	r5, ip
 8003d3a:	6a2f      	ldr	r7, [r5, #32]
 8003d3c:	2507      	movs	r5, #7
 8003d3e:	401d      	ands	r5, r3
 8003d40:	00ad      	lsls	r5, r5, #2
 8003d42:	46a9      	mov	r9, r5
 8003d44:	9703      	str	r7, [sp, #12]
 8003d46:	250f      	movs	r5, #15
 8003d48:	464f      	mov	r7, r9
 8003d4a:	40bd      	lsls	r5, r7
 8003d4c:	9f03      	ldr	r7, [sp, #12]
 8003d4e:	43af      	bics	r7, r5
 8003d50:	9703      	str	r7, [sp, #12]
 8003d52:	464f      	mov	r7, r9
 8003d54:	9d02      	ldr	r5, [sp, #8]
 8003d56:	692d      	ldr	r5, [r5, #16]
 8003d58:	40bd      	lsls	r5, r7
 8003d5a:	9f03      	ldr	r7, [sp, #12]
 8003d5c:	432f      	orrs	r7, r5
 8003d5e:	4665      	mov	r5, ip
 8003d60:	622f      	str	r7, [r5, #32]
 8003d62:	e766      	b.n	8003c32 <HAL_GPIO_Init+0x1c6>
 8003d64:	465c      	mov	r4, fp
 8003d66:	4321      	orrs	r1, r4
 8003d68:	e799      	b.n	8003c9e <HAL_GPIO_Init+0x232>
 8003d6a:	465e      	mov	r6, fp
 8003d6c:	4331      	orrs	r1, r6
 8003d6e:	e78e      	b.n	8003c8e <HAL_GPIO_Init+0x222>
 8003d70:	465e      	mov	r6, fp
 8003d72:	4331      	orrs	r1, r6
 8003d74:	e784      	b.n	8003c80 <HAL_GPIO_Init+0x214>
 8003d76:	465e      	mov	r6, fp
 8003d78:	4331      	orrs	r1, r6
 8003d7a:	e77b      	b.n	8003c74 <HAL_GPIO_Init+0x208>
 8003d7c:	2703      	movs	r7, #3
 8003d7e:	40b7      	lsls	r7, r6
 8003d80:	433d      	orrs	r5, r7
 8003d82:	e6c4      	b.n	8003b0e <HAL_GPIO_Init+0xa2>
 8003d84:	2704      	movs	r7, #4
 8003d86:	40b7      	lsls	r7, r6
 8003d88:	433d      	orrs	r5, r7
 8003d8a:	e6c0      	b.n	8003b0e <HAL_GPIO_Init+0xa2>
 8003d8c:	002f      	movs	r7, r5
 8003d8e:	68c5      	ldr	r5, [r0, #12]
 8003d90:	403d      	ands	r5, r7
 8003d92:	46a8      	mov	r8, r5
 8003d94:	465d      	mov	r5, fp
 8003d96:	68ad      	ldr	r5, [r5, #8]
 8003d98:	40b5      	lsls	r5, r6
 8003d9a:	46ac      	mov	ip, r5
 8003d9c:	4645      	mov	r5, r8
 8003d9e:	4667      	mov	r7, ip
 8003da0:	433d      	orrs	r5, r7
 8003da2:	60c5      	str	r5, [r0, #12]
 8003da4:	e68a      	b.n	8003abc <HAL_GPIO_Init+0x50>
 8003da6:	002f      	movs	r7, r5
 8003da8:	25a0      	movs	r5, #160	@ 0xa0
 8003daa:	05ed      	lsls	r5, r5, #23
 8003dac:	46a8      	mov	r8, r5
 8003dae:	68ed      	ldr	r5, [r5, #12]
 8003db0:	403d      	ands	r5, r7
 8003db2:	46a9      	mov	r9, r5
 8003db4:	9d02      	ldr	r5, [sp, #8]
 8003db6:	68ad      	ldr	r5, [r5, #8]
 8003db8:	40b5      	lsls	r5, r6
 8003dba:	46ac      	mov	ip, r5
 8003dbc:	464d      	mov	r5, r9
 8003dbe:	4667      	mov	r7, ip
 8003dc0:	433d      	orrs	r5, r7
 8003dc2:	46ac      	mov	ip, r5
 8003dc4:	4645      	mov	r5, r8
 8003dc6:	4667      	mov	r7, ip
 8003dc8:	60ef      	str	r7, [r5, #12]
 8003dca:	e732      	b.n	8003c32 <HAL_GPIO_Init+0x1c6>
 8003dcc:	40021800 	.word	0x40021800
 8003dd0:	50000400 	.word	0x50000400
 8003dd4:	50000800 	.word	0x50000800
 8003dd8:	50000c00 	.word	0x50000c00
 8003ddc:	50001000 	.word	0x50001000

08003de0 <HAL_GPIO_DeInit>:
 8003de0:	b5f0      	push	{r4, r5, r6, r7, lr}
 8003de2:	46de      	mov	lr, fp
 8003de4:	4657      	mov	r7, sl
 8003de6:	464e      	mov	r6, r9
 8003de8:	4645      	mov	r5, r8
 8003dea:	b5e0      	push	{r5, r6, r7, lr}
 8003dec:	b083      	sub	sp, #12
 8003dee:	2900      	cmp	r1, #0
 8003df0:	d06b      	beq.n	8003eca <HAL_GPIO_DeInit+0xea>
 8003df2:	22a0      	movs	r2, #160	@ 0xa0
 8003df4:	2300      	movs	r3, #0
 8003df6:	05d2      	lsls	r2, r2, #23
 8003df8:	4290      	cmp	r0, r2
 8003dfa:	d100      	bne.n	8003dfe <HAL_GPIO_DeInit+0x1e>
 8003dfc:	e078      	b.n	8003ef0 <HAL_GPIO_DeInit+0x110>
 8003dfe:	2201      	movs	r2, #1
 8003e00:	4691      	mov	r9, r2
 8003e02:	3202      	adds	r2, #2
 8003e04:	4693      	mov	fp, r2
 8003e06:	4a6b      	ldr	r2, [pc, #428]	@ (8003fb4 <HAL_GPIO_DeInit+0x1d4>)
 8003e08:	4694      	mov	ip, r2
 8003e0a:	464a      	mov	r2, r9
 8003e0c:	000f      	movs	r7, r1
 8003e0e:	409a      	lsls	r2, r3
 8003e10:	4017      	ands	r7, r2
 8003e12:	4211      	tst	r1, r2
 8003e14:	d055      	beq.n	8003ec2 <HAL_GPIO_DeInit+0xe2>
 8003e16:	4d67      	ldr	r5, [pc, #412]	@ (8003fb4 <HAL_GPIO_DeInit+0x1d4>)
 8003e18:	089c      	lsrs	r4, r3, #2
 8003e1a:	46a8      	mov	r8, r5
 8003e1c:	00a4      	lsls	r4, r4, #2
 8003e1e:	465d      	mov	r5, fp
 8003e20:	4444      	add	r4, r8
 8003e22:	6e26      	ldr	r6, [r4, #96]	@ 0x60
 8003e24:	9400      	str	r4, [sp, #0]
 8003e26:	240f      	movs	r4, #15
 8003e28:	401d      	ands	r5, r3
 8003e2a:	00ed      	lsls	r5, r5, #3
 8003e2c:	40ac      	lsls	r4, r5
 8003e2e:	46a0      	mov	r8, r4
 8003e30:	4026      	ands	r6, r4
 8003e32:	4c61      	ldr	r4, [pc, #388]	@ (8003fb8 <HAL_GPIO_DeInit+0x1d8>)
 8003e34:	42a0      	cmp	r0, r4
 8003e36:	d00c      	beq.n	8003e52 <HAL_GPIO_DeInit+0x72>
 8003e38:	4c60      	ldr	r4, [pc, #384]	@ (8003fbc <HAL_GPIO_DeInit+0x1dc>)
 8003e3a:	42a0      	cmp	r0, r4
 8003e3c:	d050      	beq.n	8003ee0 <HAL_GPIO_DeInit+0x100>
 8003e3e:	4c60      	ldr	r4, [pc, #384]	@ (8003fc0 <HAL_GPIO_DeInit+0x1e0>)
 8003e40:	42a0      	cmp	r0, r4
 8003e42:	d051      	beq.n	8003ee8 <HAL_GPIO_DeInit+0x108>
 8003e44:	4c5f      	ldr	r4, [pc, #380]	@ (8003fc4 <HAL_GPIO_DeInit+0x1e4>)
 8003e46:	42a0      	cmp	r0, r4
 8003e48:	d046      	beq.n	8003ed8 <HAL_GPIO_DeInit+0xf8>
 8003e4a:	2405      	movs	r4, #5
 8003e4c:	40ac      	lsls	r4, r5
 8003e4e:	0025      	movs	r5, r4
 8003e50:	e002      	b.n	8003e58 <HAL_GPIO_DeInit+0x78>
 8003e52:	464c      	mov	r4, r9
 8003e54:	40ac      	lsls	r4, r5
 8003e56:	0025      	movs	r5, r4
 8003e58:	42ae      	cmp	r6, r5
 8003e5a:	d114      	bne.n	8003e86 <HAL_GPIO_DeInit+0xa6>
 8003e5c:	2480      	movs	r4, #128	@ 0x80
 8003e5e:	4665      	mov	r5, ip
 8003e60:	4666      	mov	r6, ip
 8003e62:	592d      	ldr	r5, [r5, r4]
 8003e64:	43bd      	bics	r5, r7
 8003e66:	5135      	str	r5, [r6, r4]
 8003e68:	3404      	adds	r4, #4
 8003e6a:	5935      	ldr	r5, [r6, r4]
 8003e6c:	43bd      	bics	r5, r7
 8003e6e:	5135      	str	r5, [r6, r4]
 8003e70:	4644      	mov	r4, r8
 8003e72:	6875      	ldr	r5, [r6, #4]
 8003e74:	43bd      	bics	r5, r7
 8003e76:	6075      	str	r5, [r6, #4]
 8003e78:	6835      	ldr	r5, [r6, #0]
 8003e7a:	43bd      	bics	r5, r7
 8003e7c:	6035      	str	r5, [r6, #0]
 8003e7e:	9e00      	ldr	r6, [sp, #0]
 8003e80:	6e35      	ldr	r5, [r6, #96]	@ 0x60
 8003e82:	43a5      	bics	r5, r4
 8003e84:	6635      	str	r5, [r6, #96]	@ 0x60
 8003e86:	465e      	mov	r6, fp
 8003e88:	005d      	lsls	r5, r3, #1
 8003e8a:	40ae      	lsls	r6, r5
 8003e8c:	6804      	ldr	r4, [r0, #0]
 8003e8e:	0035      	movs	r5, r6
 8003e90:	4334      	orrs	r4, r6
 8003e92:	6004      	str	r4, [r0, #0]
 8003e94:	08dc      	lsrs	r4, r3, #3
 8003e96:	00a4      	lsls	r4, r4, #2
 8003e98:	1904      	adds	r4, r0, r4
 8003e9a:	6a26      	ldr	r6, [r4, #32]
 8003e9c:	2707      	movs	r7, #7
 8003e9e:	46b0      	mov	r8, r6
 8003ea0:	260f      	movs	r6, #15
 8003ea2:	401f      	ands	r7, r3
 8003ea4:	00bf      	lsls	r7, r7, #2
 8003ea6:	40be      	lsls	r6, r7
 8003ea8:	0037      	movs	r7, r6
 8003eaa:	4646      	mov	r6, r8
 8003eac:	43be      	bics	r6, r7
 8003eae:	6226      	str	r6, [r4, #32]
 8003eb0:	6884      	ldr	r4, [r0, #8]
 8003eb2:	43ac      	bics	r4, r5
 8003eb4:	6084      	str	r4, [r0, #8]
 8003eb6:	6844      	ldr	r4, [r0, #4]
 8003eb8:	4394      	bics	r4, r2
 8003eba:	6044      	str	r4, [r0, #4]
 8003ebc:	68c2      	ldr	r2, [r0, #12]
 8003ebe:	43aa      	bics	r2, r5
 8003ec0:	60c2      	str	r2, [r0, #12]
 8003ec2:	000a      	movs	r2, r1
 8003ec4:	3301      	adds	r3, #1
 8003ec6:	40da      	lsrs	r2, r3
 8003ec8:	d19f      	bne.n	8003e0a <HAL_GPIO_DeInit+0x2a>
 8003eca:	b003      	add	sp, #12
 8003ecc:	bcf0      	pop	{r4, r5, r6, r7}
 8003ece:	46bb      	mov	fp, r7
 8003ed0:	46b2      	mov	sl, r6
 8003ed2:	46a9      	mov	r9, r5
 8003ed4:	46a0      	mov	r8, r4
 8003ed6:	bdf0      	pop	{r4, r5, r6, r7, pc}
 8003ed8:	2404      	movs	r4, #4
 8003eda:	40ac      	lsls	r4, r5
 8003edc:	0025      	movs	r5, r4
 8003ede:	e7bb      	b.n	8003e58 <HAL_GPIO_DeInit+0x78>
 8003ee0:	2402      	movs	r4, #2
 8003ee2:	40ac      	lsls	r4, r5
 8003ee4:	0025      	movs	r5, r4
 8003ee6:	e7b7      	b.n	8003e58 <HAL_GPIO_DeInit+0x78>
 8003ee8:	465c      	mov	r4, fp
 8003eea:	40ac      	lsls	r4, r5
 8003eec:	0025      	movs	r5, r4
 8003eee:	e7b3      	b.n	8003e58 <HAL_GPIO_DeInit+0x78>
 8003ef0:	2201      	movs	r2, #1
 8003ef2:	4694      	mov	ip, r2
 8003ef4:	3202      	adds	r2, #2
 8003ef6:	4691      	mov	r9, r2
 8003ef8:	320c      	adds	r2, #12
 8003efa:	4690      	mov	r8, r2
 8003efc:	3a08      	subs	r2, #8
 8003efe:	2300      	movs	r3, #0
 8003f00:	4692      	mov	sl, r2
 8003f02:	4662      	mov	r2, ip
 8003f04:	409a      	lsls	r2, r3
 8003f06:	0016      	movs	r6, r2
 8003f08:	400e      	ands	r6, r1
 8003f0a:	420a      	tst	r2, r1
 8003f0c:	d04d      	beq.n	8003faa <HAL_GPIO_DeInit+0x1ca>
 8003f0e:	4d29      	ldr	r5, [pc, #164]	@ (8003fb4 <HAL_GPIO_DeInit+0x1d4>)
 8003f10:	089c      	lsrs	r4, r3, #2
 8003f12:	46ab      	mov	fp, r5
 8003f14:	00a4      	lsls	r4, r4, #2
 8003f16:	445c      	add	r4, fp
 8003f18:	6e25      	ldr	r5, [r4, #96]	@ 0x60
 8003f1a:	4647      	mov	r7, r8
 8003f1c:	46ab      	mov	fp, r5
 8003f1e:	464d      	mov	r5, r9
 8003f20:	401d      	ands	r5, r3
 8003f22:	00ed      	lsls	r5, r5, #3
 8003f24:	40af      	lsls	r7, r5
 8003f26:	9400      	str	r4, [sp, #0]
 8003f28:	9701      	str	r7, [sp, #4]
 8003f2a:	003c      	movs	r4, r7
 8003f2c:	465f      	mov	r7, fp
 8003f2e:	4227      	tst	r7, r4
 8003f30:	d118      	bne.n	8003f64 <HAL_GPIO_DeInit+0x184>
 8003f32:	2780      	movs	r7, #128	@ 0x80
 8003f34:	4c1f      	ldr	r4, [pc, #124]	@ (8003fb4 <HAL_GPIO_DeInit+0x1d4>)
 8003f36:	59e5      	ldr	r5, [r4, r7]
 8003f38:	002f      	movs	r7, r5
 8003f3a:	43b7      	bics	r7, r6
 8003f3c:	46bb      	mov	fp, r7
 8003f3e:	2780      	movs	r7, #128	@ 0x80
 8003f40:	465d      	mov	r5, fp
 8003f42:	51e5      	str	r5, [r4, r7]
 8003f44:	3704      	adds	r7, #4
 8003f46:	59e5      	ldr	r5, [r4, r7]
 8003f48:	43b5      	bics	r5, r6
 8003f4a:	51e5      	str	r5, [r4, r7]
 8003f4c:	6865      	ldr	r5, [r4, #4]
 8003f4e:	43b5      	bics	r5, r6
 8003f50:	6065      	str	r5, [r4, #4]
 8003f52:	6825      	ldr	r5, [r4, #0]
 8003f54:	43b5      	bics	r5, r6
 8003f56:	6025      	str	r5, [r4, #0]
 8003f58:	9c00      	ldr	r4, [sp, #0]
 8003f5a:	6e26      	ldr	r6, [r4, #96]	@ 0x60
 8003f5c:	9c01      	ldr	r4, [sp, #4]
 8003f5e:	43a6      	bics	r6, r4
 8003f60:	9c00      	ldr	r4, [sp, #0]
 8003f62:	6626      	str	r6, [r4, #96]	@ 0x60
 8003f64:	464e      	mov	r6, r9
 8003f66:	005d      	lsls	r5, r3, #1
 8003f68:	40ae      	lsls	r6, r5
 8003f6a:	6804      	ldr	r4, [r0, #0]
 8003f6c:	0035      	movs	r5, r6
 8003f6e:	4334      	orrs	r4, r6
 8003f70:	26a0      	movs	r6, #160	@ 0xa0
 8003f72:	05f6      	lsls	r6, r6, #23
 8003f74:	46b3      	mov	fp, r6
 8003f76:	6004      	str	r4, [r0, #0]
 8003f78:	08dc      	lsrs	r4, r3, #3
 8003f7a:	00a4      	lsls	r4, r4, #2
 8003f7c:	445c      	add	r4, fp
 8003f7e:	6a27      	ldr	r7, [r4, #32]
 8003f80:	9700      	str	r7, [sp, #0]
 8003f82:	4657      	mov	r7, sl
 8003f84:	401f      	ands	r7, r3
 8003f86:	00bf      	lsls	r7, r7, #2
 8003f88:	46bb      	mov	fp, r7
 8003f8a:	4647      	mov	r7, r8
 8003f8c:	465e      	mov	r6, fp
 8003f8e:	40b7      	lsls	r7, r6
 8003f90:	003e      	movs	r6, r7
 8003f92:	9f00      	ldr	r7, [sp, #0]
 8003f94:	43b7      	bics	r7, r6
 8003f96:	6227      	str	r7, [r4, #32]
 8003f98:	6884      	ldr	r4, [r0, #8]
 8003f9a:	43ac      	bics	r4, r5
 8003f9c:	6084      	str	r4, [r0, #8]
 8003f9e:	6844      	ldr	r4, [r0, #4]
 8003fa0:	4394      	bics	r4, r2
 8003fa2:	6044      	str	r4, [r0, #4]
 8003fa4:	68c2      	ldr	r2, [r0, #12]
 8003fa6:	43aa      	bics	r2, r5
 8003fa8:	60c2      	str	r2, [r0, #12]
 8003faa:	000a      	movs	r2, r1
 8003fac:	3301      	adds	r3, #1
 8003fae:	40da      	lsrs	r2, r3
 8003fb0:	d1a7      	bne.n	8003f02 <HAL_GPIO_DeInit+0x122>
 8003fb2:	e78a      	b.n	8003eca <HAL_GPIO_DeInit+0xea>
 8003fb4:	40021800 	.word	0x40021800
 8003fb8:	50000400 	.word	0x50000400
 8003fbc:	50000800 	.word	0x50000800
 8003fc0:	50000c00 	.word	0x50000c00
 8003fc4:	50001000 	.word	0x50001000

08003fc8 <HAL_GPIO_WritePin>:
 8003fc8:	2a00      	cmp	r2, #0
 8003fca:	d001      	beq.n	8003fd0 <HAL_GPIO_WritePin+0x8>
 8003fcc:	6181      	str	r1, [r0, #24]
 8003fce:	4770      	bx	lr
 8003fd0:	6281      	str	r1, [r0, #40]	@ 0x28
 8003fd2:	e7fc      	b.n	8003fce <HAL_GPIO_WritePin+0x6>

08003fd4 <HAL_PCD_Init>:
 8003fd4:	b530      	push	{r4, r5, lr}
 8003fd6:	0004      	movs	r4, r0
 8003fd8:	b083      	sub	sp, #12
 8003fda:	2800      	cmp	r0, #0
 8003fdc:	d100      	bne.n	8003fe0 <HAL_PCD_Init+0xc>
 8003fde:	e0fa      	b.n	80041d6 <HAL_PCD_Init+0x202>
 8003fe0:	4b81      	ldr	r3, [pc, #516]	@ (80041e8 <HAL_PCD_Init+0x214>)
 8003fe2:	5cc3      	ldrb	r3, [r0, r3]
 8003fe4:	b2da      	uxtb	r2, r3
 8003fe6:	2b00      	cmp	r3, #0
 8003fe8:	d100      	bne.n	8003fec <HAL_PCD_Init+0x18>
 8003fea:	e0ea      	b.n	80041c2 <HAL_PCD_Init+0x1ee>
 8003fec:	2203      	movs	r2, #3
 8003fee:	4b7e      	ldr	r3, [pc, #504]	@ (80041e8 <HAL_PCD_Init+0x214>)
 8003ff0:	54e2      	strb	r2, [r4, r3]
 8003ff2:	6820      	ldr	r0, [r4, #0]
 8003ff4:	f003 fa46 	bl	8007484 <USB_DisableGlobalInt>
 8003ff8:	7922      	ldrb	r2, [r4, #4]
 8003ffa:	2a00      	cmp	r2, #0
 8003ffc:	d100      	bne.n	8004000 <HAL_PCD_Init+0x2c>
 8003ffe:	e0cc      	b.n	800419a <HAL_PCD_Init+0x1c6>
 8004000:	2380      	movs	r3, #128	@ 0x80
 8004002:	005b      	lsls	r3, r3, #1
 8004004:	82a3      	strh	r3, [r4, #20]
 8004006:	2300      	movs	r3, #0
 8004008:	75e3      	strb	r3, [r4, #23]
 800400a:	6263      	str	r3, [r4, #36]	@ 0x24
 800400c:	62a3      	str	r3, [r4, #40]	@ 0x28
 800400e:	62e3      	str	r3, [r4, #44]	@ 0x2c
 8004010:	2a01      	cmp	r2, #1
 8004012:	d100      	bne.n	8004016 <HAL_PCD_Init+0x42>
 8004014:	e0e1      	b.n	80041da <HAL_PCD_Init+0x206>
 8004016:	2102      	movs	r1, #2
 8004018:	31ff      	adds	r1, #255	@ 0xff
 800401a:	87a1      	strh	r1, [r4, #60]	@ 0x3c
 800401c:	39c2      	subs	r1, #194	@ 0xc2
 800401e:	5463      	strb	r3, [r4, r1]
 8004020:	64e3      	str	r3, [r4, #76]	@ 0x4c
 8004022:	6523      	str	r3, [r4, #80]	@ 0x50
 8004024:	6563      	str	r3, [r4, #84]	@ 0x54
 8004026:	2a02      	cmp	r2, #2
 8004028:	d04b      	beq.n	80040c2 <HAL_PCD_Init+0xee>
 800402a:	2081      	movs	r0, #129	@ 0x81
 800402c:	3125      	adds	r1, #37	@ 0x25
 800402e:	0040      	lsls	r0, r0, #1
 8004030:	5260      	strh	r0, [r4, r1]
 8004032:	3103      	adds	r1, #3
 8004034:	5463      	strb	r3, [r4, r1]
 8004036:	6763      	str	r3, [r4, #116]	@ 0x74
 8004038:	67a3      	str	r3, [r4, #120]	@ 0x78
 800403a:	67e3      	str	r3, [r4, #124]	@ 0x7c
 800403c:	2a03      	cmp	r2, #3
 800403e:	d040      	beq.n	80040c2 <HAL_PCD_Init+0xee>
 8004040:	2004      	movs	r0, #4
 8004042:	3125      	adds	r1, #37	@ 0x25
 8004044:	30ff      	adds	r0, #255	@ 0xff
 8004046:	5260      	strh	r0, [r4, r1]
 8004048:	3103      	adds	r1, #3
 800404a:	5463      	strb	r3, [r4, r1]
 800404c:	310d      	adds	r1, #13
 800404e:	5063      	str	r3, [r4, r1]
 8004050:	3104      	adds	r1, #4
 8004052:	5063      	str	r3, [r4, r1]
 8004054:	3104      	adds	r1, #4
 8004056:	5063      	str	r3, [r4, r1]
 8004058:	2a04      	cmp	r2, #4
 800405a:	d032      	beq.n	80040c2 <HAL_PCD_Init+0xee>
 800405c:	384f      	subs	r0, #79	@ 0x4f
 800405e:	3160      	adds	r1, #96	@ 0x60
 8004060:	5221      	strh	r1, [r4, r0]
 8004062:	3003      	adds	r0, #3
 8004064:	5423      	strb	r3, [r4, r0]
 8004066:	300d      	adds	r0, #13
 8004068:	5023      	str	r3, [r4, r0]
 800406a:	3004      	adds	r0, #4
 800406c:	5023      	str	r3, [r4, r0]
 800406e:	3004      	adds	r0, #4
 8004070:	5023      	str	r3, [r4, r0]
 8004072:	2a05      	cmp	r2, #5
 8004074:	d025      	beq.n	80040c2 <HAL_PCD_Init+0xee>
 8004076:	2506      	movs	r5, #6
 8004078:	3010      	adds	r0, #16
 800407a:	35ff      	adds	r5, #255	@ 0xff
 800407c:	5225      	strh	r5, [r4, r0]
 800407e:	3003      	adds	r0, #3
 8004080:	5423      	strb	r3, [r4, r0]
 8004082:	300d      	adds	r0, #13
 8004084:	5023      	str	r3, [r4, r0]
 8004086:	3004      	adds	r0, #4
 8004088:	5023      	str	r3, [r4, r0]
 800408a:	3004      	adds	r0, #4
 800408c:	5023      	str	r3, [r4, r0]
 800408e:	2a06      	cmp	r2, #6
 8004090:	d017      	beq.n	80040c2 <HAL_PCD_Init+0xee>
 8004092:	3012      	adds	r0, #18
 8004094:	5260      	strh	r0, [r4, r1]
 8004096:	2108      	movs	r1, #8
 8004098:	300e      	adds	r0, #14
 800409a:	31ff      	adds	r1, #255	@ 0xff
 800409c:	5463      	strb	r3, [r4, r1]
 800409e:	5023      	str	r3, [r4, r0]
 80040a0:	3004      	adds	r0, #4
 80040a2:	5023      	str	r3, [r4, r0]
 80040a4:	3004      	adds	r0, #4
 80040a6:	5023      	str	r3, [r4, r0]
 80040a8:	2a07      	cmp	r2, #7
 80040aa:	d00a      	beq.n	80040c2 <HAL_PCD_Init+0xee>
 80040ac:	3010      	adds	r0, #16
 80040ae:	5221      	strh	r1, [r4, r0]
 80040b0:	2130      	movs	r1, #48	@ 0x30
 80040b2:	31ff      	adds	r1, #255	@ 0xff
 80040b4:	5463      	strb	r3, [r4, r1]
 80040b6:	310d      	adds	r1, #13
 80040b8:	5063      	str	r3, [r4, r1]
 80040ba:	3104      	adds	r1, #4
 80040bc:	5063      	str	r3, [r4, r1]
 80040be:	3104      	adds	r1, #4
 80040c0:	5063      	str	r3, [r4, r1]
 80040c2:	20aa      	movs	r0, #170	@ 0xaa
 80040c4:	2300      	movs	r3, #0
 80040c6:	0040      	lsls	r0, r0, #1
 80040c8:	5223      	strh	r3, [r4, r0]
 80040ca:	2058      	movs	r0, #88	@ 0x58
 80040cc:	2100      	movs	r1, #0
 80040ce:	2501      	movs	r5, #1
 80040d0:	30ff      	adds	r0, #255	@ 0xff
 80040d2:	5421      	strb	r1, [r4, r0]
 80040d4:	300d      	adds	r0, #13
 80040d6:	5023      	str	r3, [r4, r0]
 80040d8:	3004      	adds	r0, #4
 80040da:	5023      	str	r3, [r4, r0]
 80040dc:	3004      	adds	r0, #4
 80040de:	5023      	str	r3, [r4, r0]
 80040e0:	3010      	adds	r0, #16
 80040e2:	5225      	strh	r5, [r4, r0]
 80040e4:	2080      	movs	r0, #128	@ 0x80
 80040e6:	30ff      	adds	r0, #255	@ 0xff
 80040e8:	5421      	strb	r1, [r4, r0]
 80040ea:	300d      	adds	r0, #13
 80040ec:	5023      	str	r3, [r4, r0]
 80040ee:	3004      	adds	r0, #4
 80040f0:	5023      	str	r3, [r4, r0]
 80040f2:	3004      	adds	r0, #4
 80040f4:	5023      	str	r3, [r4, r0]
 80040f6:	2a02      	cmp	r2, #2
 80040f8:	d04f      	beq.n	800419a <HAL_PCD_Init+0x1c6>
 80040fa:	3010      	adds	r0, #16
 80040fc:	3501      	adds	r5, #1
 80040fe:	5225      	strh	r5, [r4, r0]
 8004100:	20a8      	movs	r0, #168	@ 0xa8
 8004102:	30ff      	adds	r0, #255	@ 0xff
 8004104:	5421      	strb	r1, [r4, r0]
 8004106:	300d      	adds	r0, #13
 8004108:	5023      	str	r3, [r4, r0]
 800410a:	3004      	adds	r0, #4
 800410c:	5023      	str	r3, [r4, r0]
 800410e:	3004      	adds	r0, #4
 8004110:	5023      	str	r3, [r4, r0]
 8004112:	2a03      	cmp	r2, #3
 8004114:	d041      	beq.n	800419a <HAL_PCD_Init+0x1c6>
 8004116:	3010      	adds	r0, #16
 8004118:	3501      	adds	r5, #1
 800411a:	5225      	strh	r5, [r4, r0]
 800411c:	20d0      	movs	r0, #208	@ 0xd0
 800411e:	30ff      	adds	r0, #255	@ 0xff
 8004120:	5421      	strb	r1, [r4, r0]
 8004122:	300d      	adds	r0, #13
 8004124:	5023      	str	r3, [r4, r0]
 8004126:	3004      	adds	r0, #4
 8004128:	5023      	str	r3, [r4, r0]
 800412a:	3004      	adds	r0, #4
 800412c:	5023      	str	r3, [r4, r0]
 800412e:	2a04      	cmp	r2, #4
 8004130:	d033      	beq.n	800419a <HAL_PCD_Init+0x1c6>
 8004132:	3010      	adds	r0, #16
 8004134:	3501      	adds	r5, #1
 8004136:	5225      	strh	r5, [r4, r0]
 8004138:	20f8      	movs	r0, #248	@ 0xf8
 800413a:	30ff      	adds	r0, #255	@ 0xff
 800413c:	5421      	strb	r1, [r4, r0]
 800413e:	300d      	adds	r0, #13
 8004140:	5023      	str	r3, [r4, r0]
 8004142:	3004      	adds	r0, #4
 8004144:	5023      	str	r3, [r4, r0]
 8004146:	3004      	adds	r0, #4
 8004148:	5023      	str	r3, [r4, r0]
 800414a:	2a05      	cmp	r2, #5
 800414c:	d025      	beq.n	800419a <HAL_PCD_Init+0x1c6>
 800414e:	3010      	adds	r0, #16
 8004150:	3501      	adds	r5, #1
 8004152:	5225      	strh	r5, [r4, r0]
 8004154:	4825      	ldr	r0, [pc, #148]	@ (80041ec <HAL_PCD_Init+0x218>)
 8004156:	5421      	strb	r1, [r4, r0]
 8004158:	300d      	adds	r0, #13
 800415a:	5023      	str	r3, [r4, r0]
 800415c:	3004      	adds	r0, #4
 800415e:	5023      	str	r3, [r4, r0]
 8004160:	3004      	adds	r0, #4
 8004162:	5023      	str	r3, [r4, r0]
 8004164:	2a06      	cmp	r2, #6
 8004166:	d018      	beq.n	800419a <HAL_PCD_Init+0x1c6>
 8004168:	3010      	adds	r0, #16
 800416a:	3501      	adds	r5, #1
 800416c:	5225      	strh	r5, [r4, r0]
 800416e:	4820      	ldr	r0, [pc, #128]	@ (80041f0 <HAL_PCD_Init+0x21c>)
 8004170:	5421      	strb	r1, [r4, r0]
 8004172:	300d      	adds	r0, #13
 8004174:	5023      	str	r3, [r4, r0]
 8004176:	3004      	adds	r0, #4
 8004178:	5023      	str	r3, [r4, r0]
 800417a:	3004      	adds	r0, #4
 800417c:	5023      	str	r3, [r4, r0]
 800417e:	2a07      	cmp	r2, #7
 8004180:	d00b      	beq.n	800419a <HAL_PCD_Init+0x1c6>
 8004182:	229b      	movs	r2, #155	@ 0x9b
 8004184:	2007      	movs	r0, #7
 8004186:	0092      	lsls	r2, r2, #2
 8004188:	52a0      	strh	r0, [r4, r2]
 800418a:	4a1a      	ldr	r2, [pc, #104]	@ (80041f4 <HAL_PCD_Init+0x220>)
 800418c:	54a1      	strb	r1, [r4, r2]
 800418e:	320d      	adds	r2, #13
 8004190:	50a3      	str	r3, [r4, r2]
 8004192:	3204      	adds	r2, #4
 8004194:	50a3      	str	r3, [r4, r2]
 8004196:	3204      	adds	r2, #4
 8004198:	50a3      	str	r3, [r4, r2]
 800419a:	466b      	mov	r3, sp
 800419c:	7c22      	ldrb	r2, [r4, #16]
 800419e:	6820      	ldr	r0, [r4, #0]
 80041a0:	701a      	strb	r2, [r3, #0]
 80041a2:	68a2      	ldr	r2, [r4, #8]
 80041a4:	68e3      	ldr	r3, [r4, #12]
 80041a6:	6861      	ldr	r1, [r4, #4]
 80041a8:	f003 f974 	bl	8007494 <USB_DevInit>
 80041ac:	2300      	movs	r3, #0
 80041ae:	2201      	movs	r2, #1
 80041b0:	7463      	strb	r3, [r4, #17]
 80041b2:	4b0d      	ldr	r3, [pc, #52]	@ (80041e8 <HAL_PCD_Init+0x214>)
 80041b4:	54e2      	strb	r2, [r4, r3]
 80041b6:	7b23      	ldrb	r3, [r4, #12]
 80041b8:	2b01      	cmp	r3, #1
 80041ba:	d008      	beq.n	80041ce <HAL_PCD_Init+0x1fa>
 80041bc:	2000      	movs	r0, #0
 80041be:	b003      	add	sp, #12
 80041c0:	bd30      	pop	{r4, r5, pc}
 80041c2:	23a5      	movs	r3, #165	@ 0xa5
 80041c4:	009b      	lsls	r3, r3, #2
 80041c6:	54c2      	strb	r2, [r0, r3]
 80041c8:	f005 f8f4 	bl	80093b4 <HAL_PCD_MspInit>
 80041cc:	e70e      	b.n	8003fec <HAL_PCD_Init+0x18>
 80041ce:	0020      	movs	r0, r4
 80041d0:	f000 fefe 	bl	8004fd0 <HAL_PCDEx_ActivateLPM>
 80041d4:	e7f2      	b.n	80041bc <HAL_PCD_Init+0x1e8>
 80041d6:	2001      	movs	r0, #1
 80041d8:	e7f1      	b.n	80041be <HAL_PCD_Init+0x1ea>
 80041da:	22aa      	movs	r2, #170	@ 0xaa
 80041dc:	0052      	lsls	r2, r2, #1
 80041de:	52a3      	strh	r3, [r4, r2]
 80041e0:	2258      	movs	r2, #88	@ 0x58
 80041e2:	2100      	movs	r1, #0
 80041e4:	32ff      	adds	r2, #255	@ 0xff
 80041e6:	e7d1      	b.n	800418c <HAL_PCD_Init+0x1b8>
 80041e8:	00000295 	.word	0x00000295
 80041ec:	0000021f 	.word	0x0000021f
 80041f0:	00000247 	.word	0x00000247
 80041f4:	0000026f 	.word	0x0000026f

080041f8 <HAL_PCD_Start>:
 80041f8:	b570      	push	{r4, r5, r6, lr}
 80041fa:	25a5      	movs	r5, #165	@ 0xa5
 80041fc:	00ad      	lsls	r5, r5, #2
 80041fe:	5d43      	ldrb	r3, [r0, r5]
 8004200:	0004      	movs	r4, r0
 8004202:	2b01      	cmp	r3, #1
 8004204:	d00b      	beq.n	800421e <HAL_PCD_Start+0x26>
 8004206:	2301      	movs	r3, #1
 8004208:	5543      	strb	r3, [r0, r5]
 800420a:	6800      	ldr	r0, [r0, #0]
 800420c:	f003 f932 	bl	8007474 <USB_EnableGlobalInt>
 8004210:	6820      	ldr	r0, [r4, #0]
 8004212:	f003 ff41 	bl	8008098 <USB_DevConnect>
 8004216:	2300      	movs	r3, #0
 8004218:	2000      	movs	r0, #0
 800421a:	5563      	strb	r3, [r4, r5]
 800421c:	bd70      	pop	{r4, r5, r6, pc}
 800421e:	2002      	movs	r0, #2
 8004220:	e7fc      	b.n	800421c <HAL_PCD_Start+0x24>
 8004222:	46c0      	nop			@ (mov r8, r8)

08004224 <HAL_PCD_IRQHandler>:
 8004224:	b5f0      	push	{r4, r5, r6, r7, lr}
 8004226:	46de      	mov	lr, fp
 8004228:	4657      	mov	r7, sl
 800422a:	464e      	mov	r6, r9
 800422c:	4645      	mov	r5, r8
 800422e:	b5e0      	push	{r5, r6, r7, lr}
 8004230:	0004      	movs	r4, r0
 8004232:	b091      	sub	sp, #68	@ 0x44
 8004234:	6800      	ldr	r0, [r0, #0]
 8004236:	f003 ff37 	bl	80080a8 <USB_ReadInterrupts>
 800423a:	23a0      	movs	r3, #160	@ 0xa0
 800423c:	4ac8      	ldr	r2, [pc, #800]	@ (8004560 <HAL_PCD_IRQHandler+0x33c>)
 800423e:	58d3      	ldr	r3, [r2, r3]
 8004240:	2204      	movs	r2, #4
 8004242:	421a      	tst	r2, r3
 8004244:	d020      	beq.n	8004288 <HAL_PCD_IRQHandler+0x64>
 8004246:	2380      	movs	r3, #128	@ 0x80
 8004248:	021b      	lsls	r3, r3, #8
 800424a:	001d      	movs	r5, r3
 800424c:	4698      	mov	r8, r3
 800424e:	4005      	ands	r5, r0
 8004250:	4218      	tst	r0, r3
 8004252:	d142      	bne.n	80042da <HAL_PCD_IRQHandler+0xb6>
 8004254:	0543      	lsls	r3, r0, #21
 8004256:	d41e      	bmi.n	8004296 <HAL_PCD_IRQHandler+0x72>
 8004258:	0443      	lsls	r3, r0, #17
 800425a:	d438      	bmi.n	80042ce <HAL_PCD_IRQHandler+0xaa>
 800425c:	2380      	movs	r3, #128	@ 0x80
 800425e:	0005      	movs	r5, r0
 8004260:	019b      	lsls	r3, r3, #6
 8004262:	401d      	ands	r5, r3
 8004264:	4218      	tst	r0, r3
 8004266:	d12c      	bne.n	80042c2 <HAL_PCD_IRQHandler+0x9e>
 8004268:	04c3      	lsls	r3, r0, #19
 800426a:	d500      	bpl.n	800426e <HAL_PCD_IRQHandler+0x4a>
 800426c:	e1ad      	b.n	80045ca <HAL_PCD_IRQHandler+0x3a6>
 800426e:	0503      	lsls	r3, r0, #20
 8004270:	d500      	bpl.n	8004274 <HAL_PCD_IRQHandler+0x50>
 8004272:	e3a1      	b.n	80049b8 <HAL_PCD_IRQHandler+0x794>
 8004274:	0603      	lsls	r3, r0, #24
 8004276:	d500      	bpl.n	800427a <HAL_PCD_IRQHandler+0x56>
 8004278:	e37f      	b.n	800497a <HAL_PCD_IRQHandler+0x756>
 800427a:	0583      	lsls	r3, r0, #22
 800427c:	d501      	bpl.n	8004282 <HAL_PCD_IRQHandler+0x5e>
 800427e:	f000 fc5d 	bl	8004b3c <HAL_PCD_IRQHandler+0x918>
 8004282:	05c0      	lsls	r0, r0, #23
 8004284:	d500      	bpl.n	8004288 <HAL_PCD_IRQHandler+0x64>
 8004286:	e2fd      	b.n	8004884 <HAL_PCD_IRQHandler+0x660>
 8004288:	b011      	add	sp, #68	@ 0x44
 800428a:	bcf0      	pop	{r4, r5, r6, r7}
 800428c:	46bb      	mov	fp, r7
 800428e:	46b2      	mov	sl, r6
 8004290:	46a9      	mov	r9, r5
 8004292:	46a0      	mov	r8, r4
 8004294:	bdf0      	pop	{r4, r5, r6, r7, pc}
 8004296:	26a5      	movs	r6, #165	@ 0xa5
 8004298:	6822      	ldr	r2, [r4, #0]
 800429a:	49b2      	ldr	r1, [pc, #712]	@ (8004564 <HAL_PCD_IRQHandler+0x340>)
 800429c:	6c53      	ldr	r3, [r2, #68]	@ 0x44
 800429e:	0020      	movs	r0, r4
 80042a0:	400b      	ands	r3, r1
 80042a2:	6453      	str	r3, [r2, #68]	@ 0x44
 80042a4:	00b6      	lsls	r6, r6, #2
 80042a6:	f005 f8fb 	bl	80094a0 <HAL_PCD_ResetCallback>
 80042aa:	5da3      	ldrb	r3, [r4, r6]
 80042ac:	2b01      	cmp	r3, #1
 80042ae:	d0eb      	beq.n	8004288 <HAL_PCD_IRQHandler+0x64>
 80042b0:	2301      	movs	r3, #1
 80042b2:	55a3      	strb	r3, [r4, r6]
 80042b4:	2100      	movs	r1, #0
 80042b6:	6820      	ldr	r0, [r4, #0]
 80042b8:	7465      	strb	r5, [r4, #17]
 80042ba:	f003 fee7 	bl	800808c <USB_SetDevAddress>
 80042be:	55a5      	strb	r5, [r4, r6]
 80042c0:	e7e2      	b.n	8004288 <HAL_PCD_IRQHandler+0x64>
 80042c2:	6822      	ldr	r2, [r4, #0]
 80042c4:	49a8      	ldr	r1, [pc, #672]	@ (8004568 <HAL_PCD_IRQHandler+0x344>)
 80042c6:	6c53      	ldr	r3, [r2, #68]	@ 0x44
 80042c8:	400b      	ands	r3, r1
 80042ca:	6453      	str	r3, [r2, #68]	@ 0x44
 80042cc:	e7dc      	b.n	8004288 <HAL_PCD_IRQHandler+0x64>
 80042ce:	6822      	ldr	r2, [r4, #0]
 80042d0:	49a6      	ldr	r1, [pc, #664]	@ (800456c <HAL_PCD_IRQHandler+0x348>)
 80042d2:	6c53      	ldr	r3, [r2, #68]	@ 0x44
 80042d4:	400b      	ands	r3, r1
 80042d6:	6453      	str	r3, [r2, #68]	@ 0x44
 80042d8:	e7d6      	b.n	8004288 <HAL_PCD_IRQHandler+0x64>
 80042da:	4642      	mov	r2, r8
 80042dc:	6820      	ldr	r0, [r4, #0]
 80042de:	6c43      	ldr	r3, [r0, #68]	@ 0x44
 80042e0:	4213      	tst	r3, r2
 80042e2:	d0d1      	beq.n	8004288 <HAL_PCD_IRQHandler+0x64>
 80042e4:	230f      	movs	r3, #15
 80042e6:	469a      	mov	sl, r3
 80042e8:	3371      	adds	r3, #113	@ 0x71
 80042ea:	469b      	mov	fp, r3
 80042ec:	e00d      	b.n	800430a <HAL_PCD_IRQHandler+0xe6>
 80042ee:	06db      	lsls	r3, r3, #27
 80042f0:	d400      	bmi.n	80042f4 <HAL_PCD_IRQHandler+0xd0>
 80042f2:	e0b8      	b.n	8004466 <HAL_PCD_IRQHandler+0x242>
 80042f4:	6803      	ldr	r3, [r0, #0]
 80042f6:	051a      	lsls	r2, r3, #20
 80042f8:	d500      	bpl.n	80042fc <HAL_PCD_IRQHandler+0xd8>
 80042fa:	e0d9      	b.n	80044b0 <HAL_PCD_IRQHandler+0x28c>
 80042fc:	041b      	lsls	r3, r3, #16
 80042fe:	d500      	bpl.n	8004302 <HAL_PCD_IRQHandler+0xde>
 8004300:	e217      	b.n	8004732 <HAL_PCD_IRQHandler+0x50e>
 8004302:	4642      	mov	r2, r8
 8004304:	6c43      	ldr	r3, [r0, #68]	@ 0x44
 8004306:	4213      	tst	r3, r2
 8004308:	d0be      	beq.n	8004288 <HAL_PCD_IRQHandler+0x64>
 800430a:	4657      	mov	r7, sl
 800430c:	4652      	mov	r2, sl
 800430e:	6c43      	ldr	r3, [r0, #68]	@ 0x44
 8004310:	401f      	ands	r7, r3
 8004312:	421a      	tst	r2, r3
 8004314:	d0eb      	beq.n	80042ee <HAL_PCD_IRQHandler+0xca>
 8004316:	00bb      	lsls	r3, r7, #2
 8004318:	18c2      	adds	r2, r0, r3
 800431a:	6815      	ldr	r5, [r2, #0]
 800431c:	4699      	mov	r9, r3
 800431e:	b2ab      	uxth	r3, r5
 8004320:	9301      	str	r3, [sp, #4]
 8004322:	042b      	lsls	r3, r5, #16
 8004324:	d43a      	bmi.n	800439c <HAL_PCD_IRQHandler+0x178>
 8004326:	465b      	mov	r3, fp
 8004328:	422b      	tst	r3, r5
 800432a:	d0ea      	beq.n	8004302 <HAL_PCD_IRQHandler+0xde>
 800432c:	464b      	mov	r3, r9
 800432e:	18c2      	adds	r2, r0, r3
 8004330:	6813      	ldr	r3, [r2, #0]
 8004332:	498f      	ldr	r1, [pc, #572]	@ (8004570 <HAL_PCD_IRQHandler+0x34c>)
 8004334:	400b      	ands	r3, r1
 8004336:	4641      	mov	r1, r8
 8004338:	430b      	orrs	r3, r1
 800433a:	6013      	str	r3, [r2, #0]
 800433c:	464b      	mov	r3, r9
 800433e:	19da      	adds	r2, r3, r7
 8004340:	00d2      	lsls	r2, r2, #3
 8004342:	18a3      	adds	r3, r4, r2
 8004344:	7dd9      	ldrb	r1, [r3, #23]
 8004346:	2901      	cmp	r1, #1
 8004348:	d100      	bne.n	800434c <HAL_PCD_IRQHandler+0x128>
 800434a:	e0dd      	b.n	8004508 <HAL_PCD_IRQHandler+0x2e4>
 800434c:	7d19      	ldrb	r1, [r3, #20]
 800434e:	00ce      	lsls	r6, r1, #3
 8004350:	9104      	str	r1, [sp, #16]
 8004352:	4988      	ldr	r1, [pc, #544]	@ (8004574 <HAL_PCD_IRQHandler+0x350>)
 8004354:	468c      	mov	ip, r1
 8004356:	0031      	movs	r1, r6
 8004358:	4461      	add	r1, ip
 800435a:	9102      	str	r1, [sp, #8]
 800435c:	2180      	movs	r1, #128	@ 0x80
 800435e:	6ade      	ldr	r6, [r3, #44]	@ 0x2c
 8004360:	0049      	lsls	r1, r1, #1
 8004362:	9603      	str	r6, [sp, #12]
 8004364:	000e      	movs	r6, r1
 8004366:	402e      	ands	r6, r5
 8004368:	9605      	str	r6, [sp, #20]
 800436a:	420d      	tst	r5, r1
 800436c:	d000      	beq.n	8004370 <HAL_PCD_IRQHandler+0x14c>
 800436e:	e169      	b.n	8004644 <HAL_PCD_IRQHandler+0x420>
 8004370:	9902      	ldr	r1, [sp, #8]
 8004372:	9e03      	ldr	r6, [sp, #12]
 8004374:	680d      	ldr	r5, [r1, #0]
 8004376:	01ad      	lsls	r5, r5, #6
 8004378:	0dad      	lsrs	r5, r5, #22
 800437a:	42b5      	cmp	r5, r6
 800437c:	d300      	bcc.n	8004380 <HAL_PCD_IRQHandler+0x15c>
 800437e:	e159      	b.n	8004634 <HAL_PCD_IRQHandler+0x410>
 8004380:	6a99      	ldr	r1, [r3, #40]	@ 0x28
 8004382:	3214      	adds	r2, #20
 8004384:	1949      	adds	r1, r1, r5
 8004386:	6299      	str	r1, [r3, #40]	@ 0x28
 8004388:	6b19      	ldr	r1, [r3, #48]	@ 0x30
 800438a:	1b77      	subs	r7, r6, r5
 800438c:	1949      	adds	r1, r1, r5
 800438e:	6319      	str	r1, [r3, #48]	@ 0x30
 8004390:	62df      	str	r7, [r3, #44]	@ 0x2c
 8004392:	18a1      	adds	r1, r4, r2
 8004394:	f003 fa4c 	bl	8007830 <USB_EPStartXfer>
 8004398:	6820      	ldr	r0, [r4, #0]
 800439a:	e7b2      	b.n	8004302 <HAL_PCD_IRQHandler+0xde>
 800439c:	6813      	ldr	r3, [r2, #0]
 800439e:	4976      	ldr	r1, [pc, #472]	@ (8004578 <HAL_PCD_IRQHandler+0x354>)
 80043a0:	400b      	ands	r3, r1
 80043a2:	4659      	mov	r1, fp
 80043a4:	430b      	orrs	r3, r1
 80043a6:	6013      	str	r3, [r2, #0]
 80043a8:	464b      	mov	r3, r9
 80043aa:	19db      	adds	r3, r3, r7
 80043ac:	00db      	lsls	r3, r3, #3
 80043ae:	18e3      	adds	r3, r4, r3
 80043b0:	001a      	movs	r2, r3
 80043b2:	3261      	adds	r2, #97	@ 0x61
 80043b4:	32ff      	adds	r2, #255	@ 0xff
 80043b6:	7812      	ldrb	r2, [r2, #0]
 80043b8:	2a00      	cmp	r2, #0
 80043ba:	d100      	bne.n	80043be <HAL_PCD_IRQHandler+0x19a>
 80043bc:	e11c      	b.n	80045f8 <HAL_PCD_IRQHandler+0x3d4>
 80043be:	0019      	movs	r1, r3
 80043c0:	3358      	adds	r3, #88	@ 0x58
 80043c2:	33ff      	adds	r3, #255	@ 0xff
 80043c4:	3155      	adds	r1, #85	@ 0x55
 80043c6:	781b      	ldrb	r3, [r3, #0]
 80043c8:	31ff      	adds	r1, #255	@ 0xff
 80043ca:	780a      	ldrb	r2, [r1, #0]
 80043cc:	2b02      	cmp	r3, #2
 80043ce:	d100      	bne.n	80043d2 <HAL_PCD_IRQHandler+0x1ae>
 80043d0:	e27e      	b.n	80048d0 <HAL_PCD_IRQHandler+0x6ac>
 80043d2:	0092      	lsls	r2, r2, #2
 80043d4:	1882      	adds	r2, r0, r2
 80043d6:	6816      	ldr	r6, [r2, #0]
 80043d8:	4b68      	ldr	r3, [pc, #416]	@ (800457c <HAL_PCD_IRQHandler+0x358>)
 80043da:	401e      	ands	r6, r3
 80043dc:	4b68      	ldr	r3, [pc, #416]	@ (8004580 <HAL_PCD_IRQHandler+0x35c>)
 80043de:	4333      	orrs	r3, r6
 80043e0:	6013      	str	r3, [r2, #0]
 80043e2:	780a      	ldrb	r2, [r1, #0]
 80043e4:	0093      	lsls	r3, r2, #2
 80043e6:	18c3      	adds	r3, r0, r3
 80043e8:	681b      	ldr	r3, [r3, #0]
 80043ea:	045b      	lsls	r3, r3, #17
 80043ec:	d400      	bmi.n	80043f0 <HAL_PCD_IRQHandler+0x1cc>
 80043ee:	e0c9      	b.n	8004584 <HAL_PCD_IRQHandler+0x360>
 80043f0:	230a      	movs	r3, #10
 80043f2:	9308      	str	r3, [sp, #32]
 80043f4:	9b08      	ldr	r3, [sp, #32]
 80043f6:	2b00      	cmp	r3, #0
 80043f8:	d005      	beq.n	8004406 <HAL_PCD_IRQHandler+0x1e2>
 80043fa:	9b08      	ldr	r3, [sp, #32]
 80043fc:	3b01      	subs	r3, #1
 80043fe:	9308      	str	r3, [sp, #32]
 8004400:	9b08      	ldr	r3, [sp, #32]
 8004402:	2b00      	cmp	r3, #0
 8004404:	d1f9      	bne.n	80043fa <HAL_PCD_IRQHandler+0x1d6>
 8004406:	4b5b      	ldr	r3, [pc, #364]	@ (8004574 <HAL_PCD_IRQHandler+0x350>)
 8004408:	00d2      	lsls	r2, r2, #3
 800440a:	469c      	mov	ip, r3
 800440c:	4462      	add	r2, ip
 800440e:	6816      	ldr	r6, [r2, #0]
 8004410:	01b6      	lsls	r6, r6, #6
 8004412:	0db6      	lsrs	r6, r6, #22
 8004414:	d000      	beq.n	8004418 <HAL_PCD_IRQHandler+0x1f4>
 8004416:	e22e      	b.n	8004876 <HAL_PCD_IRQHandler+0x652>
 8004418:	2600      	movs	r6, #0
 800441a:	464b      	mov	r3, r9
 800441c:	19d9      	adds	r1, r3, r7
 800441e:	00c9      	lsls	r1, r1, #3
 8004420:	1863      	adds	r3, r4, r1
 8004422:	0018      	movs	r0, r3
 8004424:	3071      	adds	r0, #113	@ 0x71
 8004426:	30ff      	adds	r0, #255	@ 0xff
 8004428:	6802      	ldr	r2, [r0, #0]
 800442a:	3808      	subs	r0, #8
 800442c:	1992      	adds	r2, r2, r6
 800442e:	6082      	str	r2, [r0, #8]
 8004430:	6802      	ldr	r2, [r0, #0]
 8004432:	1992      	adds	r2, r2, r6
 8004434:	6002      	str	r2, [r0, #0]
 8004436:	001a      	movs	r2, r3
 8004438:	326d      	adds	r2, #109	@ 0x6d
 800443a:	32ff      	adds	r2, #255	@ 0xff
 800443c:	6812      	ldr	r2, [r2, #0]
 800443e:	2a00      	cmp	r2, #0
 8004440:	d005      	beq.n	800444e <HAL_PCD_IRQHandler+0x22a>
 8004442:	3365      	adds	r3, #101	@ 0x65
 8004444:	33ff      	adds	r3, #255	@ 0xff
 8004446:	681b      	ldr	r3, [r3, #0]
 8004448:	42b3      	cmp	r3, r6
 800444a:	d800      	bhi.n	800444e <HAL_PCD_IRQHandler+0x22a>
 800444c:	e226      	b.n	800489c <HAL_PCD_IRQHandler+0x678>
 800444e:	464b      	mov	r3, r9
 8004450:	19db      	adds	r3, r3, r7
 8004452:	00db      	lsls	r3, r3, #3
 8004454:	18e3      	adds	r3, r4, r3
 8004456:	3355      	adds	r3, #85	@ 0x55
 8004458:	33ff      	adds	r3, #255	@ 0xff
 800445a:	0020      	movs	r0, r4
 800445c:	7819      	ldrb	r1, [r3, #0]
 800445e:	f004 fffd 	bl	800945c <HAL_PCD_DataOutStageCallback>
 8004462:	6820      	ldr	r0, [r4, #0]
 8004464:	e75f      	b.n	8004326 <HAL_PCD_IRQHandler+0x102>
 8004466:	6803      	ldr	r3, [r0, #0]
 8004468:	4a41      	ldr	r2, [pc, #260]	@ (8004570 <HAL_PCD_IRQHandler+0x34c>)
 800446a:	2100      	movs	r1, #0
 800446c:	4013      	ands	r3, r2
 800446e:	4642      	mov	r2, r8
 8004470:	4313      	orrs	r3, r2
 8004472:	4a40      	ldr	r2, [pc, #256]	@ (8004574 <HAL_PCD_IRQHandler+0x350>)
 8004474:	6003      	str	r3, [r0, #0]
 8004476:	4694      	mov	ip, r2
 8004478:	7d23      	ldrb	r3, [r4, #20]
 800447a:	6aa2      	ldr	r2, [r4, #40]	@ 0x28
 800447c:	00db      	lsls	r3, r3, #3
 800447e:	4463      	add	r3, ip
 8004480:	681b      	ldr	r3, [r3, #0]
 8004482:	0020      	movs	r0, r4
 8004484:	019b      	lsls	r3, r3, #6
 8004486:	0d9b      	lsrs	r3, r3, #22
 8004488:	6323      	str	r3, [r4, #48]	@ 0x30
 800448a:	18d3      	adds	r3, r2, r3
 800448c:	62a3      	str	r3, [r4, #40]	@ 0x28
 800448e:	f004 fff3 	bl	8009478 <HAL_PCD_DataInStageCallback>
 8004492:	7c63      	ldrb	r3, [r4, #17]
 8004494:	6820      	ldr	r0, [r4, #0]
 8004496:	2b00      	cmp	r3, #0
 8004498:	d100      	bne.n	800449c <HAL_PCD_IRQHandler+0x278>
 800449a:	e732      	b.n	8004302 <HAL_PCD_IRQHandler+0xde>
 800449c:	6ae3      	ldr	r3, [r4, #44]	@ 0x2c
 800449e:	2b00      	cmp	r3, #0
 80044a0:	d000      	beq.n	80044a4 <HAL_PCD_IRQHandler+0x280>
 80044a2:	e72e      	b.n	8004302 <HAL_PCD_IRQHandler+0xde>
 80044a4:	2180      	movs	r1, #128	@ 0x80
 80044a6:	7c62      	ldrb	r2, [r4, #17]
 80044a8:	430a      	orrs	r2, r1
 80044aa:	64c2      	str	r2, [r0, #76]	@ 0x4c
 80044ac:	7463      	strb	r3, [r4, #17]
 80044ae:	e728      	b.n	8004302 <HAL_PCD_IRQHandler+0xde>
 80044b0:	23aa      	movs	r3, #170	@ 0xaa
 80044b2:	005b      	lsls	r3, r3, #1
 80044b4:	5ce2      	ldrb	r2, [r4, r3]
 80044b6:	3b4b      	subs	r3, #75	@ 0x4b
 80044b8:	3bff      	subs	r3, #255	@ 0xff
 80044ba:	930b      	str	r3, [sp, #44]	@ 0x2c
 80044bc:	9b0b      	ldr	r3, [sp, #44]	@ 0x2c
 80044be:	2b00      	cmp	r3, #0
 80044c0:	d005      	beq.n	80044ce <HAL_PCD_IRQHandler+0x2aa>
 80044c2:	9b0b      	ldr	r3, [sp, #44]	@ 0x2c
 80044c4:	3b01      	subs	r3, #1
 80044c6:	930b      	str	r3, [sp, #44]	@ 0x2c
 80044c8:	9b0b      	ldr	r3, [sp, #44]	@ 0x2c
 80044ca:	2b00      	cmp	r3, #0
 80044cc:	d1f9      	bne.n	80044c2 <HAL_PCD_IRQHandler+0x29e>
 80044ce:	4b29      	ldr	r3, [pc, #164]	@ (8004574 <HAL_PCD_IRQHandler+0x350>)
 80044d0:	00d2      	lsls	r2, r2, #3
 80044d2:	469c      	mov	ip, r3
 80044d4:	4462      	add	r2, ip
 80044d6:	6853      	ldr	r3, [r2, #4]
 80044d8:	0022      	movs	r2, r4
 80044da:	21a7      	movs	r1, #167	@ 0xa7
 80044dc:	019b      	lsls	r3, r3, #6
 80044de:	3255      	adds	r2, #85	@ 0x55
 80044e0:	0d9b      	lsrs	r3, r3, #22
 80044e2:	32ff      	adds	r2, #255	@ 0xff
 80044e4:	0089      	lsls	r1, r1, #2
 80044e6:	61d3      	str	r3, [r2, #28]
 80044e8:	1861      	adds	r1, r4, r1
 80044ea:	88d2      	ldrh	r2, [r2, #6]
 80044ec:	f003 fe14 	bl	8008118 <USB_ReadPMA>
 80044f0:	6822      	ldr	r2, [r4, #0]
 80044f2:	4921      	ldr	r1, [pc, #132]	@ (8004578 <HAL_PCD_IRQHandler+0x354>)
 80044f4:	6813      	ldr	r3, [r2, #0]
 80044f6:	0020      	movs	r0, r4
 80044f8:	400b      	ands	r3, r1
 80044fa:	2180      	movs	r1, #128	@ 0x80
 80044fc:	430b      	orrs	r3, r1
 80044fe:	6013      	str	r3, [r2, #0]
 8004500:	f004 ffa2 	bl	8009448 <HAL_PCD_SetupStageCallback>
 8004504:	6820      	ldr	r0, [r4, #0]
 8004506:	e6fc      	b.n	8004302 <HAL_PCD_IRQHandler+0xde>
 8004508:	1c79      	adds	r1, r7, #1
 800450a:	008a      	lsls	r2, r1, #2
 800450c:	1852      	adds	r2, r2, r1
 800450e:	2100      	movs	r1, #0
 8004510:	00d2      	lsls	r2, r2, #3
 8004512:	18a2      	adds	r2, r4, r2
 8004514:	6051      	str	r1, [r2, #4]
 8004516:	001a      	movs	r2, r3
 8004518:	3220      	adds	r2, #32
 800451a:	7812      	ldrb	r2, [r2, #0]
 800451c:	2a00      	cmp	r2, #0
 800451e:	d014      	beq.n	800454a <HAL_PCD_IRQHandler+0x326>
 8004520:	7d5a      	ldrb	r2, [r3, #21]
 8004522:	066d      	lsls	r5, r5, #25
 8004524:	d400      	bmi.n	8004528 <HAL_PCD_IRQHandler+0x304>
 8004526:	e257      	b.n	80049d8 <HAL_PCD_IRQHandler+0x7b4>
 8004528:	2a00      	cmp	r2, #0
 800452a:	d000      	beq.n	800452e <HAL_PCD_IRQHandler+0x30a>
 800452c:	e310      	b.n	8004b50 <HAL_PCD_IRQHandler+0x92c>
 800452e:	4a11      	ldr	r2, [pc, #68]	@ (8004574 <HAL_PCD_IRQHandler+0x350>)
 8004530:	7d1b      	ldrb	r3, [r3, #20]
 8004532:	4694      	mov	ip, r2
 8004534:	00db      	lsls	r3, r3, #3
 8004536:	4463      	add	r3, ip
 8004538:	681a      	ldr	r2, [r3, #0]
 800453a:	0192      	lsls	r2, r2, #6
 800453c:	0992      	lsrs	r2, r2, #6
 800453e:	601a      	str	r2, [r3, #0]
 8004540:	2280      	movs	r2, #128	@ 0x80
 8004542:	6819      	ldr	r1, [r3, #0]
 8004544:	0612      	lsls	r2, r2, #24
 8004546:	430a      	orrs	r2, r1
 8004548:	601a      	str	r2, [r3, #0]
 800454a:	003b      	movs	r3, r7
 800454c:	444b      	add	r3, r9
 800454e:	00db      	lsls	r3, r3, #3
 8004550:	18e3      	adds	r3, r4, r3
 8004552:	0020      	movs	r0, r4
 8004554:	7d19      	ldrb	r1, [r3, #20]
 8004556:	f004 ff8f 	bl	8009478 <HAL_PCD_DataInStageCallback>
 800455a:	6820      	ldr	r0, [r4, #0]
 800455c:	e6d1      	b.n	8004302 <HAL_PCD_IRQHandler+0xde>
 800455e:	46c0      	nop			@ (mov r8, r8)
 8004560:	40010000 	.word	0x40010000
 8004564:	0000fbff 	.word	0x0000fbff
 8004568:	0000dfff 	.word	0x0000dfff
 800456c:	0000bfff 	.word	0x0000bfff
 8004570:	07ff8f0f 	.word	0x07ff8f0f
 8004574:	40009800 	.word	0x40009800
 8004578:	07ff0f8f 	.word	0x07ff0f8f
 800457c:	07ff8f8f 	.word	0x07ff8f8f
 8004580:	000080c0 	.word	0x000080c0
 8004584:	230a      	movs	r3, #10
 8004586:	9307      	str	r3, [sp, #28]
 8004588:	9b07      	ldr	r3, [sp, #28]
 800458a:	2b00      	cmp	r3, #0
 800458c:	d005      	beq.n	800459a <HAL_PCD_IRQHandler+0x376>
 800458e:	9b07      	ldr	r3, [sp, #28]
 8004590:	3b01      	subs	r3, #1
 8004592:	9307      	str	r3, [sp, #28]
 8004594:	9b07      	ldr	r3, [sp, #28]
 8004596:	2b00      	cmp	r3, #0
 8004598:	d1f9      	bne.n	800458e <HAL_PCD_IRQHandler+0x36a>
 800459a:	4bc4      	ldr	r3, [pc, #784]	@ (80048ac <HAL_PCD_IRQHandler+0x688>)
 800459c:	00d2      	lsls	r2, r2, #3
 800459e:	469c      	mov	ip, r3
 80045a0:	4462      	add	r2, ip
 80045a2:	6856      	ldr	r6, [r2, #4]
 80045a4:	01b6      	lsls	r6, r6, #6
 80045a6:	0db6      	lsrs	r6, r6, #22
 80045a8:	d100      	bne.n	80045ac <HAL_PCD_IRQHandler+0x388>
 80045aa:	e735      	b.n	8004418 <HAL_PCD_IRQHandler+0x1f4>
 80045ac:	464b      	mov	r3, r9
 80045ae:	19db      	adds	r3, r3, r7
 80045b0:	00db      	lsls	r3, r3, #3
 80045b2:	18e3      	adds	r3, r4, r3
 80045b4:	001a      	movs	r2, r3
 80045b6:	325f      	adds	r2, #95	@ 0x5f
 80045b8:	3369      	adds	r3, #105	@ 0x69
 80045ba:	33ff      	adds	r3, #255	@ 0xff
 80045bc:	32ff      	adds	r2, #255	@ 0xff
 80045be:	6819      	ldr	r1, [r3, #0]
 80045c0:	8812      	ldrh	r2, [r2, #0]
 80045c2:	0033      	movs	r3, r6
 80045c4:	f003 fda8 	bl	8008118 <USB_ReadPMA>
 80045c8:	e727      	b.n	800441a <HAL_PCD_IRQHandler+0x1f6>
 80045ca:	6823      	ldr	r3, [r4, #0]
 80045cc:	6c19      	ldr	r1, [r3, #64]	@ 0x40
 80045ce:	4391      	bics	r1, r2
 80045d0:	6419      	str	r1, [r3, #64]	@ 0x40
 80045d2:	2108      	movs	r1, #8
 80045d4:	6c1a      	ldr	r2, [r3, #64]	@ 0x40
 80045d6:	438a      	bics	r2, r1
 80045d8:	641a      	str	r2, [r3, #64]	@ 0x40
 80045da:	23b3      	movs	r3, #179	@ 0xb3
 80045dc:	009b      	lsls	r3, r3, #2
 80045de:	5ce2      	ldrb	r2, [r4, r3]
 80045e0:	2a01      	cmp	r2, #1
 80045e2:	d100      	bne.n	80045e6 <HAL_PCD_IRQHandler+0x3c2>
 80045e4:	e154      	b.n	8004890 <HAL_PCD_IRQHandler+0x66c>
 80045e6:	0020      	movs	r0, r4
 80045e8:	f004 ff7e 	bl	80094e8 <HAL_PCD_ResumeCallback>
 80045ec:	6822      	ldr	r2, [r4, #0]
 80045ee:	49b0      	ldr	r1, [pc, #704]	@ (80048b0 <HAL_PCD_IRQHandler+0x68c>)
 80045f0:	6c53      	ldr	r3, [r2, #68]	@ 0x44
 80045f2:	400b      	ands	r3, r1
 80045f4:	6453      	str	r3, [r2, #68]	@ 0x44
 80045f6:	e647      	b.n	8004288 <HAL_PCD_IRQHandler+0x64>
 80045f8:	3355      	adds	r3, #85	@ 0x55
 80045fa:	33ff      	adds	r3, #255	@ 0xff
 80045fc:	781a      	ldrb	r2, [r3, #0]
 80045fe:	230a      	movs	r3, #10
 8004600:	9309      	str	r3, [sp, #36]	@ 0x24
 8004602:	9b09      	ldr	r3, [sp, #36]	@ 0x24
 8004604:	2b00      	cmp	r3, #0
 8004606:	d005      	beq.n	8004614 <HAL_PCD_IRQHandler+0x3f0>
 8004608:	9b09      	ldr	r3, [sp, #36]	@ 0x24
 800460a:	3b01      	subs	r3, #1
 800460c:	9309      	str	r3, [sp, #36]	@ 0x24
 800460e:	9b09      	ldr	r3, [sp, #36]	@ 0x24
 8004610:	2b00      	cmp	r3, #0
 8004612:	d1f9      	bne.n	8004608 <HAL_PCD_IRQHandler+0x3e4>
 8004614:	4ba5      	ldr	r3, [pc, #660]	@ (80048ac <HAL_PCD_IRQHandler+0x688>)
 8004616:	00d2      	lsls	r2, r2, #3
 8004618:	469c      	mov	ip, r3
 800461a:	4462      	add	r2, ip
 800461c:	6856      	ldr	r6, [r2, #4]
 800461e:	01b6      	lsls	r6, r6, #6
 8004620:	0db6      	lsrs	r6, r6, #22
 8004622:	d100      	bne.n	8004626 <HAL_PCD_IRQHandler+0x402>
 8004624:	e6f8      	b.n	8004418 <HAL_PCD_IRQHandler+0x1f4>
 8004626:	464b      	mov	r3, r9
 8004628:	19db      	adds	r3, r3, r7
 800462a:	00db      	lsls	r3, r3, #3
 800462c:	18e3      	adds	r3, r4, r3
 800462e:	001a      	movs	r2, r3
 8004630:	325b      	adds	r2, #91	@ 0x5b
 8004632:	e7c1      	b.n	80045b8 <HAL_PCD_IRQHandler+0x394>
 8004634:	9a05      	ldr	r2, [sp, #20]
 8004636:	0020      	movs	r0, r4
 8004638:	9904      	ldr	r1, [sp, #16]
 800463a:	62da      	str	r2, [r3, #44]	@ 0x2c
 800463c:	f004 ff1c 	bl	8009478 <HAL_PCD_DataInStageCallback>
 8004640:	6820      	ldr	r0, [r4, #0]
 8004642:	e65e      	b.n	8004302 <HAL_PCD_IRQHandler+0xde>
 8004644:	9a01      	ldr	r2, [sp, #4]
 8004646:	0652      	lsls	r2, r2, #25
 8004648:	d400      	bmi.n	800464c <HAL_PCD_IRQHandler+0x428>
 800464a:	e0cd      	b.n	80047e8 <HAL_PCD_IRQHandler+0x5c4>
 800464c:	220a      	movs	r2, #10
 800464e:	920f      	str	r2, [sp, #60]	@ 0x3c
 8004650:	9a0f      	ldr	r2, [sp, #60]	@ 0x3c
 8004652:	2a00      	cmp	r2, #0
 8004654:	d009      	beq.n	800466a <HAL_PCD_IRQHandler+0x446>
 8004656:	9904      	ldr	r1, [sp, #16]
 8004658:	9e02      	ldr	r6, [sp, #8]
 800465a:	9a0f      	ldr	r2, [sp, #60]	@ 0x3c
 800465c:	3a01      	subs	r2, #1
 800465e:	920f      	str	r2, [sp, #60]	@ 0x3c
 8004660:	9a0f      	ldr	r2, [sp, #60]	@ 0x3c
 8004662:	2a00      	cmp	r2, #0
 8004664:	d1f9      	bne.n	800465a <HAL_PCD_IRQHandler+0x436>
 8004666:	9104      	str	r1, [sp, #16]
 8004668:	9602      	str	r6, [sp, #8]
 800466a:	2580      	movs	r5, #128	@ 0x80
 800466c:	9a02      	ldr	r2, [sp, #8]
 800466e:	9901      	ldr	r1, [sp, #4]
 8004670:	01ed      	lsls	r5, r5, #7
 8004672:	4029      	ands	r1, r5
 8004674:	6812      	ldr	r2, [r2, #0]
 8004676:	000d      	movs	r5, r1
 8004678:	9903      	ldr	r1, [sp, #12]
 800467a:	0192      	lsls	r2, r2, #6
 800467c:	0d92      	lsrs	r2, r2, #22
 800467e:	428a      	cmp	r2, r1
 8004680:	d300      	bcc.n	8004684 <HAL_PCD_IRQHandler+0x460>
 8004682:	e239      	b.n	8004af8 <HAL_PCD_IRQHandler+0x8d4>
 8004684:	1a89      	subs	r1, r1, r2
 8004686:	62d9      	str	r1, [r3, #44]	@ 0x2c
 8004688:	2d00      	cmp	r5, #0
 800468a:	d00a      	beq.n	80046a2 <HAL_PCD_IRQHandler+0x47e>
 800468c:	9904      	ldr	r1, [sp, #16]
 800468e:	0089      	lsls	r1, r1, #2
 8004690:	1841      	adds	r1, r0, r1
 8004692:	680d      	ldr	r5, [r1, #0]
 8004694:	46ac      	mov	ip, r5
 8004696:	4666      	mov	r6, ip
 8004698:	4d86      	ldr	r5, [pc, #536]	@ (80048b4 <HAL_PCD_IRQHandler+0x690>)
 800469a:	402e      	ands	r6, r5
 800469c:	4d86      	ldr	r5, [pc, #536]	@ (80048b8 <HAL_PCD_IRQHandler+0x694>)
 800469e:	4335      	orrs	r5, r6
 80046a0:	600d      	str	r5, [r1, #0]
 80046a2:	4649      	mov	r1, r9
 80046a4:	19c9      	adds	r1, r1, r7
 80046a6:	00c9      	lsls	r1, r1, #3
 80046a8:	1861      	adds	r1, r4, r1
 80046aa:	000d      	movs	r5, r1
 80046ac:	3538      	adds	r5, #56	@ 0x38
 80046ae:	782e      	ldrb	r6, [r5, #0]
 80046b0:	2e01      	cmp	r6, #1
 80046b2:	d000      	beq.n	80046b6 <HAL_PCD_IRQHandler+0x492>
 80046b4:	e0cf      	b.n	8004856 <HAL_PCD_IRQHandler+0x632>
 80046b6:	6a8e      	ldr	r6, [r1, #40]	@ 0x28
 80046b8:	46b4      	mov	ip, r6
 80046ba:	4494      	add	ip, r2
 80046bc:	4666      	mov	r6, ip
 80046be:	628e      	str	r6, [r1, #40]	@ 0x28
 80046c0:	9601      	str	r6, [sp, #4]
 80046c2:	6b1e      	ldr	r6, [r3, #48]	@ 0x30
 80046c4:	46b4      	mov	ip, r6
 80046c6:	4494      	add	ip, r2
 80046c8:	4666      	mov	r6, ip
 80046ca:	631e      	str	r6, [r3, #48]	@ 0x30
 80046cc:	6b4b      	ldr	r3, [r1, #52]	@ 0x34
 80046ce:	469c      	mov	ip, r3
 80046d0:	6a4b      	ldr	r3, [r1, #36]	@ 0x24
 80046d2:	459c      	cmp	ip, r3
 80046d4:	d200      	bcs.n	80046d8 <HAL_PCD_IRQHandler+0x4b4>
 80046d6:	e2e5      	b.n	8004ca4 <HAL_PCD_IRQHandler+0xa80>
 80046d8:	4662      	mov	r2, ip
 80046da:	1ad2      	subs	r2, r2, r3
 80046dc:	634a      	str	r2, [r1, #52]	@ 0x34
 80046de:	b29a      	uxth	r2, r3
 80046e0:	4649      	mov	r1, r9
 80046e2:	19c9      	adds	r1, r1, r7
 80046e4:	00c9      	lsls	r1, r1, #3
 80046e6:	1861      	adds	r1, r4, r1
 80046e8:	7d49      	ldrb	r1, [r1, #21]
 80046ea:	2900      	cmp	r1, #0
 80046ec:	d000      	beq.n	80046f0 <HAL_PCD_IRQHandler+0x4cc>
 80046ee:	e2cd      	b.n	8004c8c <HAL_PCD_IRQHandler+0xa68>
 80046f0:	9e02      	ldr	r6, [sp, #8]
 80046f2:	6831      	ldr	r1, [r6, #0]
 80046f4:	0189      	lsls	r1, r1, #6
 80046f6:	0989      	lsrs	r1, r1, #6
 80046f8:	6031      	str	r1, [r6, #0]
 80046fa:	2b3e      	cmp	r3, #62	@ 0x3e
 80046fc:	d800      	bhi.n	8004700 <HAL_PCD_IRQHandler+0x4dc>
 80046fe:	e2f4      	b.n	8004cea <HAL_PCD_IRQHandler+0xac6>
 8004700:	251f      	movs	r5, #31
 8004702:	0959      	lsrs	r1, r3, #5
 8004704:	402b      	ands	r3, r5
 8004706:	425d      	negs	r5, r3
 8004708:	416b      	adcs	r3, r5
 800470a:	1ac9      	subs	r1, r1, r3
 800470c:	6833      	ldr	r3, [r6, #0]
 800470e:	0689      	lsls	r1, r1, #26
 8004710:	4319      	orrs	r1, r3
 8004712:	2380      	movs	r3, #128	@ 0x80
 8004714:	061b      	lsls	r3, r3, #24
 8004716:	430b      	orrs	r3, r1
 8004718:	6033      	str	r3, [r6, #0]
 800471a:	464b      	mov	r3, r9
 800471c:	19db      	adds	r3, r3, r7
 800471e:	00db      	lsls	r3, r3, #3
 8004720:	18e3      	adds	r3, r4, r3
 8004722:	8b99      	ldrh	r1, [r3, #28]
 8004724:	0013      	movs	r3, r2
 8004726:	000a      	movs	r2, r1
 8004728:	9901      	ldr	r1, [sp, #4]
 800472a:	f003 fcbf 	bl	80080ac <USB_WritePMA>
 800472e:	6820      	ldr	r0, [r4, #0]
 8004730:	e091      	b.n	8004856 <HAL_PCD_IRQHandler+0x632>
 8004732:	6803      	ldr	r3, [r0, #0]
 8004734:	4a61      	ldr	r2, [pc, #388]	@ (80048bc <HAL_PCD_IRQHandler+0x698>)
 8004736:	4013      	ands	r3, r2
 8004738:	2280      	movs	r2, #128	@ 0x80
 800473a:	4313      	orrs	r3, r2
 800473c:	6003      	str	r3, [r0, #0]
 800473e:	23aa      	movs	r3, #170	@ 0xaa
 8004740:	005b      	lsls	r3, r3, #1
 8004742:	5ce2      	ldrb	r2, [r4, r3]
 8004744:	3b4b      	subs	r3, #75	@ 0x4b
 8004746:	3bff      	subs	r3, #255	@ 0xff
 8004748:	930a      	str	r3, [sp, #40]	@ 0x28
 800474a:	9b0a      	ldr	r3, [sp, #40]	@ 0x28
 800474c:	2b00      	cmp	r3, #0
 800474e:	d005      	beq.n	800475c <HAL_PCD_IRQHandler+0x538>
 8004750:	9b0a      	ldr	r3, [sp, #40]	@ 0x28
 8004752:	3b01      	subs	r3, #1
 8004754:	930a      	str	r3, [sp, #40]	@ 0x28
 8004756:	9b0a      	ldr	r3, [sp, #40]	@ 0x28
 8004758:	2b00      	cmp	r3, #0
 800475a:	d1f9      	bne.n	8004750 <HAL_PCD_IRQHandler+0x52c>
 800475c:	4b53      	ldr	r3, [pc, #332]	@ (80048ac <HAL_PCD_IRQHandler+0x688>)
 800475e:	0025      	movs	r5, r4
 8004760:	469c      	mov	ip, r3
 8004762:	00d2      	lsls	r2, r2, #3
 8004764:	4462      	add	r2, ip
 8004766:	6853      	ldr	r3, [r2, #4]
 8004768:	3555      	adds	r5, #85	@ 0x55
 800476a:	019b      	lsls	r3, r3, #6
 800476c:	0d9b      	lsrs	r3, r3, #22
 800476e:	35ff      	adds	r5, #255	@ 0xff
 8004770:	61eb      	str	r3, [r5, #28]
 8004772:	2b00      	cmp	r3, #0
 8004774:	d00e      	beq.n	8004794 <HAL_PCD_IRQHandler+0x570>
 8004776:	6969      	ldr	r1, [r5, #20]
 8004778:	2900      	cmp	r1, #0
 800477a:	d00b      	beq.n	8004794 <HAL_PCD_IRQHandler+0x570>
 800477c:	88ea      	ldrh	r2, [r5, #6]
 800477e:	f003 fccb 	bl	8008118 <USB_ReadPMA>
 8004782:	696b      	ldr	r3, [r5, #20]
 8004784:	69ea      	ldr	r2, [r5, #28]
 8004786:	0020      	movs	r0, r4
 8004788:	189b      	adds	r3, r3, r2
 800478a:	2100      	movs	r1, #0
 800478c:	616b      	str	r3, [r5, #20]
 800478e:	f004 fe65 	bl	800945c <HAL_PCD_DataOutStageCallback>
 8004792:	6820      	ldr	r0, [r4, #0]
 8004794:	6803      	ldr	r3, [r0, #0]
 8004796:	051a      	lsls	r2, r3, #20
 8004798:	d500      	bpl.n	800479c <HAL_PCD_IRQHandler+0x578>
 800479a:	e5b2      	b.n	8004302 <HAL_PCD_IRQHandler+0xde>
 800479c:	22c0      	movs	r2, #192	@ 0xc0
 800479e:	0192      	lsls	r2, r2, #6
 80047a0:	4013      	ands	r3, r2
 80047a2:	4293      	cmp	r3, r2
 80047a4:	d100      	bne.n	80047a8 <HAL_PCD_IRQHandler+0x584>
 80047a6:	e5ac      	b.n	8004302 <HAL_PCD_IRQHandler+0xde>
 80047a8:	4a40      	ldr	r2, [pc, #256]	@ (80048ac <HAL_PCD_IRQHandler+0x688>)
 80047aa:	6853      	ldr	r3, [r2, #4]
 80047ac:	019b      	lsls	r3, r3, #6
 80047ae:	099b      	lsrs	r3, r3, #6
 80047b0:	6053      	str	r3, [r2, #4]
 80047b2:	6929      	ldr	r1, [r5, #16]
 80047b4:	293e      	cmp	r1, #62	@ 0x3e
 80047b6:	d800      	bhi.n	80047ba <HAL_PCD_IRQHandler+0x596>
 80047b8:	e1e8      	b.n	8004b8c <HAL_PCD_IRQHandler+0x968>
 80047ba:	251f      	movs	r5, #31
 80047bc:	094b      	lsrs	r3, r1, #5
 80047be:	4029      	ands	r1, r5
 80047c0:	424d      	negs	r5, r1
 80047c2:	4169      	adcs	r1, r5
 80047c4:	1a5b      	subs	r3, r3, r1
 80047c6:	6851      	ldr	r1, [r2, #4]
 80047c8:	069b      	lsls	r3, r3, #26
 80047ca:	430b      	orrs	r3, r1
 80047cc:	2180      	movs	r1, #128	@ 0x80
 80047ce:	0609      	lsls	r1, r1, #24
 80047d0:	430b      	orrs	r3, r1
 80047d2:	6053      	str	r3, [r2, #4]
 80047d4:	6803      	ldr	r3, [r0, #0]
 80047d6:	4a3a      	ldr	r2, [pc, #232]	@ (80048c0 <HAL_PCD_IRQHandler+0x69c>)
 80047d8:	4013      	ands	r3, r2
 80047da:	22c0      	movs	r2, #192	@ 0xc0
 80047dc:	0192      	lsls	r2, r2, #6
 80047de:	405a      	eors	r2, r3
 80047e0:	4b38      	ldr	r3, [pc, #224]	@ (80048c4 <HAL_PCD_IRQHandler+0x6a0>)
 80047e2:	4313      	orrs	r3, r2
 80047e4:	6003      	str	r3, [r0, #0]
 80047e6:	e58c      	b.n	8004302 <HAL_PCD_IRQHandler+0xde>
 80047e8:	220a      	movs	r2, #10
 80047ea:	920e      	str	r2, [sp, #56]	@ 0x38
 80047ec:	9a0e      	ldr	r2, [sp, #56]	@ 0x38
 80047ee:	2a00      	cmp	r2, #0
 80047f0:	d009      	beq.n	8004806 <HAL_PCD_IRQHandler+0x5e2>
 80047f2:	9904      	ldr	r1, [sp, #16]
 80047f4:	9e02      	ldr	r6, [sp, #8]
 80047f6:	9a0e      	ldr	r2, [sp, #56]	@ 0x38
 80047f8:	3a01      	subs	r2, #1
 80047fa:	920e      	str	r2, [sp, #56]	@ 0x38
 80047fc:	9a0e      	ldr	r2, [sp, #56]	@ 0x38
 80047fe:	2a00      	cmp	r2, #0
 8004800:	d1f9      	bne.n	80047f6 <HAL_PCD_IRQHandler+0x5d2>
 8004802:	9104      	str	r1, [sp, #16]
 8004804:	9602      	str	r6, [sp, #8]
 8004806:	2580      	movs	r5, #128	@ 0x80
 8004808:	9a02      	ldr	r2, [sp, #8]
 800480a:	9901      	ldr	r1, [sp, #4]
 800480c:	01ed      	lsls	r5, r5, #7
 800480e:	4029      	ands	r1, r5
 8004810:	6852      	ldr	r2, [r2, #4]
 8004812:	000d      	movs	r5, r1
 8004814:	9903      	ldr	r1, [sp, #12]
 8004816:	0192      	lsls	r2, r2, #6
 8004818:	0d92      	lsrs	r2, r2, #22
 800481a:	428a      	cmp	r2, r1
 800481c:	d900      	bls.n	8004820 <HAL_PCD_IRQHandler+0x5fc>
 800481e:	e13a      	b.n	8004a96 <HAL_PCD_IRQHandler+0x872>
 8004820:	1a89      	subs	r1, r1, r2
 8004822:	62d9      	str	r1, [r3, #44]	@ 0x2c
 8004824:	d100      	bne.n	8004828 <HAL_PCD_IRQHandler+0x604>
 8004826:	e138      	b.n	8004a9a <HAL_PCD_IRQHandler+0x876>
 8004828:	2d00      	cmp	r5, #0
 800482a:	d10a      	bne.n	8004842 <HAL_PCD_IRQHandler+0x61e>
 800482c:	9904      	ldr	r1, [sp, #16]
 800482e:	0089      	lsls	r1, r1, #2
 8004830:	1841      	adds	r1, r0, r1
 8004832:	680d      	ldr	r5, [r1, #0]
 8004834:	46ac      	mov	ip, r5
 8004836:	4666      	mov	r6, ip
 8004838:	4d1e      	ldr	r5, [pc, #120]	@ (80048b4 <HAL_PCD_IRQHandler+0x690>)
 800483a:	402e      	ands	r6, r5
 800483c:	4d1e      	ldr	r5, [pc, #120]	@ (80048b8 <HAL_PCD_IRQHandler+0x694>)
 800483e:	4335      	orrs	r5, r6
 8004840:	600d      	str	r5, [r1, #0]
 8004842:	4649      	mov	r1, r9
 8004844:	19c9      	adds	r1, r1, r7
 8004846:	00c9      	lsls	r1, r1, #3
 8004848:	1861      	adds	r1, r4, r1
 800484a:	000d      	movs	r5, r1
 800484c:	3538      	adds	r5, #56	@ 0x38
 800484e:	782e      	ldrb	r6, [r5, #0]
 8004850:	2e01      	cmp	r6, #1
 8004852:	d100      	bne.n	8004856 <HAL_PCD_IRQHandler+0x632>
 8004854:	e1c9      	b.n	8004bea <HAL_PCD_IRQHandler+0x9c6>
 8004856:	003b      	movs	r3, r7
 8004858:	444b      	add	r3, r9
 800485a:	00db      	lsls	r3, r3, #3
 800485c:	18e3      	adds	r3, r4, r3
 800485e:	7d1b      	ldrb	r3, [r3, #20]
 8004860:	4919      	ldr	r1, [pc, #100]	@ (80048c8 <HAL_PCD_IRQHandler+0x6a4>)
 8004862:	009b      	lsls	r3, r3, #2
 8004864:	18c3      	adds	r3, r0, r3
 8004866:	681a      	ldr	r2, [r3, #0]
 8004868:	400a      	ands	r2, r1
 800486a:	2130      	movs	r1, #48	@ 0x30
 800486c:	404a      	eors	r2, r1
 800486e:	4915      	ldr	r1, [pc, #84]	@ (80048c4 <HAL_PCD_IRQHandler+0x6a0>)
 8004870:	430a      	orrs	r2, r1
 8004872:	601a      	str	r2, [r3, #0]
 8004874:	e545      	b.n	8004302 <HAL_PCD_IRQHandler+0xde>
 8004876:	464b      	mov	r3, r9
 8004878:	19db      	adds	r3, r3, r7
 800487a:	00db      	lsls	r3, r3, #3
 800487c:	18e3      	adds	r3, r4, r3
 800487e:	001a      	movs	r2, r3
 8004880:	325d      	adds	r2, #93	@ 0x5d
 8004882:	e699      	b.n	80045b8 <HAL_PCD_IRQHandler+0x394>
 8004884:	6822      	ldr	r2, [r4, #0]
 8004886:	4911      	ldr	r1, [pc, #68]	@ (80048cc <HAL_PCD_IRQHandler+0x6a8>)
 8004888:	6c53      	ldr	r3, [r2, #68]	@ 0x44
 800488a:	400b      	ands	r3, r1
 800488c:	6453      	str	r3, [r2, #68]	@ 0x44
 800488e:	e4fb      	b.n	8004288 <HAL_PCD_IRQHandler+0x64>
 8004890:	2100      	movs	r1, #0
 8004892:	0020      	movs	r0, r4
 8004894:	54e5      	strb	r5, [r4, r3]
 8004896:	f004 ff23 	bl	80096e0 <HAL_PCDEx_LPM_Callback>
 800489a:	e6a4      	b.n	80045e6 <HAL_PCD_IRQHandler+0x3c2>
 800489c:	3155      	adds	r1, #85	@ 0x55
 800489e:	31ff      	adds	r1, #255	@ 0xff
 80048a0:	6820      	ldr	r0, [r4, #0]
 80048a2:	1861      	adds	r1, r4, r1
 80048a4:	f002 ffc4 	bl	8007830 <USB_EPStartXfer>
 80048a8:	6820      	ldr	r0, [r4, #0]
 80048aa:	e53c      	b.n	8004326 <HAL_PCD_IRQHandler+0x102>
 80048ac:	40009800 	.word	0x40009800
 80048b0:	0000efff 	.word	0x0000efff
 80048b4:	07ff8f8f 	.word	0x07ff8f8f
 80048b8:	0000c080 	.word	0x0000c080
 80048bc:	07ff0f8f 	.word	0x07ff0f8f
 80048c0:	07ffbf8f 	.word	0x07ffbf8f
 80048c4:	00008080 	.word	0x00008080
 80048c8:	07ff8fbf 	.word	0x07ff8fbf
 80048cc:	0000feff 	.word	0x0000feff
 80048d0:	b2ab      	uxth	r3, r5
 80048d2:	045b      	lsls	r3, r3, #17
 80048d4:	d400      	bmi.n	80048d8 <HAL_PCD_IRQHandler+0x6b4>
 80048d6:	e095      	b.n	8004a04 <HAL_PCD_IRQHandler+0x7e0>
 80048d8:	230a      	movs	r3, #10
 80048da:	930d      	str	r3, [sp, #52]	@ 0x34
 80048dc:	9b0d      	ldr	r3, [sp, #52]	@ 0x34
 80048de:	2b00      	cmp	r3, #0
 80048e0:	d005      	beq.n	80048ee <HAL_PCD_IRQHandler+0x6ca>
 80048e2:	9b0d      	ldr	r3, [sp, #52]	@ 0x34
 80048e4:	3b01      	subs	r3, #1
 80048e6:	930d      	str	r3, [sp, #52]	@ 0x34
 80048e8:	9b0d      	ldr	r3, [sp, #52]	@ 0x34
 80048ea:	2b00      	cmp	r3, #0
 80048ec:	d1f9      	bne.n	80048e2 <HAL_PCD_IRQHandler+0x6be>
 80048ee:	49de      	ldr	r1, [pc, #888]	@ (8004c68 <HAL_PCD_IRQHandler+0xa44>)
 80048f0:	00d3      	lsls	r3, r2, #3
 80048f2:	468c      	mov	ip, r1
 80048f4:	4649      	mov	r1, r9
 80048f6:	19c9      	adds	r1, r1, r7
 80048f8:	00c9      	lsls	r1, r1, #3
 80048fa:	1861      	adds	r1, r4, r1
 80048fc:	316d      	adds	r1, #109	@ 0x6d
 80048fe:	31ff      	adds	r1, #255	@ 0xff
 8004900:	680e      	ldr	r6, [r1, #0]
 8004902:	4463      	add	r3, ip
 8004904:	46b4      	mov	ip, r6
 8004906:	681b      	ldr	r3, [r3, #0]
 8004908:	9102      	str	r1, [sp, #8]
 800490a:	019b      	lsls	r3, r3, #6
 800490c:	0d9b      	lsrs	r3, r3, #22
 800490e:	001e      	movs	r6, r3
 8004910:	9303      	str	r3, [sp, #12]
 8004912:	459c      	cmp	ip, r3
 8004914:	d200      	bcs.n	8004918 <HAL_PCD_IRQHandler+0x6f4>
 8004916:	e144      	b.n	8004ba2 <HAL_PCD_IRQHandler+0x97e>
 8004918:	4663      	mov	r3, ip
 800491a:	9902      	ldr	r1, [sp, #8]
 800491c:	1b9b      	subs	r3, r3, r6
 800491e:	600b      	str	r3, [r1, #0]
 8004920:	d10d      	bne.n	800493e <HAL_PCD_IRQHandler+0x71a>
 8004922:	0091      	lsls	r1, r2, #2
 8004924:	468c      	mov	ip, r1
 8004926:	4484      	add	ip, r0
 8004928:	4663      	mov	r3, ip
 800492a:	49d0      	ldr	r1, [pc, #832]	@ (8004c6c <HAL_PCD_IRQHandler+0xa48>)
 800492c:	681b      	ldr	r3, [r3, #0]
 800492e:	4019      	ands	r1, r3
 8004930:	2380      	movs	r3, #128	@ 0x80
 8004932:	019b      	lsls	r3, r3, #6
 8004934:	4059      	eors	r1, r3
 8004936:	4bce      	ldr	r3, [pc, #824]	@ (8004c70 <HAL_PCD_IRQHandler+0xa4c>)
 8004938:	4319      	orrs	r1, r3
 800493a:	4663      	mov	r3, ip
 800493c:	6019      	str	r1, [r3, #0]
 800493e:	9901      	ldr	r1, [sp, #4]
 8004940:	0649      	lsls	r1, r1, #25
 8004942:	d507      	bpl.n	8004954 <HAL_PCD_IRQHandler+0x730>
 8004944:	0092      	lsls	r2, r2, #2
 8004946:	1882      	adds	r2, r0, r2
 8004948:	6813      	ldr	r3, [r2, #0]
 800494a:	49ca      	ldr	r1, [pc, #808]	@ (8004c74 <HAL_PCD_IRQHandler+0xa50>)
 800494c:	400b      	ands	r3, r1
 800494e:	49ca      	ldr	r1, [pc, #808]	@ (8004c78 <HAL_PCD_IRQHandler+0xa54>)
 8004950:	4319      	orrs	r1, r3
 8004952:	6011      	str	r1, [r2, #0]
 8004954:	9b03      	ldr	r3, [sp, #12]
 8004956:	2b00      	cmp	r3, #0
 8004958:	d100      	bne.n	800495c <HAL_PCD_IRQHandler+0x738>
 800495a:	e55e      	b.n	800441a <HAL_PCD_IRQHandler+0x1f6>
 800495c:	464b      	mov	r3, r9
 800495e:	19d9      	adds	r1, r3, r7
 8004960:	00c9      	lsls	r1, r1, #3
 8004962:	1861      	adds	r1, r4, r1
 8004964:	000a      	movs	r2, r1
 8004966:	325d      	adds	r2, #93	@ 0x5d
 8004968:	3169      	adds	r1, #105	@ 0x69
 800496a:	32ff      	adds	r2, #255	@ 0xff
 800496c:	31ff      	adds	r1, #255	@ 0xff
 800496e:	8812      	ldrh	r2, [r2, #0]
 8004970:	6809      	ldr	r1, [r1, #0]
 8004972:	9b03      	ldr	r3, [sp, #12]
 8004974:	f003 fbd0 	bl	8008118 <USB_ReadPMA>
 8004978:	e54f      	b.n	800441a <HAL_PCD_IRQHandler+0x1f6>
 800497a:	6823      	ldr	r3, [r4, #0]
 800497c:	48bf      	ldr	r0, [pc, #764]	@ (8004c7c <HAL_PCD_IRQHandler+0xa58>)
 800497e:	6c59      	ldr	r1, [r3, #68]	@ 0x44
 8004980:	4001      	ands	r1, r0
 8004982:	6459      	str	r1, [r3, #68]	@ 0x44
 8004984:	21b3      	movs	r1, #179	@ 0xb3
 8004986:	0089      	lsls	r1, r1, #2
 8004988:	5c60      	ldrb	r0, [r4, r1]
 800498a:	2800      	cmp	r0, #0
 800498c:	d136      	bne.n	80049fc <HAL_PCD_IRQHandler+0x7d8>
 800498e:	6c18      	ldr	r0, [r3, #64]	@ 0x40
 8004990:	4302      	orrs	r2, r0
 8004992:	2008      	movs	r0, #8
 8004994:	641a      	str	r2, [r3, #64]	@ 0x40
 8004996:	6c1a      	ldr	r2, [r3, #64]	@ 0x40
 8004998:	4302      	orrs	r2, r0
 800499a:	641a      	str	r2, [r3, #64]	@ 0x40
 800499c:	2201      	movs	r2, #1
 800499e:	5462      	strb	r2, [r4, r1]
 80049a0:	6d5a      	ldr	r2, [r3, #84]	@ 0x54
 80049a2:	233c      	movs	r3, #60	@ 0x3c
 80049a4:	0892      	lsrs	r2, r2, #2
 80049a6:	4013      	ands	r3, r2
 80049a8:	22b4      	movs	r2, #180	@ 0xb4
 80049aa:	0092      	lsls	r2, r2, #2
 80049ac:	2101      	movs	r1, #1
 80049ae:	0020      	movs	r0, r4
 80049b0:	50a3      	str	r3, [r4, r2]
 80049b2:	f004 fe95 	bl	80096e0 <HAL_PCDEx_LPM_Callback>
 80049b6:	e467      	b.n	8004288 <HAL_PCD_IRQHandler+0x64>
 80049b8:	2008      	movs	r0, #8
 80049ba:	6823      	ldr	r3, [r4, #0]
 80049bc:	6c19      	ldr	r1, [r3, #64]	@ 0x40
 80049be:	4301      	orrs	r1, r0
 80049c0:	6419      	str	r1, [r3, #64]	@ 0x40
 80049c2:	6c59      	ldr	r1, [r3, #68]	@ 0x44
 80049c4:	48ae      	ldr	r0, [pc, #696]	@ (8004c80 <HAL_PCD_IRQHandler+0xa5c>)
 80049c6:	4001      	ands	r1, r0
 80049c8:	6459      	str	r1, [r3, #68]	@ 0x44
 80049ca:	6c19      	ldr	r1, [r3, #64]	@ 0x40
 80049cc:	0020      	movs	r0, r4
 80049ce:	430a      	orrs	r2, r1
 80049d0:	641a      	str	r2, [r3, #64]	@ 0x40
 80049d2:	f004 fd77 	bl	80094c4 <HAL_PCD_SuspendCallback>
 80049d6:	e457      	b.n	8004288 <HAL_PCD_IRQHandler+0x64>
 80049d8:	2a00      	cmp	r2, #0
 80049da:	d000      	beq.n	80049de <HAL_PCD_IRQHandler+0x7ba>
 80049dc:	e0c7      	b.n	8004b6e <HAL_PCD_IRQHandler+0x94a>
 80049de:	4aa2      	ldr	r2, [pc, #648]	@ (8004c68 <HAL_PCD_IRQHandler+0xa44>)
 80049e0:	7d1b      	ldrb	r3, [r3, #20]
 80049e2:	4694      	mov	ip, r2
 80049e4:	00db      	lsls	r3, r3, #3
 80049e6:	4463      	add	r3, ip
 80049e8:	685a      	ldr	r2, [r3, #4]
 80049ea:	0192      	lsls	r2, r2, #6
 80049ec:	0992      	lsrs	r2, r2, #6
 80049ee:	605a      	str	r2, [r3, #4]
 80049f0:	2280      	movs	r2, #128	@ 0x80
 80049f2:	6859      	ldr	r1, [r3, #4]
 80049f4:	0612      	lsls	r2, r2, #24
 80049f6:	430a      	orrs	r2, r1
 80049f8:	605a      	str	r2, [r3, #4]
 80049fa:	e5a6      	b.n	800454a <HAL_PCD_IRQHandler+0x326>
 80049fc:	0020      	movs	r0, r4
 80049fe:	f004 fd61 	bl	80094c4 <HAL_PCD_SuspendCallback>
 8004a02:	e441      	b.n	8004288 <HAL_PCD_IRQHandler+0x64>
 8004a04:	230a      	movs	r3, #10
 8004a06:	930c      	str	r3, [sp, #48]	@ 0x30
 8004a08:	9b0c      	ldr	r3, [sp, #48]	@ 0x30
 8004a0a:	2b00      	cmp	r3, #0
 8004a0c:	d005      	beq.n	8004a1a <HAL_PCD_IRQHandler+0x7f6>
 8004a0e:	9b0c      	ldr	r3, [sp, #48]	@ 0x30
 8004a10:	3b01      	subs	r3, #1
 8004a12:	930c      	str	r3, [sp, #48]	@ 0x30
 8004a14:	9b0c      	ldr	r3, [sp, #48]	@ 0x30
 8004a16:	2b00      	cmp	r3, #0
 8004a18:	d1f9      	bne.n	8004a0e <HAL_PCD_IRQHandler+0x7ea>
 8004a1a:	4993      	ldr	r1, [pc, #588]	@ (8004c68 <HAL_PCD_IRQHandler+0xa44>)
 8004a1c:	00d3      	lsls	r3, r2, #3
 8004a1e:	468c      	mov	ip, r1
 8004a20:	4649      	mov	r1, r9
 8004a22:	19c9      	adds	r1, r1, r7
 8004a24:	00c9      	lsls	r1, r1, #3
 8004a26:	1861      	adds	r1, r4, r1
 8004a28:	316d      	adds	r1, #109	@ 0x6d
 8004a2a:	31ff      	adds	r1, #255	@ 0xff
 8004a2c:	680e      	ldr	r6, [r1, #0]
 8004a2e:	4463      	add	r3, ip
 8004a30:	46b4      	mov	ip, r6
 8004a32:	685b      	ldr	r3, [r3, #4]
 8004a34:	9102      	str	r1, [sp, #8]
 8004a36:	019b      	lsls	r3, r3, #6
 8004a38:	0d9b      	lsrs	r3, r3, #22
 8004a3a:	001e      	movs	r6, r3
 8004a3c:	9303      	str	r3, [sp, #12]
 8004a3e:	459c      	cmp	ip, r3
 8004a40:	d200      	bcs.n	8004a44 <HAL_PCD_IRQHandler+0x820>
 8004a42:	e0ab      	b.n	8004b9c <HAL_PCD_IRQHandler+0x978>
 8004a44:	4663      	mov	r3, ip
 8004a46:	9902      	ldr	r1, [sp, #8]
 8004a48:	1b9b      	subs	r3, r3, r6
 8004a4a:	600b      	str	r3, [r1, #0]
 8004a4c:	d10d      	bne.n	8004a6a <HAL_PCD_IRQHandler+0x846>
 8004a4e:	0091      	lsls	r1, r2, #2
 8004a50:	468c      	mov	ip, r1
 8004a52:	4484      	add	ip, r0
 8004a54:	4663      	mov	r3, ip
 8004a56:	4985      	ldr	r1, [pc, #532]	@ (8004c6c <HAL_PCD_IRQHandler+0xa48>)
 8004a58:	681b      	ldr	r3, [r3, #0]
 8004a5a:	4019      	ands	r1, r3
 8004a5c:	2380      	movs	r3, #128	@ 0x80
 8004a5e:	019b      	lsls	r3, r3, #6
 8004a60:	4059      	eors	r1, r3
 8004a62:	4b83      	ldr	r3, [pc, #524]	@ (8004c70 <HAL_PCD_IRQHandler+0xa4c>)
 8004a64:	4319      	orrs	r1, r3
 8004a66:	4663      	mov	r3, ip
 8004a68:	6019      	str	r1, [r3, #0]
 8004a6a:	9901      	ldr	r1, [sp, #4]
 8004a6c:	0649      	lsls	r1, r1, #25
 8004a6e:	d407      	bmi.n	8004a80 <HAL_PCD_IRQHandler+0x85c>
 8004a70:	0092      	lsls	r2, r2, #2
 8004a72:	1882      	adds	r2, r0, r2
 8004a74:	6813      	ldr	r3, [r2, #0]
 8004a76:	497f      	ldr	r1, [pc, #508]	@ (8004c74 <HAL_PCD_IRQHandler+0xa50>)
 8004a78:	400b      	ands	r3, r1
 8004a7a:	497f      	ldr	r1, [pc, #508]	@ (8004c78 <HAL_PCD_IRQHandler+0xa54>)
 8004a7c:	4319      	orrs	r1, r3
 8004a7e:	6011      	str	r1, [r2, #0]
 8004a80:	9b03      	ldr	r3, [sp, #12]
 8004a82:	2b00      	cmp	r3, #0
 8004a84:	d100      	bne.n	8004a88 <HAL_PCD_IRQHandler+0x864>
 8004a86:	e4c8      	b.n	800441a <HAL_PCD_IRQHandler+0x1f6>
 8004a88:	464b      	mov	r3, r9
 8004a8a:	19d9      	adds	r1, r3, r7
 8004a8c:	00c9      	lsls	r1, r1, #3
 8004a8e:	1861      	adds	r1, r4, r1
 8004a90:	000a      	movs	r2, r1
 8004a92:	325f      	adds	r2, #95	@ 0x5f
 8004a94:	e768      	b.n	8004968 <HAL_PCD_IRQHandler+0x744>
 8004a96:	2200      	movs	r2, #0
 8004a98:	62da      	str	r2, [r3, #44]	@ 0x2c
 8004a9a:	464b      	mov	r3, r9
 8004a9c:	19db      	adds	r3, r3, r7
 8004a9e:	00db      	lsls	r3, r3, #3
 8004aa0:	18e3      	adds	r3, r4, r3
 8004aa2:	7d5b      	ldrb	r3, [r3, #21]
 8004aa4:	2b00      	cmp	r3, #0
 8004aa6:	d000      	beq.n	8004aaa <HAL_PCD_IRQHandler+0x886>
 8004aa8:	e08e      	b.n	8004bc8 <HAL_PCD_IRQHandler+0x9a4>
 8004aaa:	2280      	movs	r2, #128	@ 0x80
 8004aac:	9902      	ldr	r1, [sp, #8]
 8004aae:	0612      	lsls	r2, r2, #24
 8004ab0:	680b      	ldr	r3, [r1, #0]
 8004ab2:	019b      	lsls	r3, r3, #6
 8004ab4:	099b      	lsrs	r3, r3, #6
 8004ab6:	600b      	str	r3, [r1, #0]
 8004ab8:	680b      	ldr	r3, [r1, #0]
 8004aba:	4313      	orrs	r3, r2
 8004abc:	600b      	str	r3, [r1, #0]
 8004abe:	684b      	ldr	r3, [r1, #4]
 8004ac0:	019b      	lsls	r3, r3, #6
 8004ac2:	099b      	lsrs	r3, r3, #6
 8004ac4:	604b      	str	r3, [r1, #4]
 8004ac6:	684b      	ldr	r3, [r1, #4]
 8004ac8:	431a      	orrs	r2, r3
 8004aca:	604a      	str	r2, [r1, #4]
 8004acc:	0020      	movs	r0, r4
 8004ace:	9904      	ldr	r1, [sp, #16]
 8004ad0:	f004 fcd2 	bl	8009478 <HAL_PCD_DataInStageCallback>
 8004ad4:	6820      	ldr	r0, [r4, #0]
 8004ad6:	2d00      	cmp	r5, #0
 8004ad8:	d000      	beq.n	8004adc <HAL_PCD_IRQHandler+0x8b8>
 8004ada:	e6bc      	b.n	8004856 <HAL_PCD_IRQHandler+0x632>
 8004adc:	464b      	mov	r3, r9
 8004ade:	19db      	adds	r3, r3, r7
 8004ae0:	00db      	lsls	r3, r3, #3
 8004ae2:	18e3      	adds	r3, r4, r3
 8004ae4:	7d1b      	ldrb	r3, [r3, #20]
 8004ae6:	4a63      	ldr	r2, [pc, #396]	@ (8004c74 <HAL_PCD_IRQHandler+0xa50>)
 8004ae8:	009b      	lsls	r3, r3, #2
 8004aea:	18c3      	adds	r3, r0, r3
 8004aec:	6819      	ldr	r1, [r3, #0]
 8004aee:	4011      	ands	r1, r2
 8004af0:	4a64      	ldr	r2, [pc, #400]	@ (8004c84 <HAL_PCD_IRQHandler+0xa60>)
 8004af2:	430a      	orrs	r2, r1
 8004af4:	601a      	str	r2, [r3, #0]
 8004af6:	e6ae      	b.n	8004856 <HAL_PCD_IRQHandler+0x632>
 8004af8:	2200      	movs	r2, #0
 8004afa:	62da      	str	r2, [r3, #44]	@ 0x2c
 8004afc:	464b      	mov	r3, r9
 8004afe:	19db      	adds	r3, r3, r7
 8004b00:	00db      	lsls	r3, r3, #3
 8004b02:	18e3      	adds	r3, r4, r3
 8004b04:	7d5b      	ldrb	r3, [r3, #21]
 8004b06:	2b00      	cmp	r3, #0
 8004b08:	d14e      	bne.n	8004ba8 <HAL_PCD_IRQHandler+0x984>
 8004b0a:	2280      	movs	r2, #128	@ 0x80
 8004b0c:	9902      	ldr	r1, [sp, #8]
 8004b0e:	0612      	lsls	r2, r2, #24
 8004b10:	680b      	ldr	r3, [r1, #0]
 8004b12:	019b      	lsls	r3, r3, #6
 8004b14:	099b      	lsrs	r3, r3, #6
 8004b16:	600b      	str	r3, [r1, #0]
 8004b18:	680b      	ldr	r3, [r1, #0]
 8004b1a:	4313      	orrs	r3, r2
 8004b1c:	600b      	str	r3, [r1, #0]
 8004b1e:	684b      	ldr	r3, [r1, #4]
 8004b20:	019b      	lsls	r3, r3, #6
 8004b22:	099b      	lsrs	r3, r3, #6
 8004b24:	604b      	str	r3, [r1, #4]
 8004b26:	684b      	ldr	r3, [r1, #4]
 8004b28:	431a      	orrs	r2, r3
 8004b2a:	604a      	str	r2, [r1, #4]
 8004b2c:	0020      	movs	r0, r4
 8004b2e:	9904      	ldr	r1, [sp, #16]
 8004b30:	f004 fca2 	bl	8009478 <HAL_PCD_DataInStageCallback>
 8004b34:	6820      	ldr	r0, [r4, #0]
 8004b36:	2d00      	cmp	r5, #0
 8004b38:	d1d0      	bne.n	8004adc <HAL_PCD_IRQHandler+0x8b8>
 8004b3a:	e68c      	b.n	8004856 <HAL_PCD_IRQHandler+0x632>
 8004b3c:	6822      	ldr	r2, [r4, #0]
 8004b3e:	4952      	ldr	r1, [pc, #328]	@ (8004c88 <HAL_PCD_IRQHandler+0xa64>)
 8004b40:	6c53      	ldr	r3, [r2, #68]	@ 0x44
 8004b42:	0020      	movs	r0, r4
 8004b44:	400b      	ands	r3, r1
 8004b46:	6453      	str	r3, [r2, #68]	@ 0x44
 8004b48:	f004 fca2 	bl	8009490 <HAL_PCD_SOFCallback>
 8004b4c:	f7ff fb9c 	bl	8004288 <HAL_PCD_IRQHandler+0x64>
 8004b50:	2a01      	cmp	r2, #1
 8004b52:	d000      	beq.n	8004b56 <HAL_PCD_IRQHandler+0x932>
 8004b54:	e4f9      	b.n	800454a <HAL_PCD_IRQHandler+0x326>
 8004b56:	4a44      	ldr	r2, [pc, #272]	@ (8004c68 <HAL_PCD_IRQHandler+0xa44>)
 8004b58:	7d1b      	ldrb	r3, [r3, #20]
 8004b5a:	4694      	mov	ip, r2
 8004b5c:	00db      	lsls	r3, r3, #3
 8004b5e:	4463      	add	r3, ip
 8004b60:	681a      	ldr	r2, [r3, #0]
 8004b62:	0412      	lsls	r2, r2, #16
 8004b64:	0c12      	lsrs	r2, r2, #16
 8004b66:	601a      	str	r2, [r3, #0]
 8004b68:	681a      	ldr	r2, [r3, #0]
 8004b6a:	601a      	str	r2, [r3, #0]
 8004b6c:	e4ed      	b.n	800454a <HAL_PCD_IRQHandler+0x326>
 8004b6e:	2a01      	cmp	r2, #1
 8004b70:	d000      	beq.n	8004b74 <HAL_PCD_IRQHandler+0x950>
 8004b72:	e4ea      	b.n	800454a <HAL_PCD_IRQHandler+0x326>
 8004b74:	4a3c      	ldr	r2, [pc, #240]	@ (8004c68 <HAL_PCD_IRQHandler+0xa44>)
 8004b76:	7d1b      	ldrb	r3, [r3, #20]
 8004b78:	4694      	mov	ip, r2
 8004b7a:	00db      	lsls	r3, r3, #3
 8004b7c:	4463      	add	r3, ip
 8004b7e:	685a      	ldr	r2, [r3, #4]
 8004b80:	0412      	lsls	r2, r2, #16
 8004b82:	0c12      	lsrs	r2, r2, #16
 8004b84:	605a      	str	r2, [r3, #4]
 8004b86:	685a      	ldr	r2, [r3, #4]
 8004b88:	605a      	str	r2, [r3, #4]
 8004b8a:	e4de      	b.n	800454a <HAL_PCD_IRQHandler+0x326>
 8004b8c:	2900      	cmp	r1, #0
 8004b8e:	d161      	bne.n	8004c54 <HAL_PCD_IRQHandler+0xa30>
 8004b90:	2380      	movs	r3, #128	@ 0x80
 8004b92:	6851      	ldr	r1, [r2, #4]
 8004b94:	061b      	lsls	r3, r3, #24
 8004b96:	430b      	orrs	r3, r1
 8004b98:	6053      	str	r3, [r2, #4]
 8004b9a:	e61b      	b.n	80047d4 <HAL_PCD_IRQHandler+0x5b0>
 8004b9c:	2300      	movs	r3, #0
 8004b9e:	600b      	str	r3, [r1, #0]
 8004ba0:	e755      	b.n	8004a4e <HAL_PCD_IRQHandler+0x82a>
 8004ba2:	2300      	movs	r3, #0
 8004ba4:	600b      	str	r3, [r1, #0]
 8004ba6:	e6bc      	b.n	8004922 <HAL_PCD_IRQHandler+0x6fe>
 8004ba8:	2b01      	cmp	r3, #1
 8004baa:	d1bf      	bne.n	8004b2c <HAL_PCD_IRQHandler+0x908>
 8004bac:	9a02      	ldr	r2, [sp, #8]
 8004bae:	6813      	ldr	r3, [r2, #0]
 8004bb0:	041b      	lsls	r3, r3, #16
 8004bb2:	0c1b      	lsrs	r3, r3, #16
 8004bb4:	6013      	str	r3, [r2, #0]
 8004bb6:	6813      	ldr	r3, [r2, #0]
 8004bb8:	6013      	str	r3, [r2, #0]
 8004bba:	6853      	ldr	r3, [r2, #4]
 8004bbc:	041b      	lsls	r3, r3, #16
 8004bbe:	0c1b      	lsrs	r3, r3, #16
 8004bc0:	6053      	str	r3, [r2, #4]
 8004bc2:	6853      	ldr	r3, [r2, #4]
 8004bc4:	6053      	str	r3, [r2, #4]
 8004bc6:	e7b1      	b.n	8004b2c <HAL_PCD_IRQHandler+0x908>
 8004bc8:	2b01      	cmp	r3, #1
 8004bca:	d000      	beq.n	8004bce <HAL_PCD_IRQHandler+0x9aa>
 8004bcc:	e77e      	b.n	8004acc <HAL_PCD_IRQHandler+0x8a8>
 8004bce:	9a02      	ldr	r2, [sp, #8]
 8004bd0:	6813      	ldr	r3, [r2, #0]
 8004bd2:	041b      	lsls	r3, r3, #16
 8004bd4:	0c1b      	lsrs	r3, r3, #16
 8004bd6:	6013      	str	r3, [r2, #0]
 8004bd8:	6813      	ldr	r3, [r2, #0]
 8004bda:	6013      	str	r3, [r2, #0]
 8004bdc:	6853      	ldr	r3, [r2, #4]
 8004bde:	041b      	lsls	r3, r3, #16
 8004be0:	0c1b      	lsrs	r3, r3, #16
 8004be2:	6053      	str	r3, [r2, #4]
 8004be4:	6853      	ldr	r3, [r2, #4]
 8004be6:	6053      	str	r3, [r2, #4]
 8004be8:	e770      	b.n	8004acc <HAL_PCD_IRQHandler+0x8a8>
 8004bea:	6a8e      	ldr	r6, [r1, #40]	@ 0x28
 8004bec:	46b4      	mov	ip, r6
 8004bee:	4494      	add	ip, r2
 8004bf0:	4666      	mov	r6, ip
 8004bf2:	628e      	str	r6, [r1, #40]	@ 0x28
 8004bf4:	9601      	str	r6, [sp, #4]
 8004bf6:	6b1e      	ldr	r6, [r3, #48]	@ 0x30
 8004bf8:	46b4      	mov	ip, r6
 8004bfa:	4494      	add	ip, r2
 8004bfc:	4666      	mov	r6, ip
 8004bfe:	631e      	str	r6, [r3, #48]	@ 0x30
 8004c00:	6b4b      	ldr	r3, [r1, #52]	@ 0x34
 8004c02:	469c      	mov	ip, r3
 8004c04:	6a4b      	ldr	r3, [r1, #36]	@ 0x24
 8004c06:	459c      	cmp	ip, r3
 8004c08:	d35d      	bcc.n	8004cc6 <HAL_PCD_IRQHandler+0xaa2>
 8004c0a:	4662      	mov	r2, ip
 8004c0c:	1ad2      	subs	r2, r2, r3
 8004c0e:	634a      	str	r2, [r1, #52]	@ 0x34
 8004c10:	b29a      	uxth	r2, r3
 8004c12:	4649      	mov	r1, r9
 8004c14:	19c9      	adds	r1, r1, r7
 8004c16:	00c9      	lsls	r1, r1, #3
 8004c18:	1861      	adds	r1, r4, r1
 8004c1a:	7d49      	ldrb	r1, [r1, #21]
 8004c1c:	2900      	cmp	r1, #0
 8004c1e:	d147      	bne.n	8004cb0 <HAL_PCD_IRQHandler+0xa8c>
 8004c20:	9e02      	ldr	r6, [sp, #8]
 8004c22:	6871      	ldr	r1, [r6, #4]
 8004c24:	0189      	lsls	r1, r1, #6
 8004c26:	0989      	lsrs	r1, r1, #6
 8004c28:	6071      	str	r1, [r6, #4]
 8004c2a:	2b3e      	cmp	r3, #62	@ 0x3e
 8004c2c:	d966      	bls.n	8004cfc <HAL_PCD_IRQHandler+0xad8>
 8004c2e:	251f      	movs	r5, #31
 8004c30:	0959      	lsrs	r1, r3, #5
 8004c32:	402b      	ands	r3, r5
 8004c34:	425d      	negs	r5, r3
 8004c36:	416b      	adcs	r3, r5
 8004c38:	1ac9      	subs	r1, r1, r3
 8004c3a:	6873      	ldr	r3, [r6, #4]
 8004c3c:	0689      	lsls	r1, r1, #26
 8004c3e:	4319      	orrs	r1, r3
 8004c40:	2380      	movs	r3, #128	@ 0x80
 8004c42:	061b      	lsls	r3, r3, #24
 8004c44:	430b      	orrs	r3, r1
 8004c46:	6073      	str	r3, [r6, #4]
 8004c48:	464b      	mov	r3, r9
 8004c4a:	19db      	adds	r3, r3, r7
 8004c4c:	00db      	lsls	r3, r3, #3
 8004c4e:	18e3      	adds	r3, r4, r3
 8004c50:	8bd9      	ldrh	r1, [r3, #30]
 8004c52:	e567      	b.n	8004724 <HAL_PCD_IRQHandler+0x500>
 8004c54:	2501      	movs	r5, #1
 8004c56:	084b      	lsrs	r3, r1, #1
 8004c58:	4029      	ands	r1, r5
 8004c5a:	185b      	adds	r3, r3, r1
 8004c5c:	6851      	ldr	r1, [r2, #4]
 8004c5e:	069b      	lsls	r3, r3, #26
 8004c60:	430b      	orrs	r3, r1
 8004c62:	6053      	str	r3, [r2, #4]
 8004c64:	e5b6      	b.n	80047d4 <HAL_PCD_IRQHandler+0x5b0>
 8004c66:	46c0      	nop			@ (mov r8, r8)
 8004c68:	40009800 	.word	0x40009800
 8004c6c:	07ffbf8f 	.word	0x07ffbf8f
 8004c70:	00008080 	.word	0x00008080
 8004c74:	07ff8f8f 	.word	0x07ff8f8f
 8004c78:	000080c0 	.word	0x000080c0
 8004c7c:	0000ff7f 	.word	0x0000ff7f
 8004c80:	0000f7ff 	.word	0x0000f7ff
 8004c84:	0000c080 	.word	0x0000c080
 8004c88:	0000fdff 	.word	0x0000fdff
 8004c8c:	2901      	cmp	r1, #1
 8004c8e:	d000      	beq.n	8004c92 <HAL_PCD_IRQHandler+0xa6e>
 8004c90:	e543      	b.n	800471a <HAL_PCD_IRQHandler+0x4f6>
 8004c92:	9d02      	ldr	r5, [sp, #8]
 8004c94:	041b      	lsls	r3, r3, #16
 8004c96:	6829      	ldr	r1, [r5, #0]
 8004c98:	b289      	uxth	r1, r1
 8004c9a:	6029      	str	r1, [r5, #0]
 8004c9c:	6829      	ldr	r1, [r5, #0]
 8004c9e:	430b      	orrs	r3, r1
 8004ca0:	602b      	str	r3, [r5, #0]
 8004ca2:	e53a      	b.n	800471a <HAL_PCD_IRQHandler+0x4f6>
 8004ca4:	4663      	mov	r3, ip
 8004ca6:	2b00      	cmp	r3, #0
 8004ca8:	d113      	bne.n	8004cd2 <HAL_PCD_IRQHandler+0xaae>
 8004caa:	702b      	strb	r3, [r5, #0]
 8004cac:	0013      	movs	r3, r2
 8004cae:	e517      	b.n	80046e0 <HAL_PCD_IRQHandler+0x4bc>
 8004cb0:	2901      	cmp	r1, #1
 8004cb2:	d1c9      	bne.n	8004c48 <HAL_PCD_IRQHandler+0xa24>
 8004cb4:	9d02      	ldr	r5, [sp, #8]
 8004cb6:	041b      	lsls	r3, r3, #16
 8004cb8:	6869      	ldr	r1, [r5, #4]
 8004cba:	b289      	uxth	r1, r1
 8004cbc:	6069      	str	r1, [r5, #4]
 8004cbe:	6869      	ldr	r1, [r5, #4]
 8004cc0:	430b      	orrs	r3, r1
 8004cc2:	606b      	str	r3, [r5, #4]
 8004cc4:	e7c0      	b.n	8004c48 <HAL_PCD_IRQHandler+0xa24>
 8004cc6:	4663      	mov	r3, ip
 8004cc8:	2b00      	cmp	r3, #0
 8004cca:	d108      	bne.n	8004cde <HAL_PCD_IRQHandler+0xaba>
 8004ccc:	702b      	strb	r3, [r5, #0]
 8004cce:	0013      	movs	r3, r2
 8004cd0:	e79f      	b.n	8004c12 <HAL_PCD_IRQHandler+0x9ee>
 8004cd2:	2300      	movs	r3, #0
 8004cd4:	702b      	strb	r3, [r5, #0]
 8004cd6:	634b      	str	r3, [r1, #52]	@ 0x34
 8004cd8:	4663      	mov	r3, ip
 8004cda:	b29a      	uxth	r2, r3
 8004cdc:	e500      	b.n	80046e0 <HAL_PCD_IRQHandler+0x4bc>
 8004cde:	2300      	movs	r3, #0
 8004ce0:	634b      	str	r3, [r1, #52]	@ 0x34
 8004ce2:	702b      	strb	r3, [r5, #0]
 8004ce4:	4663      	mov	r3, ip
 8004ce6:	b29a      	uxth	r2, r3
 8004ce8:	e793      	b.n	8004c12 <HAL_PCD_IRQHandler+0x9ee>
 8004cea:	2b00      	cmp	r3, #0
 8004cec:	d10f      	bne.n	8004d0e <HAL_PCD_IRQHandler+0xaea>
 8004cee:	2380      	movs	r3, #128	@ 0x80
 8004cf0:	9d02      	ldr	r5, [sp, #8]
 8004cf2:	061b      	lsls	r3, r3, #24
 8004cf4:	6829      	ldr	r1, [r5, #0]
 8004cf6:	430b      	orrs	r3, r1
 8004cf8:	602b      	str	r3, [r5, #0]
 8004cfa:	e50e      	b.n	800471a <HAL_PCD_IRQHandler+0x4f6>
 8004cfc:	2b00      	cmp	r3, #0
 8004cfe:	d110      	bne.n	8004d22 <HAL_PCD_IRQHandler+0xafe>
 8004d00:	2380      	movs	r3, #128	@ 0x80
 8004d02:	9d02      	ldr	r5, [sp, #8]
 8004d04:	061b      	lsls	r3, r3, #24
 8004d06:	6869      	ldr	r1, [r5, #4]
 8004d08:	430b      	orrs	r3, r1
 8004d0a:	606b      	str	r3, [r5, #4]
 8004d0c:	e79c      	b.n	8004c48 <HAL_PCD_IRQHandler+0xa24>
 8004d0e:	2501      	movs	r5, #1
 8004d10:	0859      	lsrs	r1, r3, #1
 8004d12:	402b      	ands	r3, r5
 8004d14:	9d02      	ldr	r5, [sp, #8]
 8004d16:	18c9      	adds	r1, r1, r3
 8004d18:	682b      	ldr	r3, [r5, #0]
 8004d1a:	0689      	lsls	r1, r1, #26
 8004d1c:	4319      	orrs	r1, r3
 8004d1e:	6029      	str	r1, [r5, #0]
 8004d20:	e4fb      	b.n	800471a <HAL_PCD_IRQHandler+0x4f6>
 8004d22:	2501      	movs	r5, #1
 8004d24:	0859      	lsrs	r1, r3, #1
 8004d26:	402b      	ands	r3, r5
 8004d28:	9d02      	ldr	r5, [sp, #8]
 8004d2a:	18c9      	adds	r1, r1, r3
 8004d2c:	686b      	ldr	r3, [r5, #4]
 8004d2e:	0689      	lsls	r1, r1, #26
 8004d30:	4319      	orrs	r1, r3
 8004d32:	6069      	str	r1, [r5, #4]
 8004d34:	e788      	b.n	8004c48 <HAL_PCD_IRQHandler+0xa24>
 8004d36:	46c0      	nop			@ (mov r8, r8)

08004d38 <HAL_PCD_SetAddress>:
 8004d38:	b570      	push	{r4, r5, r6, lr}
 8004d3a:	25a5      	movs	r5, #165	@ 0xa5
 8004d3c:	00ad      	lsls	r5, r5, #2
 8004d3e:	5d43      	ldrb	r3, [r0, r5]
 8004d40:	0004      	movs	r4, r0
 8004d42:	2b01      	cmp	r3, #1
 8004d44:	d009      	beq.n	8004d5a <HAL_PCD_SetAddress+0x22>
 8004d46:	2301      	movs	r3, #1
 8004d48:	5543      	strb	r3, [r0, r5]
 8004d4a:	7441      	strb	r1, [r0, #17]
 8004d4c:	6800      	ldr	r0, [r0, #0]
 8004d4e:	f003 f99d 	bl	800808c <USB_SetDevAddress>
 8004d52:	2300      	movs	r3, #0
 8004d54:	2000      	movs	r0, #0
 8004d56:	5563      	strb	r3, [r4, r5]
 8004d58:	bd70      	pop	{r4, r5, r6, pc}
 8004d5a:	2002      	movs	r0, #2
 8004d5c:	e7fc      	b.n	8004d58 <HAL_PCD_SetAddress+0x20>
 8004d5e:	46c0      	nop			@ (mov r8, r8)

08004d60 <HAL_PCD_EP_Open>:
 8004d60:	b570      	push	{r4, r5, r6, lr}
 8004d62:	0005      	movs	r5, r0
 8004d64:	2007      	movs	r0, #7
 8004d66:	4008      	ands	r0, r1
 8004d68:	0084      	lsls	r4, r0, #2
 8004d6a:	1824      	adds	r4, r4, r0
 8004d6c:	b249      	sxtb	r1, r1
 8004d6e:	00e4      	lsls	r4, r4, #3
 8004d70:	2900      	cmp	r1, #0
 8004d72:	db1d      	blt.n	8004db0 <HAL_PCD_EP_Open+0x50>
 8004d74:	0021      	movs	r1, r4
 8004d76:	2600      	movs	r6, #0
 8004d78:	192c      	adds	r4, r5, r4
 8004d7a:	3155      	adds	r1, #85	@ 0x55
 8004d7c:	3456      	adds	r4, #86	@ 0x56
 8004d7e:	31ff      	adds	r1, #255	@ 0xff
 8004d80:	34ff      	adds	r4, #255	@ 0xff
 8004d82:	1869      	adds	r1, r5, r1
 8004d84:	7026      	strb	r6, [r4, #0]
 8004d86:	7008      	strb	r0, [r1, #0]
 8004d88:	610a      	str	r2, [r1, #16]
 8004d8a:	70cb      	strb	r3, [r1, #3]
 8004d8c:	2b02      	cmp	r3, #2
 8004d8e:	d101      	bne.n	8004d94 <HAL_PCD_EP_Open+0x34>
 8004d90:	2300      	movs	r3, #0
 8004d92:	710b      	strb	r3, [r1, #4]
 8004d94:	24a5      	movs	r4, #165	@ 0xa5
 8004d96:	00a4      	lsls	r4, r4, #2
 8004d98:	5d2b      	ldrb	r3, [r5, r4]
 8004d9a:	2b01      	cmp	r3, #1
 8004d9c:	d00f      	beq.n	8004dbe <HAL_PCD_EP_Open+0x5e>
 8004d9e:	2301      	movs	r3, #1
 8004da0:	552b      	strb	r3, [r5, r4]
 8004da2:	6828      	ldr	r0, [r5, #0]
 8004da4:	f002 fb88 	bl	80074b8 <USB_ActivateEndpoint>
 8004da8:	2300      	movs	r3, #0
 8004daa:	2000      	movs	r0, #0
 8004dac:	552b      	strb	r3, [r5, r4]
 8004dae:	bd70      	pop	{r4, r5, r6, pc}
 8004db0:	0021      	movs	r1, r4
 8004db2:	2601      	movs	r6, #1
 8004db4:	3114      	adds	r1, #20
 8004db6:	192c      	adds	r4, r5, r4
 8004db8:	1869      	adds	r1, r5, r1
 8004dba:	7566      	strb	r6, [r4, #21]
 8004dbc:	e7e3      	b.n	8004d86 <HAL_PCD_EP_Open+0x26>
 8004dbe:	2002      	movs	r0, #2
 8004dc0:	e7f5      	b.n	8004dae <HAL_PCD_EP_Open+0x4e>
 8004dc2:	46c0      	nop			@ (mov r8, r8)

08004dc4 <HAL_PCD_EP_Close>:
 8004dc4:	2207      	movs	r2, #7
 8004dc6:	400a      	ands	r2, r1
 8004dc8:	0093      	lsls	r3, r2, #2
 8004dca:	189b      	adds	r3, r3, r2
 8004dcc:	b249      	sxtb	r1, r1
 8004dce:	b570      	push	{r4, r5, r6, lr}
 8004dd0:	00db      	lsls	r3, r3, #3
 8004dd2:	0004      	movs	r4, r0
 8004dd4:	2900      	cmp	r1, #0
 8004dd6:	db17      	blt.n	8004e08 <HAL_PCD_EP_Close+0x44>
 8004dd8:	0019      	movs	r1, r3
 8004dda:	3155      	adds	r1, #85	@ 0x55
 8004ddc:	31ff      	adds	r1, #255	@ 0xff
 8004dde:	1841      	adds	r1, r0, r1
 8004de0:	18c3      	adds	r3, r0, r3
 8004de2:	25a5      	movs	r5, #165	@ 0xa5
 8004de4:	2000      	movs	r0, #0
 8004de6:	3356      	adds	r3, #86	@ 0x56
 8004de8:	33ff      	adds	r3, #255	@ 0xff
 8004dea:	7018      	strb	r0, [r3, #0]
 8004dec:	00ad      	lsls	r5, r5, #2
 8004dee:	700a      	strb	r2, [r1, #0]
 8004df0:	5d63      	ldrb	r3, [r4, r5]
 8004df2:	2b01      	cmp	r3, #1
 8004df4:	d014      	beq.n	8004e20 <HAL_PCD_EP_Close+0x5c>
 8004df6:	2301      	movs	r3, #1
 8004df8:	5563      	strb	r3, [r4, r5]
 8004dfa:	6820      	ldr	r0, [r4, #0]
 8004dfc:	f002 fc9a 	bl	8007734 <USB_DeactivateEndpoint>
 8004e00:	2300      	movs	r3, #0
 8004e02:	2000      	movs	r0, #0
 8004e04:	5563      	strb	r3, [r4, r5]
 8004e06:	bd70      	pop	{r4, r5, r6, pc}
 8004e08:	0019      	movs	r1, r3
 8004e0a:	3114      	adds	r1, #20
 8004e0c:	18c3      	adds	r3, r0, r3
 8004e0e:	1841      	adds	r1, r0, r1
 8004e10:	25a5      	movs	r5, #165	@ 0xa5
 8004e12:	2001      	movs	r0, #1
 8004e14:	00ad      	lsls	r5, r5, #2
 8004e16:	7558      	strb	r0, [r3, #21]
 8004e18:	700a      	strb	r2, [r1, #0]
 8004e1a:	5d63      	ldrb	r3, [r4, r5]
 8004e1c:	2b01      	cmp	r3, #1
 8004e1e:	d1ea      	bne.n	8004df6 <HAL_PCD_EP_Close+0x32>
 8004e20:	2002      	movs	r0, #2
 8004e22:	e7f0      	b.n	8004e06 <HAL_PCD_EP_Close+0x42>

08004e24 <HAL_PCD_EP_Receive>:
 8004e24:	b570      	push	{r4, r5, r6, lr}
 8004e26:	2407      	movs	r4, #7
 8004e28:	4021      	ands	r1, r4
 8004e2a:	008c      	lsls	r4, r1, #2
 8004e2c:	1864      	adds	r4, r4, r1
 8004e2e:	00e4      	lsls	r4, r4, #3
 8004e30:	1905      	adds	r5, r0, r4
 8004e32:	002e      	movs	r6, r5
 8004e34:	3669      	adds	r6, #105	@ 0x69
 8004e36:	36ff      	adds	r6, #255	@ 0xff
 8004e38:	6032      	str	r2, [r6, #0]
 8004e3a:	002a      	movs	r2, r5
 8004e3c:	326d      	adds	r2, #109	@ 0x6d
 8004e3e:	32ff      	adds	r2, #255	@ 0xff
 8004e40:	6013      	str	r3, [r2, #0]
 8004e42:	2300      	movs	r3, #0
 8004e44:	3555      	adds	r5, #85	@ 0x55
 8004e46:	3455      	adds	r4, #85	@ 0x55
 8004e48:	6053      	str	r3, [r2, #4]
 8004e4a:	35ff      	adds	r5, #255	@ 0xff
 8004e4c:	3a17      	subs	r2, #23
 8004e4e:	34ff      	adds	r4, #255	@ 0xff
 8004e50:	7013      	strb	r3, [r2, #0]
 8004e52:	7029      	strb	r1, [r5, #0]
 8004e54:	1901      	adds	r1, r0, r4
 8004e56:	6800      	ldr	r0, [r0, #0]
 8004e58:	f002 fcea 	bl	8007830 <USB_EPStartXfer>
 8004e5c:	2000      	movs	r0, #0
 8004e5e:	bd70      	pop	{r4, r5, r6, pc}

08004e60 <HAL_PCD_EP_GetRxCount>:
 8004e60:	2307      	movs	r3, #7
 8004e62:	400b      	ands	r3, r1
 8004e64:	0099      	lsls	r1, r3, #2
 8004e66:	18c9      	adds	r1, r1, r3
 8004e68:	00c9      	lsls	r1, r1, #3
 8004e6a:	1840      	adds	r0, r0, r1
 8004e6c:	3071      	adds	r0, #113	@ 0x71
 8004e6e:	30ff      	adds	r0, #255	@ 0xff
 8004e70:	6800      	ldr	r0, [r0, #0]
 8004e72:	4770      	bx	lr

08004e74 <HAL_PCD_EP_Transmit>:
 8004e74:	b570      	push	{r4, r5, r6, lr}
 8004e76:	2407      	movs	r4, #7
 8004e78:	4021      	ands	r1, r4
 8004e7a:	008c      	lsls	r4, r1, #2
 8004e7c:	1864      	adds	r4, r4, r1
 8004e7e:	00e4      	lsls	r4, r4, #3
 8004e80:	1905      	adds	r5, r0, r4
 8004e82:	002e      	movs	r6, r5
 8004e84:	62aa      	str	r2, [r5, #40]	@ 0x28
 8004e86:	2201      	movs	r2, #1
 8004e88:	3638      	adds	r6, #56	@ 0x38
 8004e8a:	62eb      	str	r3, [r5, #44]	@ 0x2c
 8004e8c:	7032      	strb	r2, [r6, #0]
 8004e8e:	636b      	str	r3, [r5, #52]	@ 0x34
 8004e90:	2300      	movs	r3, #0
 8004e92:	3414      	adds	r4, #20
 8004e94:	7529      	strb	r1, [r5, #20]
 8004e96:	632b      	str	r3, [r5, #48]	@ 0x30
 8004e98:	756a      	strb	r2, [r5, #21]
 8004e9a:	1901      	adds	r1, r0, r4
 8004e9c:	6800      	ldr	r0, [r0, #0]
 8004e9e:	f002 fcc7 	bl	8007830 <USB_EPStartXfer>
 8004ea2:	2000      	movs	r0, #0
 8004ea4:	bd70      	pop	{r4, r5, r6, pc}
 8004ea6:	46c0      	nop			@ (mov r8, r8)

08004ea8 <HAL_PCD_EP_SetStall>:
 8004ea8:	2307      	movs	r3, #7
 8004eaa:	b570      	push	{r4, r5, r6, lr}
 8004eac:	7902      	ldrb	r2, [r0, #4]
 8004eae:	0004      	movs	r4, r0
 8004eb0:	400b      	ands	r3, r1
 8004eb2:	429a      	cmp	r2, r3
 8004eb4:	d331      	bcc.n	8004f1a <HAL_PCD_EP_SetStall+0x72>
 8004eb6:	b24a      	sxtb	r2, r1
 8004eb8:	2a00      	cmp	r2, #0
 8004eba:	db1b      	blt.n	8004ef4 <HAL_PCD_EP_SetStall+0x4c>
 8004ebc:	008a      	lsls	r2, r1, #2
 8004ebe:	1852      	adds	r2, r2, r1
 8004ec0:	00d2      	lsls	r2, r2, #3
 8004ec2:	0011      	movs	r1, r2
 8004ec4:	3155      	adds	r1, #85	@ 0x55
 8004ec6:	31ff      	adds	r1, #255	@ 0xff
 8004ec8:	1841      	adds	r1, r0, r1
 8004eca:	1882      	adds	r2, r0, r2
 8004ecc:	2000      	movs	r0, #0
 8004ece:	3256      	adds	r2, #86	@ 0x56
 8004ed0:	32ff      	adds	r2, #255	@ 0xff
 8004ed2:	7010      	strb	r0, [r2, #0]
 8004ed4:	25a5      	movs	r5, #165	@ 0xa5
 8004ed6:	2201      	movs	r2, #1
 8004ed8:	700b      	strb	r3, [r1, #0]
 8004eda:	708a      	strb	r2, [r1, #2]
 8004edc:	00ad      	lsls	r5, r5, #2
 8004ede:	5d63      	ldrb	r3, [r4, r5]
 8004ee0:	2b01      	cmp	r3, #1
 8004ee2:	d018      	beq.n	8004f16 <HAL_PCD_EP_SetStall+0x6e>
 8004ee4:	5562      	strb	r2, [r4, r5]
 8004ee6:	6820      	ldr	r0, [r4, #0]
 8004ee8:	f003 f872 	bl	8007fd0 <USB_EPSetStall>
 8004eec:	2300      	movs	r3, #0
 8004eee:	2000      	movs	r0, #0
 8004ef0:	5563      	strb	r3, [r4, r5]
 8004ef2:	bd70      	pop	{r4, r5, r6, pc}
 8004ef4:	009a      	lsls	r2, r3, #2
 8004ef6:	18d2      	adds	r2, r2, r3
 8004ef8:	00d2      	lsls	r2, r2, #3
 8004efa:	0011      	movs	r1, r2
 8004efc:	3114      	adds	r1, #20
 8004efe:	1841      	adds	r1, r0, r1
 8004f00:	1882      	adds	r2, r0, r2
 8004f02:	2001      	movs	r0, #1
 8004f04:	25a5      	movs	r5, #165	@ 0xa5
 8004f06:	7550      	strb	r0, [r2, #21]
 8004f08:	2201      	movs	r2, #1
 8004f0a:	700b      	strb	r3, [r1, #0]
 8004f0c:	708a      	strb	r2, [r1, #2]
 8004f0e:	00ad      	lsls	r5, r5, #2
 8004f10:	5d63      	ldrb	r3, [r4, r5]
 8004f12:	2b01      	cmp	r3, #1
 8004f14:	d1e6      	bne.n	8004ee4 <HAL_PCD_EP_SetStall+0x3c>
 8004f16:	2002      	movs	r0, #2
 8004f18:	e7eb      	b.n	8004ef2 <HAL_PCD_EP_SetStall+0x4a>
 8004f1a:	2001      	movs	r0, #1
 8004f1c:	e7e9      	b.n	8004ef2 <HAL_PCD_EP_SetStall+0x4a>
 8004f1e:	46c0      	nop			@ (mov r8, r8)

08004f20 <HAL_PCD_EP_ClrStall>:
 8004f20:	230f      	movs	r3, #15
 8004f22:	b570      	push	{r4, r5, r6, lr}
 8004f24:	7902      	ldrb	r2, [r0, #4]
 8004f26:	0004      	movs	r4, r0
 8004f28:	400b      	ands	r3, r1
 8004f2a:	429a      	cmp	r2, r3
 8004f2c:	d330      	bcc.n	8004f90 <HAL_PCD_EP_ClrStall+0x70>
 8004f2e:	2207      	movs	r2, #7
 8004f30:	400a      	ands	r2, r1
 8004f32:	0093      	lsls	r3, r2, #2
 8004f34:	189b      	adds	r3, r3, r2
 8004f36:	b249      	sxtb	r1, r1
 8004f38:	00db      	lsls	r3, r3, #3
 8004f3a:	2900      	cmp	r1, #0
 8004f3c:	db18      	blt.n	8004f70 <HAL_PCD_EP_ClrStall+0x50>
 8004f3e:	0019      	movs	r1, r3
 8004f40:	3155      	adds	r1, #85	@ 0x55
 8004f42:	31ff      	adds	r1, #255	@ 0xff
 8004f44:	1841      	adds	r1, r0, r1
 8004f46:	18c3      	adds	r3, r0, r3
 8004f48:	2600      	movs	r6, #0
 8004f4a:	2000      	movs	r0, #0
 8004f4c:	25a5      	movs	r5, #165	@ 0xa5
 8004f4e:	3356      	adds	r3, #86	@ 0x56
 8004f50:	33ff      	adds	r3, #255	@ 0xff
 8004f52:	7018      	strb	r0, [r3, #0]
 8004f54:	00ad      	lsls	r5, r5, #2
 8004f56:	708e      	strb	r6, [r1, #2]
 8004f58:	700a      	strb	r2, [r1, #0]
 8004f5a:	5d63      	ldrb	r3, [r4, r5]
 8004f5c:	2b01      	cmp	r3, #1
 8004f5e:	d015      	beq.n	8004f8c <HAL_PCD_EP_ClrStall+0x6c>
 8004f60:	2301      	movs	r3, #1
 8004f62:	5563      	strb	r3, [r4, r5]
 8004f64:	6820      	ldr	r0, [r4, #0]
 8004f66:	f003 f853 	bl	8008010 <USB_EPClearStall>
 8004f6a:	2000      	movs	r0, #0
 8004f6c:	5566      	strb	r6, [r4, r5]
 8004f6e:	bd70      	pop	{r4, r5, r6, pc}
 8004f70:	0019      	movs	r1, r3
 8004f72:	3114      	adds	r1, #20
 8004f74:	1841      	adds	r1, r0, r1
 8004f76:	18c3      	adds	r3, r0, r3
 8004f78:	2600      	movs	r6, #0
 8004f7a:	2001      	movs	r0, #1
 8004f7c:	25a5      	movs	r5, #165	@ 0xa5
 8004f7e:	7558      	strb	r0, [r3, #21]
 8004f80:	00ad      	lsls	r5, r5, #2
 8004f82:	708e      	strb	r6, [r1, #2]
 8004f84:	700a      	strb	r2, [r1, #0]
 8004f86:	5d63      	ldrb	r3, [r4, r5]
 8004f88:	2b01      	cmp	r3, #1
 8004f8a:	d1e9      	bne.n	8004f60 <HAL_PCD_EP_ClrStall+0x40>
 8004f8c:	2002      	movs	r0, #2
 8004f8e:	e7ee      	b.n	8004f6e <HAL_PCD_EP_ClrStall+0x4e>
 8004f90:	2001      	movs	r0, #1
 8004f92:	e7ec      	b.n	8004f6e <HAL_PCD_EP_ClrStall+0x4e>

08004f94 <HAL_PCDEx_PMAConfig>:
 8004f94:	b510      	push	{r4, lr}
 8004f96:	060c      	lsls	r4, r1, #24
 8004f98:	d50e      	bpl.n	8004fb8 <HAL_PCDEx_PMAConfig+0x24>
 8004f9a:	2407      	movs	r4, #7
 8004f9c:	400c      	ands	r4, r1
 8004f9e:	00a1      	lsls	r1, r4, #2
 8004fa0:	1909      	adds	r1, r1, r4
 8004fa2:	00c9      	lsls	r1, r1, #3
 8004fa4:	3114      	adds	r1, #20
 8004fa6:	1840      	adds	r0, r0, r1
 8004fa8:	b299      	uxth	r1, r3
 8004faa:	2a00      	cmp	r2, #0
 8004fac:	d10d      	bne.n	8004fca <HAL_PCDEx_PMAConfig+0x36>
 8004fae:	2300      	movs	r3, #0
 8004fb0:	80c1      	strh	r1, [r0, #6]
 8004fb2:	7303      	strb	r3, [r0, #12]
 8004fb4:	2000      	movs	r0, #0
 8004fb6:	bd10      	pop	{r4, pc}
 8004fb8:	008c      	lsls	r4, r1, #2
 8004fba:	1861      	adds	r1, r4, r1
 8004fbc:	00c9      	lsls	r1, r1, #3
 8004fbe:	3155      	adds	r1, #85	@ 0x55
 8004fc0:	31ff      	adds	r1, #255	@ 0xff
 8004fc2:	1840      	adds	r0, r0, r1
 8004fc4:	b299      	uxth	r1, r3
 8004fc6:	2a00      	cmp	r2, #0
 8004fc8:	d0f1      	beq.n	8004fae <HAL_PCDEx_PMAConfig+0x1a>
 8004fca:	6083      	str	r3, [r0, #8]
 8004fcc:	2301      	movs	r3, #1
 8004fce:	e7f0      	b.n	8004fb2 <HAL_PCDEx_PMAConfig+0x1e>

08004fd0 <HAL_PCDEx_ActivateLPM>:
 8004fd0:	22b5      	movs	r2, #181	@ 0xb5
 8004fd2:	2101      	movs	r1, #1
 8004fd4:	b510      	push	{r4, lr}
 8004fd6:	2400      	movs	r4, #0
 8004fd8:	0092      	lsls	r2, r2, #2
 8004fda:	6803      	ldr	r3, [r0, #0]
 8004fdc:	5081      	str	r1, [r0, r2]
 8004fde:	3a08      	subs	r2, #8
 8004fe0:	5484      	strb	r4, [r0, r2]
 8004fe2:	6d5a      	ldr	r2, [r3, #84]	@ 0x54
 8004fe4:	2000      	movs	r0, #0
 8004fe6:	430a      	orrs	r2, r1
 8004fe8:	655a      	str	r2, [r3, #84]	@ 0x54
 8004fea:	6d5a      	ldr	r2, [r3, #84]	@ 0x54
 8004fec:	3101      	adds	r1, #1
 8004fee:	430a      	orrs	r2, r1
 8004ff0:	655a      	str	r2, [r3, #84]	@ 0x54
 8004ff2:	bd10      	pop	{r4, pc}

08004ff4 <HAL_PWREx_EnableVddUSB>:
 8004ff4:	2380      	movs	r3, #128	@ 0x80
 8004ff6:	4a03      	ldr	r2, [pc, #12]	@ (8005004 <HAL_PWREx_EnableVddUSB+0x10>)
 8004ff8:	00db      	lsls	r3, r3, #3
 8004ffa:	6851      	ldr	r1, [r2, #4]
 8004ffc:	430b      	orrs	r3, r1
 8004ffe:	6053      	str	r3, [r2, #4]
 8005000:	4770      	bx	lr
 8005002:	46c0      	nop			@ (mov r8, r8)
 8005004:	40007000 	.word	0x40007000

08005008 <HAL_PWREx_ControlVoltageScaling>:
 8005008:	b570      	push	{r4, r5, r6, lr}
 800500a:	4c13      	ldr	r4, [pc, #76]	@ (8005058 <HAL_PWREx_ControlVoltageScaling+0x50>)
 800500c:	4a13      	ldr	r2, [pc, #76]	@ (800505c <HAL_PWREx_ControlVoltageScaling+0x54>)
 800500e:	6823      	ldr	r3, [r4, #0]
 8005010:	2500      	movs	r5, #0
 8005012:	4013      	ands	r3, r2
 8005014:	4303      	orrs	r3, r0
 8005016:	6023      	str	r3, [r4, #0]
 8005018:	2380      	movs	r3, #128	@ 0x80
 800501a:	009b      	lsls	r3, r3, #2
 800501c:	4298      	cmp	r0, r3
 800501e:	d001      	beq.n	8005024 <HAL_PWREx_ControlVoltageScaling+0x1c>
 8005020:	0028      	movs	r0, r5
 8005022:	bd70      	pop	{r4, r5, r6, pc}
 8005024:	4b0e      	ldr	r3, [pc, #56]	@ (8005060 <HAL_PWREx_ControlVoltageScaling+0x58>)
 8005026:	490f      	ldr	r1, [pc, #60]	@ (8005064 <HAL_PWREx_ControlVoltageScaling+0x5c>)
 8005028:	681b      	ldr	r3, [r3, #0]
 800502a:	0058      	lsls	r0, r3, #1
 800502c:	18c0      	adds	r0, r0, r3
 800502e:	0040      	lsls	r0, r0, #1
 8005030:	f7fb f870 	bl	8000114 <__udivsi3>
 8005034:	2280      	movs	r2, #128	@ 0x80
 8005036:	6963      	ldr	r3, [r4, #20]
 8005038:	00d2      	lsls	r2, r2, #3
 800503a:	3001      	adds	r0, #1
 800503c:	4213      	tst	r3, r2
 800503e:	d102      	bne.n	8005046 <HAL_PWREx_ControlVoltageScaling+0x3e>
 8005040:	e7ee      	b.n	8005020 <HAL_PWREx_ControlVoltageScaling+0x18>
 8005042:	2800      	cmp	r0, #0
 8005044:	d005      	beq.n	8005052 <HAL_PWREx_ControlVoltageScaling+0x4a>
 8005046:	6963      	ldr	r3, [r4, #20]
 8005048:	3801      	subs	r0, #1
 800504a:	4213      	tst	r3, r2
 800504c:	d1f9      	bne.n	8005042 <HAL_PWREx_ControlVoltageScaling+0x3a>
 800504e:	2500      	movs	r5, #0
 8005050:	e7e6      	b.n	8005020 <HAL_PWREx_ControlVoltageScaling+0x18>
 8005052:	2503      	movs	r5, #3
 8005054:	e7e4      	b.n	8005020 <HAL_PWREx_ControlVoltageScaling+0x18>
 8005056:	46c0      	nop			@ (mov r8, r8)
 8005058:	40007000 	.word	0x40007000
 800505c:	fffff9ff 	.word	0xfffff9ff
 8005060:	20000140 	.word	0x20000140
 8005064:	000f4240 	.word	0x000f4240

08005068 <HAL_RCC_OscConfig>:
 8005068:	b5f0      	push	{r4, r5, r6, r7, lr}
 800506a:	46ce      	mov	lr, r9
 800506c:	4647      	mov	r7, r8
 800506e:	b580      	push	{r7, lr}
 8005070:	0004      	movs	r4, r0
 8005072:	b083      	sub	sp, #12
 8005074:	2800      	cmp	r0, #0
 8005076:	d027      	beq.n	80050c8 <HAL_RCC_OscConfig+0x60>
 8005078:	6803      	ldr	r3, [r0, #0]
 800507a:	07da      	lsls	r2, r3, #31
 800507c:	d511      	bpl.n	80050a2 <HAL_RCC_OscConfig+0x3a>
 800507e:	2238      	movs	r2, #56	@ 0x38
 8005080:	49c3      	ldr	r1, [pc, #780]	@ (8005390 <HAL_RCC_OscConfig+0x328>)
 8005082:	6888      	ldr	r0, [r1, #8]
 8005084:	68c9      	ldr	r1, [r1, #12]
 8005086:	4002      	ands	r2, r0
 8005088:	2a10      	cmp	r2, #16
 800508a:	d100      	bne.n	800508e <HAL_RCC_OscConfig+0x26>
 800508c:	e0e9      	b.n	8005262 <HAL_RCC_OscConfig+0x1fa>
 800508e:	2a08      	cmp	r2, #8
 8005090:	d000      	beq.n	8005094 <HAL_RCC_OscConfig+0x2c>
 8005092:	e0ea      	b.n	800526a <HAL_RCC_OscConfig+0x202>
 8005094:	4abe      	ldr	r2, [pc, #760]	@ (8005390 <HAL_RCC_OscConfig+0x328>)
 8005096:	6812      	ldr	r2, [r2, #0]
 8005098:	0392      	lsls	r2, r2, #14
 800509a:	d502      	bpl.n	80050a2 <HAL_RCC_OscConfig+0x3a>
 800509c:	6862      	ldr	r2, [r4, #4]
 800509e:	2a00      	cmp	r2, #0
 80050a0:	d012      	beq.n	80050c8 <HAL_RCC_OscConfig+0x60>
 80050a2:	079a      	lsls	r2, r3, #30
 80050a4:	d532      	bpl.n	800510c <HAL_RCC_OscConfig+0xa4>
 80050a6:	2338      	movs	r3, #56	@ 0x38
 80050a8:	4ab9      	ldr	r2, [pc, #740]	@ (8005390 <HAL_RCC_OscConfig+0x328>)
 80050aa:	6891      	ldr	r1, [r2, #8]
 80050ac:	400b      	ands	r3, r1
 80050ae:	68d1      	ldr	r1, [r2, #12]
 80050b0:	2b10      	cmp	r3, #16
 80050b2:	d100      	bne.n	80050b6 <HAL_RCC_OscConfig+0x4e>
 80050b4:	e129      	b.n	800530a <HAL_RCC_OscConfig+0x2a2>
 80050b6:	2b00      	cmp	r3, #0
 80050b8:	d000      	beq.n	80050bc <HAL_RCC_OscConfig+0x54>
 80050ba:	e12b      	b.n	8005314 <HAL_RCC_OscConfig+0x2ac>
 80050bc:	6813      	ldr	r3, [r2, #0]
 80050be:	055b      	lsls	r3, r3, #21
 80050c0:	d508      	bpl.n	80050d4 <HAL_RCC_OscConfig+0x6c>
 80050c2:	68e3      	ldr	r3, [r4, #12]
 80050c4:	2b00      	cmp	r3, #0
 80050c6:	d105      	bne.n	80050d4 <HAL_RCC_OscConfig+0x6c>
 80050c8:	2001      	movs	r0, #1
 80050ca:	b003      	add	sp, #12
 80050cc:	bcc0      	pop	{r6, r7}
 80050ce:	46b9      	mov	r9, r7
 80050d0:	46b0      	mov	r8, r6
 80050d2:	bdf0      	pop	{r4, r5, r6, r7, pc}
 80050d4:	6851      	ldr	r1, [r2, #4]
 80050d6:	6963      	ldr	r3, [r4, #20]
 80050d8:	48ae      	ldr	r0, [pc, #696]	@ (8005394 <HAL_RCC_OscConfig+0x32c>)
 80050da:	021b      	lsls	r3, r3, #8
 80050dc:	4001      	ands	r1, r0
 80050de:	430b      	orrs	r3, r1
 80050e0:	6053      	str	r3, [r2, #4]
 80050e2:	4aab      	ldr	r2, [pc, #684]	@ (8005390 <HAL_RCC_OscConfig+0x328>)
 80050e4:	49ac      	ldr	r1, [pc, #688]	@ (8005398 <HAL_RCC_OscConfig+0x330>)
 80050e6:	6813      	ldr	r3, [r2, #0]
 80050e8:	400b      	ands	r3, r1
 80050ea:	6921      	ldr	r1, [r4, #16]
 80050ec:	430b      	orrs	r3, r1
 80050ee:	6013      	str	r3, [r2, #0]
 80050f0:	6813      	ldr	r3, [r2, #0]
 80050f2:	4aaa      	ldr	r2, [pc, #680]	@ (800539c <HAL_RCC_OscConfig+0x334>)
 80050f4:	049b      	lsls	r3, r3, #18
 80050f6:	0f5b      	lsrs	r3, r3, #29
 80050f8:	40da      	lsrs	r2, r3
 80050fa:	49a9      	ldr	r1, [pc, #676]	@ (80053a0 <HAL_RCC_OscConfig+0x338>)
 80050fc:	600a      	str	r2, [r1, #0]
 80050fe:	4ba9      	ldr	r3, [pc, #676]	@ (80053a4 <HAL_RCC_OscConfig+0x33c>)
 8005100:	6818      	ldr	r0, [r3, #0]
 8005102:	f7fe f9bd 	bl	8003480 <HAL_InitTick>
 8005106:	2800      	cmp	r0, #0
 8005108:	d1de      	bne.n	80050c8 <HAL_RCC_OscConfig+0x60>
 800510a:	6823      	ldr	r3, [r4, #0]
 800510c:	071a      	lsls	r2, r3, #28
 800510e:	d500      	bpl.n	8005112 <HAL_RCC_OscConfig+0xaa>
 8005110:	e089      	b.n	8005226 <HAL_RCC_OscConfig+0x1be>
 8005112:	075a      	lsls	r2, r3, #29
 8005114:	d546      	bpl.n	80051a4 <HAL_RCC_OscConfig+0x13c>
 8005116:	2238      	movs	r2, #56	@ 0x38
 8005118:	499d      	ldr	r1, [pc, #628]	@ (8005390 <HAL_RCC_OscConfig+0x328>)
 800511a:	6888      	ldr	r0, [r1, #8]
 800511c:	4002      	ands	r2, r0
 800511e:	2a20      	cmp	r2, #32
 8005120:	d100      	bne.n	8005124 <HAL_RCC_OscConfig+0xbc>
 8005122:	e0e9      	b.n	80052f8 <HAL_RCC_OscConfig+0x290>
 8005124:	2380      	movs	r3, #128	@ 0x80
 8005126:	2000      	movs	r0, #0
 8005128:	6bca      	ldr	r2, [r1, #60]	@ 0x3c
 800512a:	055b      	lsls	r3, r3, #21
 800512c:	4681      	mov	r9, r0
 800512e:	421a      	tst	r2, r3
 8005130:	d108      	bne.n	8005144 <HAL_RCC_OscConfig+0xdc>
 8005132:	6bca      	ldr	r2, [r1, #60]	@ 0x3c
 8005134:	431a      	orrs	r2, r3
 8005136:	63ca      	str	r2, [r1, #60]	@ 0x3c
 8005138:	6bca      	ldr	r2, [r1, #60]	@ 0x3c
 800513a:	4013      	ands	r3, r2
 800513c:	9301      	str	r3, [sp, #4]
 800513e:	9b01      	ldr	r3, [sp, #4]
 8005140:	2301      	movs	r3, #1
 8005142:	4699      	mov	r9, r3
 8005144:	2780      	movs	r7, #128	@ 0x80
 8005146:	4e98      	ldr	r6, [pc, #608]	@ (80053a8 <HAL_RCC_OscConfig+0x340>)
 8005148:	007f      	lsls	r7, r7, #1
 800514a:	6833      	ldr	r3, [r6, #0]
 800514c:	423b      	tst	r3, r7
 800514e:	d100      	bne.n	8005152 <HAL_RCC_OscConfig+0xea>
 8005150:	e136      	b.n	80053c0 <HAL_RCC_OscConfig+0x358>
 8005152:	68a3      	ldr	r3, [r4, #8]
 8005154:	2b01      	cmp	r3, #1
 8005156:	d100      	bne.n	800515a <HAL_RCC_OscConfig+0xf2>
 8005158:	e103      	b.n	8005362 <HAL_RCC_OscConfig+0x2fa>
 800515a:	2b05      	cmp	r3, #5
 800515c:	d100      	bne.n	8005160 <HAL_RCC_OscConfig+0xf8>
 800515e:	e205      	b.n	800556c <HAL_RCC_OscConfig+0x504>
 8005160:	2101      	movs	r1, #1
 8005162:	4e8b      	ldr	r6, [pc, #556]	@ (8005390 <HAL_RCC_OscConfig+0x328>)
 8005164:	6df2      	ldr	r2, [r6, #92]	@ 0x5c
 8005166:	438a      	bics	r2, r1
 8005168:	65f2      	str	r2, [r6, #92]	@ 0x5c
 800516a:	6df2      	ldr	r2, [r6, #92]	@ 0x5c
 800516c:	3103      	adds	r1, #3
 800516e:	438a      	bics	r2, r1
 8005170:	65f2      	str	r2, [r6, #92]	@ 0x5c
 8005172:	2b00      	cmp	r3, #0
 8005174:	d000      	beq.n	8005178 <HAL_RCC_OscConfig+0x110>
 8005176:	e0f8      	b.n	800536a <HAL_RCC_OscConfig+0x302>
 8005178:	f7fe f9c8 	bl	800350c <HAL_GetTick>
 800517c:	2302      	movs	r3, #2
 800517e:	0007      	movs	r7, r0
 8005180:	4698      	mov	r8, r3
 8005182:	4d8a      	ldr	r5, [pc, #552]	@ (80053ac <HAL_RCC_OscConfig+0x344>)
 8005184:	e005      	b.n	8005192 <HAL_RCC_OscConfig+0x12a>
 8005186:	f7fe f9c1 	bl	800350c <HAL_GetTick>
 800518a:	1bc0      	subs	r0, r0, r7
 800518c:	42a8      	cmp	r0, r5
 800518e:	d900      	bls.n	8005192 <HAL_RCC_OscConfig+0x12a>
 8005190:	e125      	b.n	80053de <HAL_RCC_OscConfig+0x376>
 8005192:	4642      	mov	r2, r8
 8005194:	6df3      	ldr	r3, [r6, #92]	@ 0x5c
 8005196:	421a      	tst	r2, r3
 8005198:	d1f5      	bne.n	8005186 <HAL_RCC_OscConfig+0x11e>
 800519a:	464b      	mov	r3, r9
 800519c:	2b01      	cmp	r3, #1
 800519e:	d100      	bne.n	80051a2 <HAL_RCC_OscConfig+0x13a>
 80051a0:	e16f      	b.n	8005482 <HAL_RCC_OscConfig+0x41a>
 80051a2:	6823      	ldr	r3, [r4, #0]
 80051a4:	069b      	lsls	r3, r3, #26
 80051a6:	d518      	bpl.n	80051da <HAL_RCC_OscConfig+0x172>
 80051a8:	69e3      	ldr	r3, [r4, #28]
 80051aa:	4d79      	ldr	r5, [pc, #484]	@ (8005390 <HAL_RCC_OscConfig+0x328>)
 80051ac:	2b00      	cmp	r3, #0
 80051ae:	d100      	bne.n	80051b2 <HAL_RCC_OscConfig+0x14a>
 80051b0:	e12a      	b.n	8005408 <HAL_RCC_OscConfig+0x3a0>
 80051b2:	2380      	movs	r3, #128	@ 0x80
 80051b4:	682a      	ldr	r2, [r5, #0]
 80051b6:	03db      	lsls	r3, r3, #15
 80051b8:	4313      	orrs	r3, r2
 80051ba:	602b      	str	r3, [r5, #0]
 80051bc:	f7fe f9a6 	bl	800350c <HAL_GetTick>
 80051c0:	2780      	movs	r7, #128	@ 0x80
 80051c2:	0006      	movs	r6, r0
 80051c4:	043f      	lsls	r7, r7, #16
 80051c6:	e005      	b.n	80051d4 <HAL_RCC_OscConfig+0x16c>
 80051c8:	f7fe f9a0 	bl	800350c <HAL_GetTick>
 80051cc:	1b80      	subs	r0, r0, r6
 80051ce:	2802      	cmp	r0, #2
 80051d0:	d900      	bls.n	80051d4 <HAL_RCC_OscConfig+0x16c>
 80051d2:	e104      	b.n	80053de <HAL_RCC_OscConfig+0x376>
 80051d4:	682b      	ldr	r3, [r5, #0]
 80051d6:	423b      	tst	r3, r7
 80051d8:	d0f6      	beq.n	80051c8 <HAL_RCC_OscConfig+0x160>
 80051da:	6a23      	ldr	r3, [r4, #32]
 80051dc:	2b00      	cmp	r3, #0
 80051de:	d020      	beq.n	8005222 <HAL_RCC_OscConfig+0x1ba>
 80051e0:	2238      	movs	r2, #56	@ 0x38
 80051e2:	4d6b      	ldr	r5, [pc, #428]	@ (8005390 <HAL_RCC_OscConfig+0x328>)
 80051e4:	68a9      	ldr	r1, [r5, #8]
 80051e6:	400a      	ands	r2, r1
 80051e8:	2a10      	cmp	r2, #16
 80051ea:	d100      	bne.n	80051ee <HAL_RCC_OscConfig+0x186>
 80051ec:	e150      	b.n	8005490 <HAL_RCC_OscConfig+0x428>
 80051ee:	2b02      	cmp	r3, #2
 80051f0:	d100      	bne.n	80051f4 <HAL_RCC_OscConfig+0x18c>
 80051f2:	e17b      	b.n	80054ec <HAL_RCC_OscConfig+0x484>
 80051f4:	682b      	ldr	r3, [r5, #0]
 80051f6:	4a6e      	ldr	r2, [pc, #440]	@ (80053b0 <HAL_RCC_OscConfig+0x348>)
 80051f8:	2680      	movs	r6, #128	@ 0x80
 80051fa:	4013      	ands	r3, r2
 80051fc:	602b      	str	r3, [r5, #0]
 80051fe:	f7fe f985 	bl	800350c <HAL_GetTick>
 8005202:	04b6      	lsls	r6, r6, #18
 8005204:	0004      	movs	r4, r0
 8005206:	e005      	b.n	8005214 <HAL_RCC_OscConfig+0x1ac>
 8005208:	f7fe f980 	bl	800350c <HAL_GetTick>
 800520c:	1b00      	subs	r0, r0, r4
 800520e:	2802      	cmp	r0, #2
 8005210:	d900      	bls.n	8005214 <HAL_RCC_OscConfig+0x1ac>
 8005212:	e0e4      	b.n	80053de <HAL_RCC_OscConfig+0x376>
 8005214:	682b      	ldr	r3, [r5, #0]
 8005216:	4233      	tst	r3, r6
 8005218:	d1f6      	bne.n	8005208 <HAL_RCC_OscConfig+0x1a0>
 800521a:	68eb      	ldr	r3, [r5, #12]
 800521c:	4a65      	ldr	r2, [pc, #404]	@ (80053b4 <HAL_RCC_OscConfig+0x34c>)
 800521e:	4013      	ands	r3, r2
 8005220:	60eb      	str	r3, [r5, #12]
 8005222:	2000      	movs	r0, #0
 8005224:	e751      	b.n	80050ca <HAL_RCC_OscConfig+0x62>
 8005226:	2238      	movs	r2, #56	@ 0x38
 8005228:	4d59      	ldr	r5, [pc, #356]	@ (8005390 <HAL_RCC_OscConfig+0x328>)
 800522a:	68a9      	ldr	r1, [r5, #8]
 800522c:	400a      	ands	r2, r1
 800522e:	2a18      	cmp	r2, #24
 8005230:	d044      	beq.n	80052bc <HAL_RCC_OscConfig+0x254>
 8005232:	69a3      	ldr	r3, [r4, #24]
 8005234:	2b00      	cmp	r3, #0
 8005236:	d100      	bne.n	800523a <HAL_RCC_OscConfig+0x1d2>
 8005238:	e0d3      	b.n	80053e2 <HAL_RCC_OscConfig+0x37a>
 800523a:	2201      	movs	r2, #1
 800523c:	6e2b      	ldr	r3, [r5, #96]	@ 0x60
 800523e:	2702      	movs	r7, #2
 8005240:	4313      	orrs	r3, r2
 8005242:	662b      	str	r3, [r5, #96]	@ 0x60
 8005244:	f7fe f962 	bl	800350c <HAL_GetTick>
 8005248:	0006      	movs	r6, r0
 800524a:	e005      	b.n	8005258 <HAL_RCC_OscConfig+0x1f0>
 800524c:	f7fe f95e 	bl	800350c <HAL_GetTick>
 8005250:	1b80      	subs	r0, r0, r6
 8005252:	2802      	cmp	r0, #2
 8005254:	d900      	bls.n	8005258 <HAL_RCC_OscConfig+0x1f0>
 8005256:	e0c2      	b.n	80053de <HAL_RCC_OscConfig+0x376>
 8005258:	6e2b      	ldr	r3, [r5, #96]	@ 0x60
 800525a:	421f      	tst	r7, r3
 800525c:	d0f6      	beq.n	800524c <HAL_RCC_OscConfig+0x1e4>
 800525e:	6823      	ldr	r3, [r4, #0]
 8005260:	e757      	b.n	8005112 <HAL_RCC_OscConfig+0xaa>
 8005262:	43c9      	mvns	r1, r1
 8005264:	0789      	lsls	r1, r1, #30
 8005266:	d100      	bne.n	800526a <HAL_RCC_OscConfig+0x202>
 8005268:	e714      	b.n	8005094 <HAL_RCC_OscConfig+0x2c>
 800526a:	2280      	movs	r2, #128	@ 0x80
 800526c:	6863      	ldr	r3, [r4, #4]
 800526e:	0252      	lsls	r2, r2, #9
 8005270:	4293      	cmp	r3, r2
 8005272:	d02c      	beq.n	80052ce <HAL_RCC_OscConfig+0x266>
 8005274:	21a0      	movs	r1, #160	@ 0xa0
 8005276:	02c9      	lsls	r1, r1, #11
 8005278:	428b      	cmp	r3, r1
 800527a:	d100      	bne.n	800527e <HAL_RCC_OscConfig+0x216>
 800527c:	e0eb      	b.n	8005456 <HAL_RCC_OscConfig+0x3ee>
 800527e:	4d44      	ldr	r5, [pc, #272]	@ (8005390 <HAL_RCC_OscConfig+0x328>)
 8005280:	494d      	ldr	r1, [pc, #308]	@ (80053b8 <HAL_RCC_OscConfig+0x350>)
 8005282:	682a      	ldr	r2, [r5, #0]
 8005284:	400a      	ands	r2, r1
 8005286:	602a      	str	r2, [r5, #0]
 8005288:	682a      	ldr	r2, [r5, #0]
 800528a:	494c      	ldr	r1, [pc, #304]	@ (80053bc <HAL_RCC_OscConfig+0x354>)
 800528c:	400a      	ands	r2, r1
 800528e:	602a      	str	r2, [r5, #0]
 8005290:	2b00      	cmp	r3, #0
 8005292:	d120      	bne.n	80052d6 <HAL_RCC_OscConfig+0x26e>
 8005294:	f7fe f93a 	bl	800350c <HAL_GetTick>
 8005298:	2780      	movs	r7, #128	@ 0x80
 800529a:	0006      	movs	r6, r0
 800529c:	02bf      	lsls	r7, r7, #10
 800529e:	e005      	b.n	80052ac <HAL_RCC_OscConfig+0x244>
 80052a0:	f7fe f934 	bl	800350c <HAL_GetTick>
 80052a4:	1b80      	subs	r0, r0, r6
 80052a6:	2864      	cmp	r0, #100	@ 0x64
 80052a8:	d900      	bls.n	80052ac <HAL_RCC_OscConfig+0x244>
 80052aa:	e098      	b.n	80053de <HAL_RCC_OscConfig+0x376>
 80052ac:	682b      	ldr	r3, [r5, #0]
 80052ae:	423b      	tst	r3, r7
 80052b0:	d1f6      	bne.n	80052a0 <HAL_RCC_OscConfig+0x238>
 80052b2:	6823      	ldr	r3, [r4, #0]
 80052b4:	079a      	lsls	r2, r3, #30
 80052b6:	d400      	bmi.n	80052ba <HAL_RCC_OscConfig+0x252>
 80052b8:	e728      	b.n	800510c <HAL_RCC_OscConfig+0xa4>
 80052ba:	e6f4      	b.n	80050a6 <HAL_RCC_OscConfig+0x3e>
 80052bc:	6e2a      	ldr	r2, [r5, #96]	@ 0x60
 80052be:	0792      	lsls	r2, r2, #30
 80052c0:	d400      	bmi.n	80052c4 <HAL_RCC_OscConfig+0x25c>
 80052c2:	e726      	b.n	8005112 <HAL_RCC_OscConfig+0xaa>
 80052c4:	69a2      	ldr	r2, [r4, #24]
 80052c6:	2a00      	cmp	r2, #0
 80052c8:	d000      	beq.n	80052cc <HAL_RCC_OscConfig+0x264>
 80052ca:	e722      	b.n	8005112 <HAL_RCC_OscConfig+0xaa>
 80052cc:	e6fc      	b.n	80050c8 <HAL_RCC_OscConfig+0x60>
 80052ce:	4a30      	ldr	r2, [pc, #192]	@ (8005390 <HAL_RCC_OscConfig+0x328>)
 80052d0:	6811      	ldr	r1, [r2, #0]
 80052d2:	430b      	orrs	r3, r1
 80052d4:	6013      	str	r3, [r2, #0]
 80052d6:	f7fe f919 	bl	800350c <HAL_GetTick>
 80052da:	2680      	movs	r6, #128	@ 0x80
 80052dc:	0005      	movs	r5, r0
 80052de:	4f2c      	ldr	r7, [pc, #176]	@ (8005390 <HAL_RCC_OscConfig+0x328>)
 80052e0:	02b6      	lsls	r6, r6, #10
 80052e2:	e004      	b.n	80052ee <HAL_RCC_OscConfig+0x286>
 80052e4:	f7fe f912 	bl	800350c <HAL_GetTick>
 80052e8:	1b40      	subs	r0, r0, r5
 80052ea:	2864      	cmp	r0, #100	@ 0x64
 80052ec:	d877      	bhi.n	80053de <HAL_RCC_OscConfig+0x376>
 80052ee:	683b      	ldr	r3, [r7, #0]
 80052f0:	4233      	tst	r3, r6
 80052f2:	d0f7      	beq.n	80052e4 <HAL_RCC_OscConfig+0x27c>
 80052f4:	6823      	ldr	r3, [r4, #0]
 80052f6:	e7dd      	b.n	80052b4 <HAL_RCC_OscConfig+0x24c>
 80052f8:	6dca      	ldr	r2, [r1, #92]	@ 0x5c
 80052fa:	0792      	lsls	r2, r2, #30
 80052fc:	d400      	bmi.n	8005300 <HAL_RCC_OscConfig+0x298>
 80052fe:	e751      	b.n	80051a4 <HAL_RCC_OscConfig+0x13c>
 8005300:	68a2      	ldr	r2, [r4, #8]
 8005302:	2a00      	cmp	r2, #0
 8005304:	d000      	beq.n	8005308 <HAL_RCC_OscConfig+0x2a0>
 8005306:	e74d      	b.n	80051a4 <HAL_RCC_OscConfig+0x13c>
 8005308:	e6de      	b.n	80050c8 <HAL_RCC_OscConfig+0x60>
 800530a:	3b0d      	subs	r3, #13
 800530c:	400b      	ands	r3, r1
 800530e:	2b02      	cmp	r3, #2
 8005310:	d100      	bne.n	8005314 <HAL_RCC_OscConfig+0x2ac>
 8005312:	e0aa      	b.n	800546a <HAL_RCC_OscConfig+0x402>
 8005314:	68e3      	ldr	r3, [r4, #12]
 8005316:	4d1e      	ldr	r5, [pc, #120]	@ (8005390 <HAL_RCC_OscConfig+0x328>)
 8005318:	2b00      	cmp	r3, #0
 800531a:	d100      	bne.n	800531e <HAL_RCC_OscConfig+0x2b6>
 800531c:	e087      	b.n	800542e <HAL_RCC_OscConfig+0x3c6>
 800531e:	682b      	ldr	r3, [r5, #0]
 8005320:	4a1d      	ldr	r2, [pc, #116]	@ (8005398 <HAL_RCC_OscConfig+0x330>)
 8005322:	2780      	movs	r7, #128	@ 0x80
 8005324:	4013      	ands	r3, r2
 8005326:	6922      	ldr	r2, [r4, #16]
 8005328:	00ff      	lsls	r7, r7, #3
 800532a:	4313      	orrs	r3, r2
 800532c:	602b      	str	r3, [r5, #0]
 800532e:	2380      	movs	r3, #128	@ 0x80
 8005330:	682a      	ldr	r2, [r5, #0]
 8005332:	005b      	lsls	r3, r3, #1
 8005334:	4313      	orrs	r3, r2
 8005336:	602b      	str	r3, [r5, #0]
 8005338:	f7fe f8e8 	bl	800350c <HAL_GetTick>
 800533c:	0006      	movs	r6, r0
 800533e:	e004      	b.n	800534a <HAL_RCC_OscConfig+0x2e2>
 8005340:	f7fe f8e4 	bl	800350c <HAL_GetTick>
 8005344:	1b80      	subs	r0, r0, r6
 8005346:	2802      	cmp	r0, #2
 8005348:	d849      	bhi.n	80053de <HAL_RCC_OscConfig+0x376>
 800534a:	682b      	ldr	r3, [r5, #0]
 800534c:	423b      	tst	r3, r7
 800534e:	d0f7      	beq.n	8005340 <HAL_RCC_OscConfig+0x2d8>
 8005350:	686a      	ldr	r2, [r5, #4]
 8005352:	6963      	ldr	r3, [r4, #20]
 8005354:	490f      	ldr	r1, [pc, #60]	@ (8005394 <HAL_RCC_OscConfig+0x32c>)
 8005356:	021b      	lsls	r3, r3, #8
 8005358:	400a      	ands	r2, r1
 800535a:	4313      	orrs	r3, r2
 800535c:	606b      	str	r3, [r5, #4]
 800535e:	6823      	ldr	r3, [r4, #0]
 8005360:	e6d4      	b.n	800510c <HAL_RCC_OscConfig+0xa4>
 8005362:	490b      	ldr	r1, [pc, #44]	@ (8005390 <HAL_RCC_OscConfig+0x328>)
 8005364:	6dca      	ldr	r2, [r1, #92]	@ 0x5c
 8005366:	4313      	orrs	r3, r2
 8005368:	65cb      	str	r3, [r1, #92]	@ 0x5c
 800536a:	f7fe f8cf 	bl	800350c <HAL_GetTick>
 800536e:	4b08      	ldr	r3, [pc, #32]	@ (8005390 <HAL_RCC_OscConfig+0x328>)
 8005370:	0006      	movs	r6, r0
 8005372:	4698      	mov	r8, r3
 8005374:	2702      	movs	r7, #2
 8005376:	4d0d      	ldr	r5, [pc, #52]	@ (80053ac <HAL_RCC_OscConfig+0x344>)
 8005378:	e004      	b.n	8005384 <HAL_RCC_OscConfig+0x31c>
 800537a:	f7fe f8c7 	bl	800350c <HAL_GetTick>
 800537e:	1b80      	subs	r0, r0, r6
 8005380:	42a8      	cmp	r0, r5
 8005382:	d82c      	bhi.n	80053de <HAL_RCC_OscConfig+0x376>
 8005384:	4643      	mov	r3, r8
 8005386:	6ddb      	ldr	r3, [r3, #92]	@ 0x5c
 8005388:	421f      	tst	r7, r3
 800538a:	d0f6      	beq.n	800537a <HAL_RCC_OscConfig+0x312>
 800538c:	e705      	b.n	800519a <HAL_RCC_OscConfig+0x132>
 800538e:	46c0      	nop			@ (mov r8, r8)
 8005390:	40021000 	.word	0x40021000
 8005394:	ffff80ff 	.word	0xffff80ff
 8005398:	ffffc7ff 	.word	0xffffc7ff
 800539c:	00f42400 	.word	0x00f42400
 80053a0:	20000140 	.word	0x20000140
 80053a4:	20000148 	.word	0x20000148
 80053a8:	40007000 	.word	0x40007000
 80053ac:	00001388 	.word	0x00001388
 80053b0:	feffffff 	.word	0xfeffffff
 80053b4:	eefefffc 	.word	0xeefefffc
 80053b8:	fffeffff 	.word	0xfffeffff
 80053bc:	fffbffff 	.word	0xfffbffff
 80053c0:	6833      	ldr	r3, [r6, #0]
 80053c2:	433b      	orrs	r3, r7
 80053c4:	6033      	str	r3, [r6, #0]
 80053c6:	f7fe f8a1 	bl	800350c <HAL_GetTick>
 80053ca:	0005      	movs	r5, r0
 80053cc:	6833      	ldr	r3, [r6, #0]
 80053ce:	423b      	tst	r3, r7
 80053d0:	d000      	beq.n	80053d4 <HAL_RCC_OscConfig+0x36c>
 80053d2:	e6be      	b.n	8005152 <HAL_RCC_OscConfig+0xea>
 80053d4:	f7fe f89a 	bl	800350c <HAL_GetTick>
 80053d8:	1b40      	subs	r0, r0, r5
 80053da:	2802      	cmp	r0, #2
 80053dc:	d9f6      	bls.n	80053cc <HAL_RCC_OscConfig+0x364>
 80053de:	2003      	movs	r0, #3
 80053e0:	e673      	b.n	80050ca <HAL_RCC_OscConfig+0x62>
 80053e2:	2201      	movs	r2, #1
 80053e4:	6e2b      	ldr	r3, [r5, #96]	@ 0x60
 80053e6:	2702      	movs	r7, #2
 80053e8:	4393      	bics	r3, r2
 80053ea:	662b      	str	r3, [r5, #96]	@ 0x60
 80053ec:	f7fe f88e 	bl	800350c <HAL_GetTick>
 80053f0:	0006      	movs	r6, r0
 80053f2:	e004      	b.n	80053fe <HAL_RCC_OscConfig+0x396>
 80053f4:	f7fe f88a 	bl	800350c <HAL_GetTick>
 80053f8:	1b80      	subs	r0, r0, r6
 80053fa:	2802      	cmp	r0, #2
 80053fc:	d8ef      	bhi.n	80053de <HAL_RCC_OscConfig+0x376>
 80053fe:	6e2b      	ldr	r3, [r5, #96]	@ 0x60
 8005400:	421f      	tst	r7, r3
 8005402:	d1f7      	bne.n	80053f4 <HAL_RCC_OscConfig+0x38c>
 8005404:	6823      	ldr	r3, [r4, #0]
 8005406:	e684      	b.n	8005112 <HAL_RCC_OscConfig+0xaa>
 8005408:	682b      	ldr	r3, [r5, #0]
 800540a:	4a60      	ldr	r2, [pc, #384]	@ (800558c <HAL_RCC_OscConfig+0x524>)
 800540c:	2780      	movs	r7, #128	@ 0x80
 800540e:	4013      	ands	r3, r2
 8005410:	602b      	str	r3, [r5, #0]
 8005412:	f7fe f87b 	bl	800350c <HAL_GetTick>
 8005416:	043f      	lsls	r7, r7, #16
 8005418:	0006      	movs	r6, r0
 800541a:	e004      	b.n	8005426 <HAL_RCC_OscConfig+0x3be>
 800541c:	f7fe f876 	bl	800350c <HAL_GetTick>
 8005420:	1b80      	subs	r0, r0, r6
 8005422:	2802      	cmp	r0, #2
 8005424:	d8db      	bhi.n	80053de <HAL_RCC_OscConfig+0x376>
 8005426:	682b      	ldr	r3, [r5, #0]
 8005428:	423b      	tst	r3, r7
 800542a:	d1f7      	bne.n	800541c <HAL_RCC_OscConfig+0x3b4>
 800542c:	e6d5      	b.n	80051da <HAL_RCC_OscConfig+0x172>
 800542e:	682b      	ldr	r3, [r5, #0]
 8005430:	4a57      	ldr	r2, [pc, #348]	@ (8005590 <HAL_RCC_OscConfig+0x528>)
 8005432:	2780      	movs	r7, #128	@ 0x80
 8005434:	4013      	ands	r3, r2
 8005436:	602b      	str	r3, [r5, #0]
 8005438:	f7fe f868 	bl	800350c <HAL_GetTick>
 800543c:	00ff      	lsls	r7, r7, #3
 800543e:	0006      	movs	r6, r0
 8005440:	e004      	b.n	800544c <HAL_RCC_OscConfig+0x3e4>
 8005442:	f7fe f863 	bl	800350c <HAL_GetTick>
 8005446:	1b80      	subs	r0, r0, r6
 8005448:	2802      	cmp	r0, #2
 800544a:	d8c8      	bhi.n	80053de <HAL_RCC_OscConfig+0x376>
 800544c:	682b      	ldr	r3, [r5, #0]
 800544e:	423b      	tst	r3, r7
 8005450:	d1f7      	bne.n	8005442 <HAL_RCC_OscConfig+0x3da>
 8005452:	6823      	ldr	r3, [r4, #0]
 8005454:	e65a      	b.n	800510c <HAL_RCC_OscConfig+0xa4>
 8005456:	2180      	movs	r1, #128	@ 0x80
 8005458:	4b4e      	ldr	r3, [pc, #312]	@ (8005594 <HAL_RCC_OscConfig+0x52c>)
 800545a:	02c9      	lsls	r1, r1, #11
 800545c:	6818      	ldr	r0, [r3, #0]
 800545e:	4301      	orrs	r1, r0
 8005460:	6019      	str	r1, [r3, #0]
 8005462:	6819      	ldr	r1, [r3, #0]
 8005464:	430a      	orrs	r2, r1
 8005466:	601a      	str	r2, [r3, #0]
 8005468:	e735      	b.n	80052d6 <HAL_RCC_OscConfig+0x26e>
 800546a:	6813      	ldr	r3, [r2, #0]
 800546c:	055b      	lsls	r3, r3, #21
 800546e:	d500      	bpl.n	8005472 <HAL_RCC_OscConfig+0x40a>
 8005470:	e086      	b.n	8005580 <HAL_RCC_OscConfig+0x518>
 8005472:	6851      	ldr	r1, [r2, #4]
 8005474:	6963      	ldr	r3, [r4, #20]
 8005476:	4848      	ldr	r0, [pc, #288]	@ (8005598 <HAL_RCC_OscConfig+0x530>)
 8005478:	021b      	lsls	r3, r3, #8
 800547a:	4001      	ands	r1, r0
 800547c:	430b      	orrs	r3, r1
 800547e:	6053      	str	r3, [r2, #4]
 8005480:	e63d      	b.n	80050fe <HAL_RCC_OscConfig+0x96>
 8005482:	4a44      	ldr	r2, [pc, #272]	@ (8005594 <HAL_RCC_OscConfig+0x52c>)
 8005484:	4945      	ldr	r1, [pc, #276]	@ (800559c <HAL_RCC_OscConfig+0x534>)
 8005486:	6bd3      	ldr	r3, [r2, #60]	@ 0x3c
 8005488:	400b      	ands	r3, r1
 800548a:	63d3      	str	r3, [r2, #60]	@ 0x3c
 800548c:	6823      	ldr	r3, [r4, #0]
 800548e:	e689      	b.n	80051a4 <HAL_RCC_OscConfig+0x13c>
 8005490:	2b01      	cmp	r3, #1
 8005492:	d100      	bne.n	8005496 <HAL_RCC_OscConfig+0x42e>
 8005494:	e618      	b.n	80050c8 <HAL_RCC_OscConfig+0x60>
 8005496:	2203      	movs	r2, #3
 8005498:	68e8      	ldr	r0, [r5, #12]
 800549a:	6a61      	ldr	r1, [r4, #36]	@ 0x24
 800549c:	4002      	ands	r2, r0
 800549e:	428a      	cmp	r2, r1
 80054a0:	d000      	beq.n	80054a4 <HAL_RCC_OscConfig+0x43c>
 80054a2:	e611      	b.n	80050c8 <HAL_RCC_OscConfig+0x60>
 80054a4:	2270      	movs	r2, #112	@ 0x70
 80054a6:	6aa1      	ldr	r1, [r4, #40]	@ 0x28
 80054a8:	4002      	ands	r2, r0
 80054aa:	428a      	cmp	r2, r1
 80054ac:	d000      	beq.n	80054b0 <HAL_RCC_OscConfig+0x448>
 80054ae:	e60b      	b.n	80050c8 <HAL_RCC_OscConfig+0x60>
 80054b0:	21fe      	movs	r1, #254	@ 0xfe
 80054b2:	6ae2      	ldr	r2, [r4, #44]	@ 0x2c
 80054b4:	01c9      	lsls	r1, r1, #7
 80054b6:	4001      	ands	r1, r0
 80054b8:	0212      	lsls	r2, r2, #8
 80054ba:	4291      	cmp	r1, r2
 80054bc:	d000      	beq.n	80054c0 <HAL_RCC_OscConfig+0x458>
 80054be:	e603      	b.n	80050c8 <HAL_RCC_OscConfig+0x60>
 80054c0:	22f8      	movs	r2, #248	@ 0xf8
 80054c2:	6b21      	ldr	r1, [r4, #48]	@ 0x30
 80054c4:	0392      	lsls	r2, r2, #14
 80054c6:	4002      	ands	r2, r0
 80054c8:	428a      	cmp	r2, r1
 80054ca:	d000      	beq.n	80054ce <HAL_RCC_OscConfig+0x466>
 80054cc:	e5fc      	b.n	80050c8 <HAL_RCC_OscConfig+0x60>
 80054ce:	22e0      	movs	r2, #224	@ 0xe0
 80054d0:	6b61      	ldr	r1, [r4, #52]	@ 0x34
 80054d2:	0512      	lsls	r2, r2, #20
 80054d4:	4002      	ands	r2, r0
 80054d6:	428a      	cmp	r2, r1
 80054d8:	d000      	beq.n	80054dc <HAL_RCC_OscConfig+0x474>
 80054da:	e5f5      	b.n	80050c8 <HAL_RCC_OscConfig+0x60>
 80054dc:	6ba3      	ldr	r3, [r4, #56]	@ 0x38
 80054de:	0f40      	lsrs	r0, r0, #29
 80054e0:	0740      	lsls	r0, r0, #29
 80054e2:	1ac0      	subs	r0, r0, r3
 80054e4:	1e43      	subs	r3, r0, #1
 80054e6:	4198      	sbcs	r0, r3
 80054e8:	b2c0      	uxtb	r0, r0
 80054ea:	e5ee      	b.n	80050ca <HAL_RCC_OscConfig+0x62>
 80054ec:	682b      	ldr	r3, [r5, #0]
 80054ee:	4a2c      	ldr	r2, [pc, #176]	@ (80055a0 <HAL_RCC_OscConfig+0x538>)
 80054f0:	2780      	movs	r7, #128	@ 0x80
 80054f2:	4013      	ands	r3, r2
 80054f4:	602b      	str	r3, [r5, #0]
 80054f6:	f7fe f809 	bl	800350c <HAL_GetTick>
 80054fa:	04bf      	lsls	r7, r7, #18
 80054fc:	0006      	movs	r6, r0
 80054fe:	e005      	b.n	800550c <HAL_RCC_OscConfig+0x4a4>
 8005500:	f7fe f804 	bl	800350c <HAL_GetTick>
 8005504:	1b80      	subs	r0, r0, r6
 8005506:	2802      	cmp	r0, #2
 8005508:	d900      	bls.n	800550c <HAL_RCC_OscConfig+0x4a4>
 800550a:	e768      	b.n	80053de <HAL_RCC_OscConfig+0x376>
 800550c:	682b      	ldr	r3, [r5, #0]
 800550e:	423b      	tst	r3, r7
 8005510:	d1f6      	bne.n	8005500 <HAL_RCC_OscConfig+0x498>
 8005512:	6aa1      	ldr	r1, [r4, #40]	@ 0x28
 8005514:	6a63      	ldr	r3, [r4, #36]	@ 0x24
 8005516:	68ea      	ldr	r2, [r5, #12]
 8005518:	430b      	orrs	r3, r1
 800551a:	4922      	ldr	r1, [pc, #136]	@ (80055a4 <HAL_RCC_OscConfig+0x53c>)
 800551c:	4e1d      	ldr	r6, [pc, #116]	@ (8005594 <HAL_RCC_OscConfig+0x52c>)
 800551e:	400a      	ands	r2, r1
 8005520:	4313      	orrs	r3, r2
 8005522:	6b22      	ldr	r2, [r4, #48]	@ 0x30
 8005524:	4313      	orrs	r3, r2
 8005526:	6b62      	ldr	r2, [r4, #52]	@ 0x34
 8005528:	4313      	orrs	r3, r2
 800552a:	6ba2      	ldr	r2, [r4, #56]	@ 0x38
 800552c:	4313      	orrs	r3, r2
 800552e:	6ae2      	ldr	r2, [r4, #44]	@ 0x2c
 8005530:	0212      	lsls	r2, r2, #8
 8005532:	4313      	orrs	r3, r2
 8005534:	60eb      	str	r3, [r5, #12]
 8005536:	2380      	movs	r3, #128	@ 0x80
 8005538:	682a      	ldr	r2, [r5, #0]
 800553a:	045b      	lsls	r3, r3, #17
 800553c:	4313      	orrs	r3, r2
 800553e:	602b      	str	r3, [r5, #0]
 8005540:	2380      	movs	r3, #128	@ 0x80
 8005542:	68ea      	ldr	r2, [r5, #12]
 8005544:	055b      	lsls	r3, r3, #21
 8005546:	4313      	orrs	r3, r2
 8005548:	60eb      	str	r3, [r5, #12]
 800554a:	f7fd ffdf 	bl	800350c <HAL_GetTick>
 800554e:	2580      	movs	r5, #128	@ 0x80
 8005550:	0004      	movs	r4, r0
 8005552:	04ad      	lsls	r5, r5, #18
 8005554:	e005      	b.n	8005562 <HAL_RCC_OscConfig+0x4fa>
 8005556:	f7fd ffd9 	bl	800350c <HAL_GetTick>
 800555a:	1b00      	subs	r0, r0, r4
 800555c:	2802      	cmp	r0, #2
 800555e:	d900      	bls.n	8005562 <HAL_RCC_OscConfig+0x4fa>
 8005560:	e73d      	b.n	80053de <HAL_RCC_OscConfig+0x376>
 8005562:	6833      	ldr	r3, [r6, #0]
 8005564:	422b      	tst	r3, r5
 8005566:	d0f6      	beq.n	8005556 <HAL_RCC_OscConfig+0x4ee>
 8005568:	2000      	movs	r0, #0
 800556a:	e5ae      	b.n	80050ca <HAL_RCC_OscConfig+0x62>
 800556c:	2104      	movs	r1, #4
 800556e:	4b09      	ldr	r3, [pc, #36]	@ (8005594 <HAL_RCC_OscConfig+0x52c>)
 8005570:	6dda      	ldr	r2, [r3, #92]	@ 0x5c
 8005572:	430a      	orrs	r2, r1
 8005574:	65da      	str	r2, [r3, #92]	@ 0x5c
 8005576:	6dda      	ldr	r2, [r3, #92]	@ 0x5c
 8005578:	3903      	subs	r1, #3
 800557a:	430a      	orrs	r2, r1
 800557c:	65da      	str	r2, [r3, #92]	@ 0x5c
 800557e:	e6f4      	b.n	800536a <HAL_RCC_OscConfig+0x302>
 8005580:	68e3      	ldr	r3, [r4, #12]
 8005582:	2b00      	cmp	r3, #0
 8005584:	d000      	beq.n	8005588 <HAL_RCC_OscConfig+0x520>
 8005586:	e774      	b.n	8005472 <HAL_RCC_OscConfig+0x40a>
 8005588:	e59e      	b.n	80050c8 <HAL_RCC_OscConfig+0x60>
 800558a:	46c0      	nop			@ (mov r8, r8)
 800558c:	ffbfffff 	.word	0xffbfffff
 8005590:	fffffeff 	.word	0xfffffeff
 8005594:	40021000 	.word	0x40021000
 8005598:	ffff80ff 	.word	0xffff80ff
 800559c:	efffffff 	.word	0xefffffff
 80055a0:	feffffff 	.word	0xfeffffff
 80055a4:	11c1808c 	.word	0x11c1808c

080055a8 <HAL_RCC_GetSysClockFreq>:
 80055a8:	2338      	movs	r3, #56	@ 0x38
 80055aa:	4a22      	ldr	r2, [pc, #136]	@ (8005634 <HAL_RCC_GetSysClockFreq+0x8c>)
 80055ac:	b510      	push	{r4, lr}
 80055ae:	6891      	ldr	r1, [r2, #8]
 80055b0:	420b      	tst	r3, r1
 80055b2:	d105      	bne.n	80055c0 <HAL_RCC_GetSysClockFreq+0x18>
 80055b4:	6813      	ldr	r3, [r2, #0]
 80055b6:	4820      	ldr	r0, [pc, #128]	@ (8005638 <HAL_RCC_GetSysClockFreq+0x90>)
 80055b8:	049b      	lsls	r3, r3, #18
 80055ba:	0f5b      	lsrs	r3, r3, #29
 80055bc:	40d8      	lsrs	r0, r3
 80055be:	bd10      	pop	{r4, pc}
 80055c0:	6891      	ldr	r1, [r2, #8]
 80055c2:	4019      	ands	r1, r3
 80055c4:	2908      	cmp	r1, #8
 80055c6:	d014      	beq.n	80055f2 <HAL_RCC_GetSysClockFreq+0x4a>
 80055c8:	6891      	ldr	r1, [r2, #8]
 80055ca:	4019      	ands	r1, r3
 80055cc:	2910      	cmp	r1, #16
 80055ce:	d012      	beq.n	80055f6 <HAL_RCC_GetSysClockFreq+0x4e>
 80055d0:	6891      	ldr	r1, [r2, #8]
 80055d2:	4019      	ands	r1, r3
 80055d4:	2920      	cmp	r1, #32
 80055d6:	d024      	beq.n	8005622 <HAL_RCC_GetSysClockFreq+0x7a>
 80055d8:	6890      	ldr	r0, [r2, #8]
 80055da:	4018      	ands	r0, r3
 80055dc:	3818      	subs	r0, #24
 80055de:	1e43      	subs	r3, r0, #1
 80055e0:	4198      	sbcs	r0, r3
 80055e2:	4b16      	ldr	r3, [pc, #88]	@ (800563c <HAL_RCC_GetSysClockFreq+0x94>)
 80055e4:	4240      	negs	r0, r0
 80055e6:	4018      	ands	r0, r3
 80055e8:	23fa      	movs	r3, #250	@ 0xfa
 80055ea:	01db      	lsls	r3, r3, #7
 80055ec:	469c      	mov	ip, r3
 80055ee:	4460      	add	r0, ip
 80055f0:	e7e5      	b.n	80055be <HAL_RCC_GetSysClockFreq+0x16>
 80055f2:	4813      	ldr	r0, [pc, #76]	@ (8005640 <HAL_RCC_GetSysClockFreq+0x98>)
 80055f4:	e7e3      	b.n	80055be <HAL_RCC_GetSysClockFreq+0x16>
 80055f6:	68d3      	ldr	r3, [r2, #12]
 80055f8:	68d1      	ldr	r1, [r2, #12]
 80055fa:	43db      	mvns	r3, r3
 80055fc:	68d4      	ldr	r4, [r2, #12]
 80055fe:	0649      	lsls	r1, r1, #25
 8005600:	0f49      	lsrs	r1, r1, #29
 8005602:	0464      	lsls	r4, r4, #17
 8005604:	3101      	adds	r1, #1
 8005606:	0e64      	lsrs	r4, r4, #25
 8005608:	079b      	lsls	r3, r3, #30
 800560a:	d00d      	beq.n	8005628 <HAL_RCC_GetSysClockFreq+0x80>
 800560c:	480a      	ldr	r0, [pc, #40]	@ (8005638 <HAL_RCC_GetSysClockFreq+0x90>)
 800560e:	f7fa fd81 	bl	8000114 <__udivsi3>
 8005612:	4360      	muls	r0, r4
 8005614:	4b07      	ldr	r3, [pc, #28]	@ (8005634 <HAL_RCC_GetSysClockFreq+0x8c>)
 8005616:	68d9      	ldr	r1, [r3, #12]
 8005618:	0f49      	lsrs	r1, r1, #29
 800561a:	3101      	adds	r1, #1
 800561c:	f7fa fd7a 	bl	8000114 <__udivsi3>
 8005620:	e7cd      	b.n	80055be <HAL_RCC_GetSysClockFreq+0x16>
 8005622:	2080      	movs	r0, #128	@ 0x80
 8005624:	0200      	lsls	r0, r0, #8
 8005626:	e7ca      	b.n	80055be <HAL_RCC_GetSysClockFreq+0x16>
 8005628:	4805      	ldr	r0, [pc, #20]	@ (8005640 <HAL_RCC_GetSysClockFreq+0x98>)
 800562a:	f7fa fd73 	bl	8000114 <__udivsi3>
 800562e:	4360      	muls	r0, r4
 8005630:	e7f0      	b.n	8005614 <HAL_RCC_GetSysClockFreq+0x6c>
 8005632:	46c0      	nop			@ (mov r8, r8)
 8005634:	40021000 	.word	0x40021000
 8005638:	00f42400 	.word	0x00f42400
 800563c:	ffff8300 	.word	0xffff8300
 8005640:	007a1200 	.word	0x007a1200

08005644 <HAL_RCC_ClockConfig>:
 8005644:	b5f8      	push	{r3, r4, r5, r6, r7, lr}
 8005646:	46ce      	mov	lr, r9
 8005648:	4647      	mov	r7, r8
 800564a:	0005      	movs	r5, r0
 800564c:	000c      	movs	r4, r1
 800564e:	b580      	push	{r7, lr}
 8005650:	2800      	cmp	r0, #0
 8005652:	d026      	beq.n	80056a2 <HAL_RCC_ClockConfig+0x5e>
 8005654:	2207      	movs	r2, #7
 8005656:	4e57      	ldr	r6, [pc, #348]	@ (80057b4 <HAL_RCC_ClockConfig+0x170>)
 8005658:	6833      	ldr	r3, [r6, #0]
 800565a:	4013      	ands	r3, r2
 800565c:	428b      	cmp	r3, r1
 800565e:	d35e      	bcc.n	800571e <HAL_RCC_ClockConfig+0xda>
 8005660:	682b      	ldr	r3, [r5, #0]
 8005662:	079a      	lsls	r2, r3, #30
 8005664:	d50e      	bpl.n	8005684 <HAL_RCC_ClockConfig+0x40>
 8005666:	075a      	lsls	r2, r3, #29
 8005668:	d505      	bpl.n	8005676 <HAL_RCC_ClockConfig+0x32>
 800566a:	22e0      	movs	r2, #224	@ 0xe0
 800566c:	4952      	ldr	r1, [pc, #328]	@ (80057b8 <HAL_RCC_ClockConfig+0x174>)
 800566e:	01d2      	lsls	r2, r2, #7
 8005670:	6888      	ldr	r0, [r1, #8]
 8005672:	4302      	orrs	r2, r0
 8005674:	608a      	str	r2, [r1, #8]
 8005676:	4950      	ldr	r1, [pc, #320]	@ (80057b8 <HAL_RCC_ClockConfig+0x174>)
 8005678:	4850      	ldr	r0, [pc, #320]	@ (80057bc <HAL_RCC_ClockConfig+0x178>)
 800567a:	688a      	ldr	r2, [r1, #8]
 800567c:	4002      	ands	r2, r0
 800567e:	68a8      	ldr	r0, [r5, #8]
 8005680:	4302      	orrs	r2, r0
 8005682:	608a      	str	r2, [r1, #8]
 8005684:	07db      	lsls	r3, r3, #31
 8005686:	d52b      	bpl.n	80056e0 <HAL_RCC_ClockConfig+0x9c>
 8005688:	686b      	ldr	r3, [r5, #4]
 800568a:	4a4b      	ldr	r2, [pc, #300]	@ (80057b8 <HAL_RCC_ClockConfig+0x174>)
 800568c:	2b01      	cmp	r3, #1
 800568e:	d100      	bne.n	8005692 <HAL_RCC_ClockConfig+0x4e>
 8005690:	e07c      	b.n	800578c <HAL_RCC_ClockConfig+0x148>
 8005692:	2b02      	cmp	r3, #2
 8005694:	d007      	beq.n	80056a6 <HAL_RCC_ClockConfig+0x62>
 8005696:	2b00      	cmp	r3, #0
 8005698:	d000      	beq.n	800569c <HAL_RCC_ClockConfig+0x58>
 800569a:	e07d      	b.n	8005798 <HAL_RCC_ClockConfig+0x154>
 800569c:	6812      	ldr	r2, [r2, #0]
 800569e:	0552      	lsls	r2, r2, #21
 80056a0:	d404      	bmi.n	80056ac <HAL_RCC_ClockConfig+0x68>
 80056a2:	2001      	movs	r0, #1
 80056a4:	e037      	b.n	8005716 <HAL_RCC_ClockConfig+0xd2>
 80056a6:	6812      	ldr	r2, [r2, #0]
 80056a8:	0192      	lsls	r2, r2, #6
 80056aa:	d5fa      	bpl.n	80056a2 <HAL_RCC_ClockConfig+0x5e>
 80056ac:	2107      	movs	r1, #7
 80056ae:	4e42      	ldr	r6, [pc, #264]	@ (80057b8 <HAL_RCC_ClockConfig+0x174>)
 80056b0:	68b2      	ldr	r2, [r6, #8]
 80056b2:	438a      	bics	r2, r1
 80056b4:	4313      	orrs	r3, r2
 80056b6:	60b3      	str	r3, [r6, #8]
 80056b8:	f7fd ff28 	bl	800350c <HAL_GetTick>
 80056bc:	2338      	movs	r3, #56	@ 0x38
 80056be:	4698      	mov	r8, r3
 80056c0:	4b3f      	ldr	r3, [pc, #252]	@ (80057c0 <HAL_RCC_ClockConfig+0x17c>)
 80056c2:	0007      	movs	r7, r0
 80056c4:	4699      	mov	r9, r3
 80056c6:	e004      	b.n	80056d2 <HAL_RCC_ClockConfig+0x8e>
 80056c8:	f7fd ff20 	bl	800350c <HAL_GetTick>
 80056cc:	1bc0      	subs	r0, r0, r7
 80056ce:	4548      	cmp	r0, r9
 80056d0:	d83b      	bhi.n	800574a <HAL_RCC_ClockConfig+0x106>
 80056d2:	4643      	mov	r3, r8
 80056d4:	68b2      	ldr	r2, [r6, #8]
 80056d6:	401a      	ands	r2, r3
 80056d8:	686b      	ldr	r3, [r5, #4]
 80056da:	00db      	lsls	r3, r3, #3
 80056dc:	429a      	cmp	r2, r3
 80056de:	d1f3      	bne.n	80056c8 <HAL_RCC_ClockConfig+0x84>
 80056e0:	2207      	movs	r2, #7
 80056e2:	4e34      	ldr	r6, [pc, #208]	@ (80057b4 <HAL_RCC_ClockConfig+0x170>)
 80056e4:	6833      	ldr	r3, [r6, #0]
 80056e6:	4013      	ands	r3, r2
 80056e8:	42a3      	cmp	r3, r4
 80056ea:	d838      	bhi.n	800575e <HAL_RCC_ClockConfig+0x11a>
 80056ec:	682b      	ldr	r3, [r5, #0]
 80056ee:	075b      	lsls	r3, r3, #29
 80056f0:	d42d      	bmi.n	800574e <HAL_RCC_ClockConfig+0x10a>
 80056f2:	f7ff ff59 	bl	80055a8 <HAL_RCC_GetSysClockFreq>
 80056f6:	4b30      	ldr	r3, [pc, #192]	@ (80057b8 <HAL_RCC_ClockConfig+0x174>)
 80056f8:	4a32      	ldr	r2, [pc, #200]	@ (80057c4 <HAL_RCC_ClockConfig+0x180>)
 80056fa:	689b      	ldr	r3, [r3, #8]
 80056fc:	4932      	ldr	r1, [pc, #200]	@ (80057c8 <HAL_RCC_ClockConfig+0x184>)
 80056fe:	051b      	lsls	r3, r3, #20
 8005700:	0f1b      	lsrs	r3, r3, #28
 8005702:	009b      	lsls	r3, r3, #2
 8005704:	589b      	ldr	r3, [r3, r2]
 8005706:	221f      	movs	r2, #31
 8005708:	4013      	ands	r3, r2
 800570a:	40d8      	lsrs	r0, r3
 800570c:	4b2f      	ldr	r3, [pc, #188]	@ (80057cc <HAL_RCC_ClockConfig+0x188>)
 800570e:	6008      	str	r0, [r1, #0]
 8005710:	6818      	ldr	r0, [r3, #0]
 8005712:	f7fd feb5 	bl	8003480 <HAL_InitTick>
 8005716:	bcc0      	pop	{r6, r7}
 8005718:	46b9      	mov	r9, r7
 800571a:	46b0      	mov	r8, r6
 800571c:	bdf8      	pop	{r3, r4, r5, r6, r7, pc}
 800571e:	6833      	ldr	r3, [r6, #0]
 8005720:	4393      	bics	r3, r2
 8005722:	430b      	orrs	r3, r1
 8005724:	6033      	str	r3, [r6, #0]
 8005726:	f7fd fef1 	bl	800350c <HAL_GetTick>
 800572a:	2307      	movs	r3, #7
 800572c:	4698      	mov	r8, r3
 800572e:	4b24      	ldr	r3, [pc, #144]	@ (80057c0 <HAL_RCC_ClockConfig+0x17c>)
 8005730:	0007      	movs	r7, r0
 8005732:	4699      	mov	r9, r3
 8005734:	4642      	mov	r2, r8
 8005736:	6833      	ldr	r3, [r6, #0]
 8005738:	4013      	ands	r3, r2
 800573a:	42a3      	cmp	r3, r4
 800573c:	d100      	bne.n	8005740 <HAL_RCC_ClockConfig+0xfc>
 800573e:	e78f      	b.n	8005660 <HAL_RCC_ClockConfig+0x1c>
 8005740:	f7fd fee4 	bl	800350c <HAL_GetTick>
 8005744:	1bc0      	subs	r0, r0, r7
 8005746:	4548      	cmp	r0, r9
 8005748:	d9f4      	bls.n	8005734 <HAL_RCC_ClockConfig+0xf0>
 800574a:	2003      	movs	r0, #3
 800574c:	e7e3      	b.n	8005716 <HAL_RCC_ClockConfig+0xd2>
 800574e:	4a1a      	ldr	r2, [pc, #104]	@ (80057b8 <HAL_RCC_ClockConfig+0x174>)
 8005750:	491f      	ldr	r1, [pc, #124]	@ (80057d0 <HAL_RCC_ClockConfig+0x18c>)
 8005752:	6893      	ldr	r3, [r2, #8]
 8005754:	400b      	ands	r3, r1
 8005756:	68e9      	ldr	r1, [r5, #12]
 8005758:	430b      	orrs	r3, r1
 800575a:	6093      	str	r3, [r2, #8]
 800575c:	e7c9      	b.n	80056f2 <HAL_RCC_ClockConfig+0xae>
 800575e:	6833      	ldr	r3, [r6, #0]
 8005760:	4393      	bics	r3, r2
 8005762:	4323      	orrs	r3, r4
 8005764:	6033      	str	r3, [r6, #0]
 8005766:	f7fd fed1 	bl	800350c <HAL_GetTick>
 800576a:	2307      	movs	r3, #7
 800576c:	4698      	mov	r8, r3
 800576e:	4b14      	ldr	r3, [pc, #80]	@ (80057c0 <HAL_RCC_ClockConfig+0x17c>)
 8005770:	0007      	movs	r7, r0
 8005772:	4699      	mov	r9, r3
 8005774:	4642      	mov	r2, r8
 8005776:	6833      	ldr	r3, [r6, #0]
 8005778:	4013      	ands	r3, r2
 800577a:	42a3      	cmp	r3, r4
 800577c:	d0b6      	beq.n	80056ec <HAL_RCC_ClockConfig+0xa8>
 800577e:	f7fd fec5 	bl	800350c <HAL_GetTick>
 8005782:	1bc0      	subs	r0, r0, r7
 8005784:	4548      	cmp	r0, r9
 8005786:	d9f5      	bls.n	8005774 <HAL_RCC_ClockConfig+0x130>
 8005788:	2003      	movs	r0, #3
 800578a:	e7c4      	b.n	8005716 <HAL_RCC_ClockConfig+0xd2>
 800578c:	6812      	ldr	r2, [r2, #0]
 800578e:	0392      	lsls	r2, r2, #14
 8005790:	d500      	bpl.n	8005794 <HAL_RCC_ClockConfig+0x150>
 8005792:	e78b      	b.n	80056ac <HAL_RCC_ClockConfig+0x68>
 8005794:	2001      	movs	r0, #1
 8005796:	e7be      	b.n	8005716 <HAL_RCC_ClockConfig+0xd2>
 8005798:	2b03      	cmp	r3, #3
 800579a:	d005      	beq.n	80057a8 <HAL_RCC_ClockConfig+0x164>
 800579c:	6dd2      	ldr	r2, [r2, #92]	@ 0x5c
 800579e:	0792      	lsls	r2, r2, #30
 80057a0:	d500      	bpl.n	80057a4 <HAL_RCC_ClockConfig+0x160>
 80057a2:	e783      	b.n	80056ac <HAL_RCC_ClockConfig+0x68>
 80057a4:	2001      	movs	r0, #1
 80057a6:	e7b6      	b.n	8005716 <HAL_RCC_ClockConfig+0xd2>
 80057a8:	6e12      	ldr	r2, [r2, #96]	@ 0x60
 80057aa:	0792      	lsls	r2, r2, #30
 80057ac:	d500      	bpl.n	80057b0 <HAL_RCC_ClockConfig+0x16c>
 80057ae:	e77d      	b.n	80056ac <HAL_RCC_ClockConfig+0x68>
 80057b0:	2001      	movs	r0, #1
 80057b2:	e7b0      	b.n	8005716 <HAL_RCC_ClockConfig+0xd2>
 80057b4:	40022000 	.word	0x40022000
 80057b8:	40021000 	.word	0x40021000
 80057bc:	fffff0ff 	.word	0xfffff0ff
 80057c0:	00001388 	.word	0x00001388
 80057c4:	080097e4 	.word	0x080097e4
 80057c8:	20000140 	.word	0x20000140
 80057cc:	20000148 	.word	0x20000148
 80057d0:	ffff8fff 	.word	0xffff8fff

080057d4 <HAL_RCC_GetPCLK1Freq>:
 80057d4:	4b06      	ldr	r3, [pc, #24]	@ (80057f0 <HAL_RCC_GetPCLK1Freq+0x1c>)
 80057d6:	4907      	ldr	r1, [pc, #28]	@ (80057f4 <HAL_RCC_GetPCLK1Freq+0x20>)
 80057d8:	689b      	ldr	r3, [r3, #8]
 80057da:	4a07      	ldr	r2, [pc, #28]	@ (80057f8 <HAL_RCC_GetPCLK1Freq+0x24>)
 80057dc:	045b      	lsls	r3, r3, #17
 80057de:	0f5b      	lsrs	r3, r3, #29
 80057e0:	009b      	lsls	r3, r3, #2
 80057e2:	585b      	ldr	r3, [r3, r1]
 80057e4:	211f      	movs	r1, #31
 80057e6:	6810      	ldr	r0, [r2, #0]
 80057e8:	400b      	ands	r3, r1
 80057ea:	40d8      	lsrs	r0, r3
 80057ec:	4770      	bx	lr
 80057ee:	46c0      	nop			@ (mov r8, r8)
 80057f0:	40021000 	.word	0x40021000
 80057f4:	080097c4 	.word	0x080097c4
 80057f8:	20000140 	.word	0x20000140

080057fc <HAL_RCCEx_PeriphCLKConfig>:
 80057fc:	b5f0      	push	{r4, r5, r6, r7, lr}
 80057fe:	46d6      	mov	lr, sl
 8005800:	464f      	mov	r7, r9
 8005802:	4646      	mov	r6, r8
 8005804:	b5c0      	push	{r6, r7, lr}
 8005806:	6803      	ldr	r3, [r0, #0]
 8005808:	0004      	movs	r4, r0
 800580a:	b082      	sub	sp, #8
 800580c:	2000      	movs	r0, #0
 800580e:	039a      	lsls	r2, r3, #14
 8005810:	d544      	bpl.n	800589c <HAL_RCCEx_PeriphCLKConfig+0xa0>
 8005812:	2280      	movs	r2, #128	@ 0x80
 8005814:	4ba2      	ldr	r3, [pc, #648]	@ (8005aa0 <HAL_RCCEx_PeriphCLKConfig+0x2a4>)
 8005816:	0552      	lsls	r2, r2, #21
 8005818:	6bd9      	ldr	r1, [r3, #60]	@ 0x3c
 800581a:	4682      	mov	sl, r0
 800581c:	4211      	tst	r1, r2
 800581e:	d100      	bne.n	8005822 <HAL_RCCEx_PeriphCLKConfig+0x26>
 8005820:	e0f5      	b.n	8005a0e <HAL_RCCEx_PeriphCLKConfig+0x212>
 8005822:	2780      	movs	r7, #128	@ 0x80
 8005824:	4d9f      	ldr	r5, [pc, #636]	@ (8005aa4 <HAL_RCCEx_PeriphCLKConfig+0x2a8>)
 8005826:	007f      	lsls	r7, r7, #1
 8005828:	682b      	ldr	r3, [r5, #0]
 800582a:	433b      	orrs	r3, r7
 800582c:	602b      	str	r3, [r5, #0]
 800582e:	f7fd fe6d 	bl	800350c <HAL_GetTick>
 8005832:	0006      	movs	r6, r0
 8005834:	e004      	b.n	8005840 <HAL_RCCEx_PeriphCLKConfig+0x44>
 8005836:	f7fd fe69 	bl	800350c <HAL_GetTick>
 800583a:	1b80      	subs	r0, r0, r6
 800583c:	2802      	cmp	r0, #2
 800583e:	d827      	bhi.n	8005890 <HAL_RCCEx_PeriphCLKConfig+0x94>
 8005840:	682b      	ldr	r3, [r5, #0]
 8005842:	423b      	tst	r3, r7
 8005844:	d0f7      	beq.n	8005836 <HAL_RCCEx_PeriphCLKConfig+0x3a>
 8005846:	4d96      	ldr	r5, [pc, #600]	@ (8005aa0 <HAL_RCCEx_PeriphCLKConfig+0x2a4>)
 8005848:	23c0      	movs	r3, #192	@ 0xc0
 800584a:	6dea      	ldr	r2, [r5, #92]	@ 0x5c
 800584c:	009b      	lsls	r3, r3, #2
 800584e:	0010      	movs	r0, r2
 8005850:	6c21      	ldr	r1, [r4, #64]	@ 0x40
 8005852:	4018      	ands	r0, r3
 8005854:	421a      	tst	r2, r3
 8005856:	d100      	bne.n	800585a <HAL_RCCEx_PeriphCLKConfig+0x5e>
 8005858:	e11a      	b.n	8005a90 <HAL_RCCEx_PeriphCLKConfig+0x294>
 800585a:	4288      	cmp	r0, r1
 800585c:	d100      	bne.n	8005860 <HAL_RCCEx_PeriphCLKConfig+0x64>
 800585e:	e117      	b.n	8005a90 <HAL_RCCEx_PeriphCLKConfig+0x294>
 8005860:	2080      	movs	r0, #128	@ 0x80
 8005862:	6deb      	ldr	r3, [r5, #92]	@ 0x5c
 8005864:	6dee      	ldr	r6, [r5, #92]	@ 0x5c
 8005866:	0240      	lsls	r0, r0, #9
 8005868:	4330      	orrs	r0, r6
 800586a:	65e8      	str	r0, [r5, #92]	@ 0x5c
 800586c:	6de8      	ldr	r0, [r5, #92]	@ 0x5c
 800586e:	4a8e      	ldr	r2, [pc, #568]	@ (8005aa8 <HAL_RCCEx_PeriphCLKConfig+0x2ac>)
 8005870:	4e8e      	ldr	r6, [pc, #568]	@ (8005aac <HAL_RCCEx_PeriphCLKConfig+0x2b0>)
 8005872:	401a      	ands	r2, r3
 8005874:	4030      	ands	r0, r6
 8005876:	65e8      	str	r0, [r5, #92]	@ 0x5c
 8005878:	65ea      	str	r2, [r5, #92]	@ 0x5c
 800587a:	07db      	lsls	r3, r3, #31
 800587c:	d400      	bmi.n	8005880 <HAL_RCCEx_PeriphCLKConfig+0x84>
 800587e:	e107      	b.n	8005a90 <HAL_RCCEx_PeriphCLKConfig+0x294>
 8005880:	f7fd fe44 	bl	800350c <HAL_GetTick>
 8005884:	2302      	movs	r3, #2
 8005886:	4698      	mov	r8, r3
 8005888:	4b89      	ldr	r3, [pc, #548]	@ (8005ab0 <HAL_RCCEx_PeriphCLKConfig+0x2b4>)
 800588a:	0006      	movs	r6, r0
 800588c:	4699      	mov	r9, r3
 800588e:	e0fa      	b.n	8005a86 <HAL_RCCEx_PeriphCLKConfig+0x28a>
 8005890:	2003      	movs	r0, #3
 8005892:	4652      	mov	r2, sl
 8005894:	6823      	ldr	r3, [r4, #0]
 8005896:	2a01      	cmp	r2, #1
 8005898:	d100      	bne.n	800589c <HAL_RCCEx_PeriphCLKConfig+0xa0>
 800589a:	e0c2      	b.n	8005a22 <HAL_RCCEx_PeriphCLKConfig+0x226>
 800589c:	07da      	lsls	r2, r3, #31
 800589e:	d506      	bpl.n	80058ae <HAL_RCCEx_PeriphCLKConfig+0xb2>
 80058a0:	2503      	movs	r5, #3
 80058a2:	497f      	ldr	r1, [pc, #508]	@ (8005aa0 <HAL_RCCEx_PeriphCLKConfig+0x2a4>)
 80058a4:	6d4a      	ldr	r2, [r1, #84]	@ 0x54
 80058a6:	43aa      	bics	r2, r5
 80058a8:	6865      	ldr	r5, [r4, #4]
 80058aa:	432a      	orrs	r2, r5
 80058ac:	654a      	str	r2, [r1, #84]	@ 0x54
 80058ae:	079a      	lsls	r2, r3, #30
 80058b0:	d506      	bpl.n	80058c0 <HAL_RCCEx_PeriphCLKConfig+0xc4>
 80058b2:	250c      	movs	r5, #12
 80058b4:	497a      	ldr	r1, [pc, #488]	@ (8005aa0 <HAL_RCCEx_PeriphCLKConfig+0x2a4>)
 80058b6:	6d4a      	ldr	r2, [r1, #84]	@ 0x54
 80058b8:	43aa      	bics	r2, r5
 80058ba:	68a5      	ldr	r5, [r4, #8]
 80058bc:	432a      	orrs	r2, r5
 80058be:	654a      	str	r2, [r1, #84]	@ 0x54
 80058c0:	075a      	lsls	r2, r3, #29
 80058c2:	d506      	bpl.n	80058d2 <HAL_RCCEx_PeriphCLKConfig+0xd6>
 80058c4:	2530      	movs	r5, #48	@ 0x30
 80058c6:	4976      	ldr	r1, [pc, #472]	@ (8005aa0 <HAL_RCCEx_PeriphCLKConfig+0x2a4>)
 80058c8:	6d4a      	ldr	r2, [r1, #84]	@ 0x54
 80058ca:	43aa      	bics	r2, r5
 80058cc:	68e5      	ldr	r5, [r4, #12]
 80058ce:	432a      	orrs	r2, r5
 80058d0:	654a      	str	r2, [r1, #84]	@ 0x54
 80058d2:	06da      	lsls	r2, r3, #27
 80058d4:	d506      	bpl.n	80058e4 <HAL_RCCEx_PeriphCLKConfig+0xe8>
 80058d6:	4972      	ldr	r1, [pc, #456]	@ (8005aa0 <HAL_RCCEx_PeriphCLKConfig+0x2a4>)
 80058d8:	4d76      	ldr	r5, [pc, #472]	@ (8005ab4 <HAL_RCCEx_PeriphCLKConfig+0x2b8>)
 80058da:	6d4a      	ldr	r2, [r1, #84]	@ 0x54
 80058dc:	402a      	ands	r2, r5
 80058de:	6925      	ldr	r5, [r4, #16]
 80058e0:	432a      	orrs	r2, r5
 80058e2:	654a      	str	r2, [r1, #84]	@ 0x54
 80058e4:	04da      	lsls	r2, r3, #19
 80058e6:	d506      	bpl.n	80058f6 <HAL_RCCEx_PeriphCLKConfig+0xfa>
 80058e8:	496d      	ldr	r1, [pc, #436]	@ (8005aa0 <HAL_RCCEx_PeriphCLKConfig+0x2a4>)
 80058ea:	4d6f      	ldr	r5, [pc, #444]	@ (8005aa8 <HAL_RCCEx_PeriphCLKConfig+0x2ac>)
 80058ec:	6d4a      	ldr	r2, [r1, #84]	@ 0x54
 80058ee:	402a      	ands	r2, r5
 80058f0:	6965      	ldr	r5, [r4, #20]
 80058f2:	432a      	orrs	r2, r5
 80058f4:	654a      	str	r2, [r1, #84]	@ 0x54
 80058f6:	059a      	lsls	r2, r3, #22
 80058f8:	d506      	bpl.n	8005908 <HAL_RCCEx_PeriphCLKConfig+0x10c>
 80058fa:	4969      	ldr	r1, [pc, #420]	@ (8005aa0 <HAL_RCCEx_PeriphCLKConfig+0x2a4>)
 80058fc:	4d6e      	ldr	r5, [pc, #440]	@ (8005ab8 <HAL_RCCEx_PeriphCLKConfig+0x2bc>)
 80058fe:	6d4a      	ldr	r2, [r1, #84]	@ 0x54
 8005900:	402a      	ands	r2, r5
 8005902:	6aa5      	ldr	r5, [r4, #40]	@ 0x28
 8005904:	432a      	orrs	r2, r5
 8005906:	654a      	str	r2, [r1, #84]	@ 0x54
 8005908:	055a      	lsls	r2, r3, #21
 800590a:	d506      	bpl.n	800591a <HAL_RCCEx_PeriphCLKConfig+0x11e>
 800590c:	4964      	ldr	r1, [pc, #400]	@ (8005aa0 <HAL_RCCEx_PeriphCLKConfig+0x2a4>)
 800590e:	4d6b      	ldr	r5, [pc, #428]	@ (8005abc <HAL_RCCEx_PeriphCLKConfig+0x2c0>)
 8005910:	6d4a      	ldr	r2, [r1, #84]	@ 0x54
 8005912:	402a      	ands	r2, r5
 8005914:	6ae5      	ldr	r5, [r4, #44]	@ 0x2c
 8005916:	432a      	orrs	r2, r5
 8005918:	654a      	str	r2, [r1, #84]	@ 0x54
 800591a:	069a      	lsls	r2, r3, #26
 800591c:	d506      	bpl.n	800592c <HAL_RCCEx_PeriphCLKConfig+0x130>
 800591e:	4960      	ldr	r1, [pc, #384]	@ (8005aa0 <HAL_RCCEx_PeriphCLKConfig+0x2a4>)
 8005920:	4d67      	ldr	r5, [pc, #412]	@ (8005ac0 <HAL_RCCEx_PeriphCLKConfig+0x2c4>)
 8005922:	6d4a      	ldr	r2, [r1, #84]	@ 0x54
 8005924:	402a      	ands	r2, r5
 8005926:	69a5      	ldr	r5, [r4, #24]
 8005928:	432a      	orrs	r2, r5
 800592a:	654a      	str	r2, [r1, #84]	@ 0x54
 800592c:	065a      	lsls	r2, r3, #25
 800592e:	d506      	bpl.n	800593e <HAL_RCCEx_PeriphCLKConfig+0x142>
 8005930:	495b      	ldr	r1, [pc, #364]	@ (8005aa0 <HAL_RCCEx_PeriphCLKConfig+0x2a4>)
 8005932:	4d64      	ldr	r5, [pc, #400]	@ (8005ac4 <HAL_RCCEx_PeriphCLKConfig+0x2c8>)
 8005934:	6d4a      	ldr	r2, [r1, #84]	@ 0x54
 8005936:	402a      	ands	r2, r5
 8005938:	69e5      	ldr	r5, [r4, #28]
 800593a:	432a      	orrs	r2, r5
 800593c:	654a      	str	r2, [r1, #84]	@ 0x54
 800593e:	045a      	lsls	r2, r3, #17
 8005940:	d50a      	bpl.n	8005958 <HAL_RCCEx_PeriphCLKConfig+0x15c>
 8005942:	4957      	ldr	r1, [pc, #348]	@ (8005aa0 <HAL_RCCEx_PeriphCLKConfig+0x2a4>)
 8005944:	6b25      	ldr	r5, [r4, #48]	@ 0x30
 8005946:	6d4a      	ldr	r2, [r1, #84]	@ 0x54
 8005948:	0092      	lsls	r2, r2, #2
 800594a:	0892      	lsrs	r2, r2, #2
 800594c:	432a      	orrs	r2, r5
 800594e:	654a      	str	r2, [r1, #84]	@ 0x54
 8005950:	2280      	movs	r2, #128	@ 0x80
 8005952:	05d2      	lsls	r2, r2, #23
 8005954:	4295      	cmp	r5, r2
 8005956:	d06a      	beq.n	8005a2e <HAL_RCCEx_PeriphCLKConfig+0x232>
 8005958:	031a      	lsls	r2, r3, #12
 800595a:	d506      	bpl.n	800596a <HAL_RCCEx_PeriphCLKConfig+0x16e>
 800595c:	2540      	movs	r5, #64	@ 0x40
 800595e:	4950      	ldr	r1, [pc, #320]	@ (8005aa0 <HAL_RCCEx_PeriphCLKConfig+0x2a4>)
 8005960:	6d4a      	ldr	r2, [r1, #84]	@ 0x54
 8005962:	43aa      	bics	r2, r5
 8005964:	6b65      	ldr	r5, [r4, #52]	@ 0x34
 8005966:	432a      	orrs	r2, r5
 8005968:	654a      	str	r2, [r1, #84]	@ 0x54
 800596a:	029a      	lsls	r2, r3, #10
 800596c:	d50a      	bpl.n	8005984 <HAL_RCCEx_PeriphCLKConfig+0x188>
 800596e:	494c      	ldr	r1, [pc, #304]	@ (8005aa0 <HAL_RCCEx_PeriphCLKConfig+0x2a4>)
 8005970:	4e55      	ldr	r6, [pc, #340]	@ (8005ac8 <HAL_RCCEx_PeriphCLKConfig+0x2cc>)
 8005972:	6d4a      	ldr	r2, [r1, #84]	@ 0x54
 8005974:	6ba5      	ldr	r5, [r4, #56]	@ 0x38
 8005976:	4032      	ands	r2, r6
 8005978:	432a      	orrs	r2, r5
 800597a:	654a      	str	r2, [r1, #84]	@ 0x54
 800597c:	2280      	movs	r2, #128	@ 0x80
 800597e:	03d2      	lsls	r2, r2, #15
 8005980:	4295      	cmp	r5, r2
 8005982:	d05a      	beq.n	8005a3a <HAL_RCCEx_PeriphCLKConfig+0x23e>
 8005984:	025a      	lsls	r2, r3, #9
 8005986:	d50a      	bpl.n	800599e <HAL_RCCEx_PeriphCLKConfig+0x1a2>
 8005988:	4d45      	ldr	r5, [pc, #276]	@ (8005aa0 <HAL_RCCEx_PeriphCLKConfig+0x2a4>)
 800598a:	4e50      	ldr	r6, [pc, #320]	@ (8005acc <HAL_RCCEx_PeriphCLKConfig+0x2d0>)
 800598c:	6d6a      	ldr	r2, [r5, #84]	@ 0x54
 800598e:	6be1      	ldr	r1, [r4, #60]	@ 0x3c
 8005990:	4032      	ands	r2, r6
 8005992:	430a      	orrs	r2, r1
 8005994:	656a      	str	r2, [r5, #84]	@ 0x54
 8005996:	2280      	movs	r2, #128	@ 0x80
 8005998:	0452      	lsls	r2, r2, #17
 800599a:	4291      	cmp	r1, r2
 800599c:	d053      	beq.n	8005a46 <HAL_RCCEx_PeriphCLKConfig+0x24a>
 800599e:	051a      	lsls	r2, r3, #20
 80059a0:	d508      	bpl.n	80059b4 <HAL_RCCEx_PeriphCLKConfig+0x1b8>
 80059a2:	2603      	movs	r6, #3
 80059a4:	493e      	ldr	r1, [pc, #248]	@ (8005aa0 <HAL_RCCEx_PeriphCLKConfig+0x2a4>)
 80059a6:	6a25      	ldr	r5, [r4, #32]
 80059a8:	6d8a      	ldr	r2, [r1, #88]	@ 0x58
 80059aa:	43b2      	bics	r2, r6
 80059ac:	432a      	orrs	r2, r5
 80059ae:	658a      	str	r2, [r1, #88]	@ 0x58
 80059b0:	2d01      	cmp	r5, #1
 80059b2:	d04c      	beq.n	8005a4e <HAL_RCCEx_PeriphCLKConfig+0x252>
 80059b4:	049a      	lsls	r2, r3, #18
 80059b6:	d508      	bpl.n	80059ca <HAL_RCCEx_PeriphCLKConfig+0x1ce>
 80059b8:	260c      	movs	r6, #12
 80059ba:	4939      	ldr	r1, [pc, #228]	@ (8005aa0 <HAL_RCCEx_PeriphCLKConfig+0x2a4>)
 80059bc:	6a65      	ldr	r5, [r4, #36]	@ 0x24
 80059be:	6d8a      	ldr	r2, [r1, #88]	@ 0x58
 80059c0:	43b2      	bics	r2, r6
 80059c2:	432a      	orrs	r2, r5
 80059c4:	658a      	str	r2, [r1, #88]	@ 0x58
 80059c6:	2d04      	cmp	r5, #4
 80059c8:	d047      	beq.n	8005a5a <HAL_RCCEx_PeriphCLKConfig+0x25e>
 80059ca:	2180      	movs	r1, #128	@ 0x80
 80059cc:	0449      	lsls	r1, r1, #17
 80059ce:	420b      	tst	r3, r1
 80059d0:	d00a      	beq.n	80059e8 <HAL_RCCEx_PeriphCLKConfig+0x1ec>
 80059d2:	4d33      	ldr	r5, [pc, #204]	@ (8005aa0 <HAL_RCCEx_PeriphCLKConfig+0x2a4>)
 80059d4:	4f3a      	ldr	r7, [pc, #232]	@ (8005ac0 <HAL_RCCEx_PeriphCLKConfig+0x2c4>)
 80059d6:	6daa      	ldr	r2, [r5, #88]	@ 0x58
 80059d8:	6c66      	ldr	r6, [r4, #68]	@ 0x44
 80059da:	403a      	ands	r2, r7
 80059dc:	4332      	orrs	r2, r6
 80059de:	65aa      	str	r2, [r5, #88]	@ 0x58
 80059e0:	2280      	movs	r2, #128	@ 0x80
 80059e2:	0192      	lsls	r2, r2, #6
 80059e4:	4296      	cmp	r6, r2
 80059e6:	d03e      	beq.n	8005a66 <HAL_RCCEx_PeriphCLKConfig+0x26a>
 80059e8:	019b      	lsls	r3, r3, #6
 80059ea:	d50a      	bpl.n	8005a02 <HAL_RCCEx_PeriphCLKConfig+0x206>
 80059ec:	4a2c      	ldr	r2, [pc, #176]	@ (8005aa0 <HAL_RCCEx_PeriphCLKConfig+0x2a4>)
 80059ee:	6ca1      	ldr	r1, [r4, #72]	@ 0x48
 80059f0:	6d93      	ldr	r3, [r2, #88]	@ 0x58
 80059f2:	4c2d      	ldr	r4, [pc, #180]	@ (8005aa8 <HAL_RCCEx_PeriphCLKConfig+0x2ac>)
 80059f4:	4023      	ands	r3, r4
 80059f6:	430b      	orrs	r3, r1
 80059f8:	6593      	str	r3, [r2, #88]	@ 0x58
 80059fa:	2380      	movs	r3, #128	@ 0x80
 80059fc:	005b      	lsls	r3, r3, #1
 80059fe:	4299      	cmp	r1, r3
 8005a00:	d035      	beq.n	8005a6e <HAL_RCCEx_PeriphCLKConfig+0x272>
 8005a02:	b002      	add	sp, #8
 8005a04:	bce0      	pop	{r5, r6, r7}
 8005a06:	46ba      	mov	sl, r7
 8005a08:	46b1      	mov	r9, r6
 8005a0a:	46a8      	mov	r8, r5
 8005a0c:	bdf0      	pop	{r4, r5, r6, r7, pc}
 8005a0e:	6bd9      	ldr	r1, [r3, #60]	@ 0x3c
 8005a10:	4311      	orrs	r1, r2
 8005a12:	63d9      	str	r1, [r3, #60]	@ 0x3c
 8005a14:	6bdb      	ldr	r3, [r3, #60]	@ 0x3c
 8005a16:	4013      	ands	r3, r2
 8005a18:	9301      	str	r3, [sp, #4]
 8005a1a:	9b01      	ldr	r3, [sp, #4]
 8005a1c:	2301      	movs	r3, #1
 8005a1e:	469a      	mov	sl, r3
 8005a20:	e6ff      	b.n	8005822 <HAL_RCCEx_PeriphCLKConfig+0x26>
 8005a22:	491f      	ldr	r1, [pc, #124]	@ (8005aa0 <HAL_RCCEx_PeriphCLKConfig+0x2a4>)
 8005a24:	4d2a      	ldr	r5, [pc, #168]	@ (8005ad0 <HAL_RCCEx_PeriphCLKConfig+0x2d4>)
 8005a26:	6bca      	ldr	r2, [r1, #60]	@ 0x3c
 8005a28:	402a      	ands	r2, r5
 8005a2a:	63ca      	str	r2, [r1, #60]	@ 0x3c
 8005a2c:	e736      	b.n	800589c <HAL_RCCEx_PeriphCLKConfig+0xa0>
 8005a2e:	2280      	movs	r2, #128	@ 0x80
 8005a30:	68cd      	ldr	r5, [r1, #12]
 8005a32:	0252      	lsls	r2, r2, #9
 8005a34:	432a      	orrs	r2, r5
 8005a36:	60ca      	str	r2, [r1, #12]
 8005a38:	e78e      	b.n	8005958 <HAL_RCCEx_PeriphCLKConfig+0x15c>
 8005a3a:	2280      	movs	r2, #128	@ 0x80
 8005a3c:	68cd      	ldr	r5, [r1, #12]
 8005a3e:	0452      	lsls	r2, r2, #17
 8005a40:	432a      	orrs	r2, r5
 8005a42:	60ca      	str	r2, [r1, #12]
 8005a44:	e79e      	b.n	8005984 <HAL_RCCEx_PeriphCLKConfig+0x188>
 8005a46:	68ea      	ldr	r2, [r5, #12]
 8005a48:	4311      	orrs	r1, r2
 8005a4a:	60e9      	str	r1, [r5, #12]
 8005a4c:	e7a7      	b.n	800599e <HAL_RCCEx_PeriphCLKConfig+0x1a2>
 8005a4e:	2280      	movs	r2, #128	@ 0x80
 8005a50:	68cd      	ldr	r5, [r1, #12]
 8005a52:	0252      	lsls	r2, r2, #9
 8005a54:	432a      	orrs	r2, r5
 8005a56:	60ca      	str	r2, [r1, #12]
 8005a58:	e7ac      	b.n	80059b4 <HAL_RCCEx_PeriphCLKConfig+0x1b8>
 8005a5a:	2280      	movs	r2, #128	@ 0x80
 8005a5c:	68cd      	ldr	r5, [r1, #12]
 8005a5e:	0252      	lsls	r2, r2, #9
 8005a60:	432a      	orrs	r2, r5
 8005a62:	60ca      	str	r2, [r1, #12]
 8005a64:	e7b1      	b.n	80059ca <HAL_RCCEx_PeriphCLKConfig+0x1ce>
 8005a66:	68ea      	ldr	r2, [r5, #12]
 8005a68:	4311      	orrs	r1, r2
 8005a6a:	60e9      	str	r1, [r5, #12]
 8005a6c:	e7bc      	b.n	80059e8 <HAL_RCCEx_PeriphCLKConfig+0x1ec>
 8005a6e:	2380      	movs	r3, #128	@ 0x80
 8005a70:	68d1      	ldr	r1, [r2, #12]
 8005a72:	045b      	lsls	r3, r3, #17
 8005a74:	430b      	orrs	r3, r1
 8005a76:	60d3      	str	r3, [r2, #12]
 8005a78:	e7c3      	b.n	8005a02 <HAL_RCCEx_PeriphCLKConfig+0x206>
 8005a7a:	f7fd fd47 	bl	800350c <HAL_GetTick>
 8005a7e:	1b80      	subs	r0, r0, r6
 8005a80:	4548      	cmp	r0, r9
 8005a82:	d900      	bls.n	8005a86 <HAL_RCCEx_PeriphCLKConfig+0x28a>
 8005a84:	e704      	b.n	8005890 <HAL_RCCEx_PeriphCLKConfig+0x94>
 8005a86:	4642      	mov	r2, r8
 8005a88:	6deb      	ldr	r3, [r5, #92]	@ 0x5c
 8005a8a:	421a      	tst	r2, r3
 8005a8c:	d0f5      	beq.n	8005a7a <HAL_RCCEx_PeriphCLKConfig+0x27e>
 8005a8e:	6c21      	ldr	r1, [r4, #64]	@ 0x40
 8005a90:	4a03      	ldr	r2, [pc, #12]	@ (8005aa0 <HAL_RCCEx_PeriphCLKConfig+0x2a4>)
 8005a92:	4805      	ldr	r0, [pc, #20]	@ (8005aa8 <HAL_RCCEx_PeriphCLKConfig+0x2ac>)
 8005a94:	6dd3      	ldr	r3, [r2, #92]	@ 0x5c
 8005a96:	4003      	ands	r3, r0
 8005a98:	430b      	orrs	r3, r1
 8005a9a:	2000      	movs	r0, #0
 8005a9c:	65d3      	str	r3, [r2, #92]	@ 0x5c
 8005a9e:	e6f8      	b.n	8005892 <HAL_RCCEx_PeriphCLKConfig+0x96>
 8005aa0:	40021000 	.word	0x40021000
 8005aa4:	40007000 	.word	0x40007000
 8005aa8:	fffffcff 	.word	0xfffffcff
 8005aac:	fffeffff 	.word	0xfffeffff
 8005ab0:	00001388 	.word	0x00001388
 8005ab4:	fffff3ff 	.word	0xfffff3ff
 8005ab8:	fff3ffff 	.word	0xfff3ffff
 8005abc:	ffcfffff 	.word	0xffcfffff
 8005ac0:	ffffcfff 	.word	0xffffcfff
 8005ac4:	ffff3fff 	.word	0xffff3fff
 8005ac8:	ffbfffff 	.word	0xffbfffff
 8005acc:	feffffff 	.word	0xfeffffff
 8005ad0:	efffffff 	.word	0xefffffff

08005ad4 <HAL_TIM_Base_Init>:
 8005ad4:	b570      	push	{r4, r5, r6, lr}
 8005ad6:	1e04      	subs	r4, r0, #0
 8005ad8:	d100      	bne.n	8005adc <HAL_TIM_Base_Init+0x8>
 8005ada:	e082      	b.n	8005be2 <HAL_TIM_Base_Init+0x10e>
 8005adc:	233d      	movs	r3, #61	@ 0x3d
 8005ade:	5cc3      	ldrb	r3, [r0, r3]
 8005ae0:	b2da      	uxtb	r2, r3
 8005ae2:	2b00      	cmp	r3, #0
 8005ae4:	d100      	bne.n	8005ae8 <HAL_TIM_Base_Init+0x14>
 8005ae6:	e06c      	b.n	8005bc2 <HAL_TIM_Base_Init+0xee>
 8005ae8:	233d      	movs	r3, #61	@ 0x3d
 8005aea:	2202      	movs	r2, #2
 8005aec:	54e2      	strb	r2, [r4, r3]
 8005aee:	6823      	ldr	r3, [r4, #0]
 8005af0:	4e3d      	ldr	r6, [pc, #244]	@ (8005be8 <HAL_TIM_Base_Init+0x114>)
 8005af2:	681a      	ldr	r2, [r3, #0]
 8005af4:	69a5      	ldr	r5, [r4, #24]
 8005af6:	68e0      	ldr	r0, [r4, #12]
 8005af8:	6861      	ldr	r1, [r4, #4]
 8005afa:	42b3      	cmp	r3, r6
 8005afc:	d01c      	beq.n	8005b38 <HAL_TIM_Base_Init+0x64>
 8005afe:	2680      	movs	r6, #128	@ 0x80
 8005b00:	05f6      	lsls	r6, r6, #23
 8005b02:	42b3      	cmp	r3, r6
 8005b04:	d018      	beq.n	8005b38 <HAL_TIM_Base_Init+0x64>
 8005b06:	4e39      	ldr	r6, [pc, #228]	@ (8005bec <HAL_TIM_Base_Init+0x118>)
 8005b08:	42b3      	cmp	r3, r6
 8005b0a:	d04b      	beq.n	8005ba4 <HAL_TIM_Base_Init+0xd0>
 8005b0c:	4e38      	ldr	r6, [pc, #224]	@ (8005bf0 <HAL_TIM_Base_Init+0x11c>)
 8005b0e:	42b3      	cmp	r3, r6
 8005b10:	d048      	beq.n	8005ba4 <HAL_TIM_Base_Init+0xd0>
 8005b12:	4e38      	ldr	r6, [pc, #224]	@ (8005bf4 <HAL_TIM_Base_Init+0x120>)
 8005b14:	42b3      	cmp	r3, r6
 8005b16:	d049      	beq.n	8005bac <HAL_TIM_Base_Init+0xd8>
 8005b18:	4e37      	ldr	r6, [pc, #220]	@ (8005bf8 <HAL_TIM_Base_Init+0x124>)
 8005b1a:	42b3      	cmp	r3, r6
 8005b1c:	d056      	beq.n	8005bcc <HAL_TIM_Base_Init+0xf8>
 8005b1e:	4e37      	ldr	r6, [pc, #220]	@ (8005bfc <HAL_TIM_Base_Init+0x128>)
 8005b20:	42b3      	cmp	r3, r6
 8005b22:	d053      	beq.n	8005bcc <HAL_TIM_Base_Init+0xf8>
 8005b24:	4e36      	ldr	r6, [pc, #216]	@ (8005c00 <HAL_TIM_Base_Init+0x12c>)
 8005b26:	42b3      	cmp	r3, r6
 8005b28:	d050      	beq.n	8005bcc <HAL_TIM_Base_Init+0xf8>
 8005b2a:	2680      	movs	r6, #128	@ 0x80
 8005b2c:	43b2      	bics	r2, r6
 8005b2e:	432a      	orrs	r2, r5
 8005b30:	601a      	str	r2, [r3, #0]
 8005b32:	62d8      	str	r0, [r3, #44]	@ 0x2c
 8005b34:	6299      	str	r1, [r3, #40]	@ 0x28
 8005b36:	e012      	b.n	8005b5e <HAL_TIM_Base_Init+0x8a>
 8005b38:	2670      	movs	r6, #112	@ 0x70
 8005b3a:	43b2      	bics	r2, r6
 8005b3c:	68a6      	ldr	r6, [r4, #8]
 8005b3e:	4332      	orrs	r2, r6
 8005b40:	4e30      	ldr	r6, [pc, #192]	@ (8005c04 <HAL_TIM_Base_Init+0x130>)
 8005b42:	4032      	ands	r2, r6
 8005b44:	6926      	ldr	r6, [r4, #16]
 8005b46:	4332      	orrs	r2, r6
 8005b48:	2680      	movs	r6, #128	@ 0x80
 8005b4a:	43b2      	bics	r2, r6
 8005b4c:	432a      	orrs	r2, r5
 8005b4e:	601a      	str	r2, [r3, #0]
 8005b50:	4a25      	ldr	r2, [pc, #148]	@ (8005be8 <HAL_TIM_Base_Init+0x114>)
 8005b52:	62d8      	str	r0, [r3, #44]	@ 0x2c
 8005b54:	6299      	str	r1, [r3, #40]	@ 0x28
 8005b56:	4293      	cmp	r3, r2
 8005b58:	d101      	bne.n	8005b5e <HAL_TIM_Base_Init+0x8a>
 8005b5a:	6962      	ldr	r2, [r4, #20]
 8005b5c:	631a      	str	r2, [r3, #48]	@ 0x30
 8005b5e:	2201      	movs	r2, #1
 8005b60:	615a      	str	r2, [r3, #20]
 8005b62:	6919      	ldr	r1, [r3, #16]
 8005b64:	420a      	tst	r2, r1
 8005b66:	d002      	beq.n	8005b6e <HAL_TIM_Base_Init+0x9a>
 8005b68:	6919      	ldr	r1, [r3, #16]
 8005b6a:	4391      	bics	r1, r2
 8005b6c:	6119      	str	r1, [r3, #16]
 8005b6e:	2301      	movs	r3, #1
 8005b70:	2248      	movs	r2, #72	@ 0x48
 8005b72:	2000      	movs	r0, #0
 8005b74:	54a3      	strb	r3, [r4, r2]
 8005b76:	3a0a      	subs	r2, #10
 8005b78:	54a3      	strb	r3, [r4, r2]
 8005b7a:	3201      	adds	r2, #1
 8005b7c:	54a3      	strb	r3, [r4, r2]
 8005b7e:	3201      	adds	r2, #1
 8005b80:	54a3      	strb	r3, [r4, r2]
 8005b82:	3201      	adds	r2, #1
 8005b84:	54a3      	strb	r3, [r4, r2]
 8005b86:	3201      	adds	r2, #1
 8005b88:	54a3      	strb	r3, [r4, r2]
 8005b8a:	3201      	adds	r2, #1
 8005b8c:	54a3      	strb	r3, [r4, r2]
 8005b8e:	3201      	adds	r2, #1
 8005b90:	54a3      	strb	r3, [r4, r2]
 8005b92:	3201      	adds	r2, #1
 8005b94:	54a3      	strb	r3, [r4, r2]
 8005b96:	3201      	adds	r2, #1
 8005b98:	54a3      	strb	r3, [r4, r2]
 8005b9a:	3201      	adds	r2, #1
 8005b9c:	54a3      	strb	r3, [r4, r2]
 8005b9e:	3a0a      	subs	r2, #10
 8005ba0:	54a3      	strb	r3, [r4, r2]
 8005ba2:	bd70      	pop	{r4, r5, r6, pc}
 8005ba4:	2670      	movs	r6, #112	@ 0x70
 8005ba6:	43b2      	bics	r2, r6
 8005ba8:	68a6      	ldr	r6, [r4, #8]
 8005baa:	4332      	orrs	r2, r6
 8005bac:	4e15      	ldr	r6, [pc, #84]	@ (8005c04 <HAL_TIM_Base_Init+0x130>)
 8005bae:	4032      	ands	r2, r6
 8005bb0:	6926      	ldr	r6, [r4, #16]
 8005bb2:	4332      	orrs	r2, r6
 8005bb4:	2680      	movs	r6, #128	@ 0x80
 8005bb6:	43b2      	bics	r2, r6
 8005bb8:	432a      	orrs	r2, r5
 8005bba:	601a      	str	r2, [r3, #0]
 8005bbc:	62d8      	str	r0, [r3, #44]	@ 0x2c
 8005bbe:	6299      	str	r1, [r3, #40]	@ 0x28
 8005bc0:	e7cd      	b.n	8005b5e <HAL_TIM_Base_Init+0x8a>
 8005bc2:	333c      	adds	r3, #60	@ 0x3c
 8005bc4:	54c2      	strb	r2, [r0, r3]
 8005bc6:	f7fc fddd 	bl	8002784 <HAL_TIM_Base_MspInit>
 8005bca:	e78d      	b.n	8005ae8 <HAL_TIM_Base_Init+0x14>
 8005bcc:	4e0d      	ldr	r6, [pc, #52]	@ (8005c04 <HAL_TIM_Base_Init+0x130>)
 8005bce:	4032      	ands	r2, r6
 8005bd0:	6926      	ldr	r6, [r4, #16]
 8005bd2:	4332      	orrs	r2, r6
 8005bd4:	2680      	movs	r6, #128	@ 0x80
 8005bd6:	43b2      	bics	r2, r6
 8005bd8:	432a      	orrs	r2, r5
 8005bda:	601a      	str	r2, [r3, #0]
 8005bdc:	62d8      	str	r0, [r3, #44]	@ 0x2c
 8005bde:	6299      	str	r1, [r3, #40]	@ 0x28
 8005be0:	e7bb      	b.n	8005b5a <HAL_TIM_Base_Init+0x86>
 8005be2:	2001      	movs	r0, #1
 8005be4:	e7dd      	b.n	8005ba2 <HAL_TIM_Base_Init+0xce>
 8005be6:	46c0      	nop			@ (mov r8, r8)
 8005be8:	40012c00 	.word	0x40012c00
 8005bec:	40000400 	.word	0x40000400
 8005bf0:	40000800 	.word	0x40000800
 8005bf4:	40002000 	.word	0x40002000
 8005bf8:	40014000 	.word	0x40014000
 8005bfc:	40014400 	.word	0x40014400
 8005c00:	40014800 	.word	0x40014800
 8005c04:	fffffcff 	.word	0xfffffcff

08005c08 <HAL_TIM_Base_Start>:
 8005c08:	213d      	movs	r1, #61	@ 0x3d
 8005c0a:	b510      	push	{r4, lr}
 8005c0c:	5c42      	ldrb	r2, [r0, r1]
 8005c0e:	0003      	movs	r3, r0
 8005c10:	b2d4      	uxtb	r4, r2
 8005c12:	2001      	movs	r0, #1
 8005c14:	2a01      	cmp	r2, #1
 8005c16:	d116      	bne.n	8005c46 <HAL_TIM_Base_Start+0x3e>
 8005c18:	3201      	adds	r2, #1
 8005c1a:	545a      	strb	r2, [r3, r1]
 8005c1c:	681b      	ldr	r3, [r3, #0]
 8005c1e:	4a11      	ldr	r2, [pc, #68]	@ (8005c64 <HAL_TIM_Base_Start+0x5c>)
 8005c20:	4293      	cmp	r3, r2
 8005c22:	d011      	beq.n	8005c48 <HAL_TIM_Base_Start+0x40>
 8005c24:	2280      	movs	r2, #128	@ 0x80
 8005c26:	05d2      	lsls	r2, r2, #23
 8005c28:	4293      	cmp	r3, r2
 8005c2a:	d00d      	beq.n	8005c48 <HAL_TIM_Base_Start+0x40>
 8005c2c:	4a0e      	ldr	r2, [pc, #56]	@ (8005c68 <HAL_TIM_Base_Start+0x60>)
 8005c2e:	4293      	cmp	r3, r2
 8005c30:	d00a      	beq.n	8005c48 <HAL_TIM_Base_Start+0x40>
 8005c32:	4a0e      	ldr	r2, [pc, #56]	@ (8005c6c <HAL_TIM_Base_Start+0x64>)
 8005c34:	4293      	cmp	r3, r2
 8005c36:	d007      	beq.n	8005c48 <HAL_TIM_Base_Start+0x40>
 8005c38:	4a0d      	ldr	r2, [pc, #52]	@ (8005c70 <HAL_TIM_Base_Start+0x68>)
 8005c3a:	4293      	cmp	r3, r2
 8005c3c:	d004      	beq.n	8005c48 <HAL_TIM_Base_Start+0x40>
 8005c3e:	681a      	ldr	r2, [r3, #0]
 8005c40:	4322      	orrs	r2, r4
 8005c42:	601a      	str	r2, [r3, #0]
 8005c44:	2000      	movs	r0, #0
 8005c46:	bd10      	pop	{r4, pc}
 8005c48:	689a      	ldr	r2, [r3, #8]
 8005c4a:	490a      	ldr	r1, [pc, #40]	@ (8005c74 <HAL_TIM_Base_Start+0x6c>)
 8005c4c:	400a      	ands	r2, r1
 8005c4e:	2a06      	cmp	r2, #6
 8005c50:	d0f8      	beq.n	8005c44 <HAL_TIM_Base_Start+0x3c>
 8005c52:	3907      	subs	r1, #7
 8005c54:	428a      	cmp	r2, r1
 8005c56:	d0f5      	beq.n	8005c44 <HAL_TIM_Base_Start+0x3c>
 8005c58:	2101      	movs	r1, #1
 8005c5a:	681a      	ldr	r2, [r3, #0]
 8005c5c:	2000      	movs	r0, #0
 8005c5e:	430a      	orrs	r2, r1
 8005c60:	601a      	str	r2, [r3, #0]
 8005c62:	e7f0      	b.n	8005c46 <HAL_TIM_Base_Start+0x3e>
 8005c64:	40012c00 	.word	0x40012c00
 8005c68:	40000400 	.word	0x40000400
 8005c6c:	40000800 	.word	0x40000800
 8005c70:	40014000 	.word	0x40014000
 8005c74:	00010007 	.word	0x00010007

08005c78 <HAL_TIM_ConfigClockSource>:
 8005c78:	223c      	movs	r2, #60	@ 0x3c
 8005c7a:	b570      	push	{r4, r5, r6, lr}
 8005c7c:	0003      	movs	r3, r0
 8005c7e:	5c80      	ldrb	r0, [r0, r2]
 8005c80:	2801      	cmp	r0, #1
 8005c82:	d100      	bne.n	8005c86 <HAL_TIM_ConfigClockSource+0xe>
 8005c84:	e06f      	b.n	8005d66 <HAL_TIM_ConfigClockSource+0xee>
 8005c86:	2401      	movs	r4, #1
 8005c88:	2002      	movs	r0, #2
 8005c8a:	549c      	strb	r4, [r3, r2]
 8005c8c:	3201      	adds	r2, #1
 8005c8e:	5498      	strb	r0, [r3, r2]
 8005c90:	681a      	ldr	r2, [r3, #0]
 8005c92:	4d4e      	ldr	r5, [pc, #312]	@ (8005dcc <HAL_TIM_ConfigClockSource+0x154>)
 8005c94:	6890      	ldr	r0, [r2, #8]
 8005c96:	4028      	ands	r0, r5
 8005c98:	6090      	str	r0, [r2, #8]
 8005c9a:	6808      	ldr	r0, [r1, #0]
 8005c9c:	2860      	cmp	r0, #96	@ 0x60
 8005c9e:	d100      	bne.n	8005ca2 <HAL_TIM_ConfigClockSource+0x2a>
 8005ca0:	e07a      	b.n	8005d98 <HAL_TIM_ConfigClockSource+0x120>
 8005ca2:	d80b      	bhi.n	8005cbc <HAL_TIM_ConfigClockSource+0x44>
 8005ca4:	2840      	cmp	r0, #64	@ 0x40
 8005ca6:	d060      	beq.n	8005d6a <HAL_TIM_ConfigClockSource+0xf2>
 8005ca8:	d829      	bhi.n	8005cfe <HAL_TIM_ConfigClockSource+0x86>
 8005caa:	2820      	cmp	r0, #32
 8005cac:	d053      	beq.n	8005d56 <HAL_TIM_ConfigClockSource+0xde>
 8005cae:	d850      	bhi.n	8005d52 <HAL_TIM_ConfigClockSource+0xda>
 8005cb0:	2110      	movs	r1, #16
 8005cb2:	0004      	movs	r4, r0
 8005cb4:	438c      	bics	r4, r1
 8005cb6:	d04e      	beq.n	8005d56 <HAL_TIM_ConfigClockSource+0xde>
 8005cb8:	2001      	movs	r0, #1
 8005cba:	e019      	b.n	8005cf0 <HAL_TIM_ConfigClockSource+0x78>
 8005cbc:	2480      	movs	r4, #128	@ 0x80
 8005cbe:	0164      	lsls	r4, r4, #5
 8005cc0:	42a0      	cmp	r0, r4
 8005cc2:	d014      	beq.n	8005cee <HAL_TIM_ConfigClockSource+0x76>
 8005cc4:	2480      	movs	r4, #128	@ 0x80
 8005cc6:	01a4      	lsls	r4, r4, #6
 8005cc8:	42a0      	cmp	r0, r4
 8005cca:	d031      	beq.n	8005d30 <HAL_TIM_ConfigClockSource+0xb8>
 8005ccc:	2870      	cmp	r0, #112	@ 0x70
 8005cce:	d1f3      	bne.n	8005cb8 <HAL_TIM_ConfigClockSource+0x40>
 8005cd0:	6894      	ldr	r4, [r2, #8]
 8005cd2:	483f      	ldr	r0, [pc, #252]	@ (8005dd0 <HAL_TIM_ConfigClockSource+0x158>)
 8005cd4:	684d      	ldr	r5, [r1, #4]
 8005cd6:	4004      	ands	r4, r0
 8005cd8:	6888      	ldr	r0, [r1, #8]
 8005cda:	68c9      	ldr	r1, [r1, #12]
 8005cdc:	4328      	orrs	r0, r5
 8005cde:	0209      	lsls	r1, r1, #8
 8005ce0:	4301      	orrs	r1, r0
 8005ce2:	2077      	movs	r0, #119	@ 0x77
 8005ce4:	4321      	orrs	r1, r4
 8005ce6:	6091      	str	r1, [r2, #8]
 8005ce8:	6891      	ldr	r1, [r2, #8]
 8005cea:	4301      	orrs	r1, r0
 8005cec:	6091      	str	r1, [r2, #8]
 8005cee:	2000      	movs	r0, #0
 8005cf0:	223d      	movs	r2, #61	@ 0x3d
 8005cf2:	2101      	movs	r1, #1
 8005cf4:	5499      	strb	r1, [r3, r2]
 8005cf6:	2100      	movs	r1, #0
 8005cf8:	3a01      	subs	r2, #1
 8005cfa:	5499      	strb	r1, [r3, r2]
 8005cfc:	bd70      	pop	{r4, r5, r6, pc}
 8005cfe:	2850      	cmp	r0, #80	@ 0x50
 8005d00:	d1da      	bne.n	8005cb8 <HAL_TIM_ConfigClockSource+0x40>
 8005d02:	6a15      	ldr	r5, [r2, #32]
 8005d04:	6a16      	ldr	r6, [r2, #32]
 8005d06:	6848      	ldr	r0, [r1, #4]
 8005d08:	43a6      	bics	r6, r4
 8005d0a:	68c9      	ldr	r1, [r1, #12]
 8005d0c:	6216      	str	r6, [r2, #32]
 8005d0e:	26f0      	movs	r6, #240	@ 0xf0
 8005d10:	6994      	ldr	r4, [r2, #24]
 8005d12:	0109      	lsls	r1, r1, #4
 8005d14:	43b4      	bics	r4, r6
 8005d16:	4321      	orrs	r1, r4
 8005d18:	240a      	movs	r4, #10
 8005d1a:	43a5      	bics	r5, r4
 8005d1c:	4328      	orrs	r0, r5
 8005d1e:	6191      	str	r1, [r2, #24]
 8005d20:	6210      	str	r0, [r2, #32]
 8005d22:	6891      	ldr	r1, [r2, #8]
 8005d24:	482b      	ldr	r0, [pc, #172]	@ (8005dd4 <HAL_TIM_ConfigClockSource+0x15c>)
 8005d26:	4001      	ands	r1, r0
 8005d28:	2057      	movs	r0, #87	@ 0x57
 8005d2a:	4301      	orrs	r1, r0
 8005d2c:	6091      	str	r1, [r2, #8]
 8005d2e:	e7de      	b.n	8005cee <HAL_TIM_ConfigClockSource+0x76>
 8005d30:	6894      	ldr	r4, [r2, #8]
 8005d32:	4827      	ldr	r0, [pc, #156]	@ (8005dd0 <HAL_TIM_ConfigClockSource+0x158>)
 8005d34:	684d      	ldr	r5, [r1, #4]
 8005d36:	4004      	ands	r4, r0
 8005d38:	6888      	ldr	r0, [r1, #8]
 8005d3a:	68c9      	ldr	r1, [r1, #12]
 8005d3c:	4328      	orrs	r0, r5
 8005d3e:	0209      	lsls	r1, r1, #8
 8005d40:	4301      	orrs	r1, r0
 8005d42:	4321      	orrs	r1, r4
 8005d44:	6091      	str	r1, [r2, #8]
 8005d46:	2180      	movs	r1, #128	@ 0x80
 8005d48:	6890      	ldr	r0, [r2, #8]
 8005d4a:	01c9      	lsls	r1, r1, #7
 8005d4c:	4301      	orrs	r1, r0
 8005d4e:	6091      	str	r1, [r2, #8]
 8005d50:	e7cd      	b.n	8005cee <HAL_TIM_ConfigClockSource+0x76>
 8005d52:	2830      	cmp	r0, #48	@ 0x30
 8005d54:	d1b0      	bne.n	8005cb8 <HAL_TIM_ConfigClockSource+0x40>
 8005d56:	6891      	ldr	r1, [r2, #8]
 8005d58:	4c1e      	ldr	r4, [pc, #120]	@ (8005dd4 <HAL_TIM_ConfigClockSource+0x15c>)
 8005d5a:	4021      	ands	r1, r4
 8005d5c:	4301      	orrs	r1, r0
 8005d5e:	2007      	movs	r0, #7
 8005d60:	4301      	orrs	r1, r0
 8005d62:	6091      	str	r1, [r2, #8]
 8005d64:	e7c3      	b.n	8005cee <HAL_TIM_ConfigClockSource+0x76>
 8005d66:	2002      	movs	r0, #2
 8005d68:	e7c8      	b.n	8005cfc <HAL_TIM_ConfigClockSource+0x84>
 8005d6a:	6a15      	ldr	r5, [r2, #32]
 8005d6c:	6a16      	ldr	r6, [r2, #32]
 8005d6e:	6848      	ldr	r0, [r1, #4]
 8005d70:	43a6      	bics	r6, r4
 8005d72:	68c9      	ldr	r1, [r1, #12]
 8005d74:	6216      	str	r6, [r2, #32]
 8005d76:	26f0      	movs	r6, #240	@ 0xf0
 8005d78:	6994      	ldr	r4, [r2, #24]
 8005d7a:	0109      	lsls	r1, r1, #4
 8005d7c:	43b4      	bics	r4, r6
 8005d7e:	4321      	orrs	r1, r4
 8005d80:	240a      	movs	r4, #10
 8005d82:	43a5      	bics	r5, r4
 8005d84:	4328      	orrs	r0, r5
 8005d86:	6191      	str	r1, [r2, #24]
 8005d88:	6210      	str	r0, [r2, #32]
 8005d8a:	6891      	ldr	r1, [r2, #8]
 8005d8c:	4811      	ldr	r0, [pc, #68]	@ (8005dd4 <HAL_TIM_ConfigClockSource+0x15c>)
 8005d8e:	4001      	ands	r1, r0
 8005d90:	2047      	movs	r0, #71	@ 0x47
 8005d92:	4301      	orrs	r1, r0
 8005d94:	6091      	str	r1, [r2, #8]
 8005d96:	e7aa      	b.n	8005cee <HAL_TIM_ConfigClockSource+0x76>
 8005d98:	2610      	movs	r6, #16
 8005d9a:	6a15      	ldr	r5, [r2, #32]
 8005d9c:	6848      	ldr	r0, [r1, #4]
 8005d9e:	68cc      	ldr	r4, [r1, #12]
 8005da0:	6a11      	ldr	r1, [r2, #32]
 8005da2:	0324      	lsls	r4, r4, #12
 8005da4:	43b1      	bics	r1, r6
 8005da6:	6211      	str	r1, [r2, #32]
 8005da8:	6991      	ldr	r1, [r2, #24]
 8005daa:	4e0b      	ldr	r6, [pc, #44]	@ (8005dd8 <HAL_TIM_ConfigClockSource+0x160>)
 8005dac:	4031      	ands	r1, r6
 8005dae:	430c      	orrs	r4, r1
 8005db0:	21a0      	movs	r1, #160	@ 0xa0
 8005db2:	438d      	bics	r5, r1
 8005db4:	0101      	lsls	r1, r0, #4
 8005db6:	4329      	orrs	r1, r5
 8005db8:	6194      	str	r4, [r2, #24]
 8005dba:	6211      	str	r1, [r2, #32]
 8005dbc:	6891      	ldr	r1, [r2, #8]
 8005dbe:	4805      	ldr	r0, [pc, #20]	@ (8005dd4 <HAL_TIM_ConfigClockSource+0x15c>)
 8005dc0:	4001      	ands	r1, r0
 8005dc2:	2067      	movs	r0, #103	@ 0x67
 8005dc4:	4301      	orrs	r1, r0
 8005dc6:	6091      	str	r1, [r2, #8]
 8005dc8:	e791      	b.n	8005cee <HAL_TIM_ConfigClockSource+0x76>
 8005dca:	46c0      	nop			@ (mov r8, r8)
 8005dcc:	ffce0088 	.word	0xffce0088
 8005dd0:	ffff00ff 	.word	0xffff00ff
 8005dd4:	ffcfff8f 	.word	0xffcfff8f
 8005dd8:	ffff0fff 	.word	0xffff0fff

08005ddc <HAL_TIMEx_MasterConfigSynchronization>:
 8005ddc:	233c      	movs	r3, #60	@ 0x3c
 8005dde:	b570      	push	{r4, r5, r6, lr}
 8005de0:	5cc3      	ldrb	r3, [r0, r3]
 8005de2:	2b01      	cmp	r3, #1
 8005de4:	d030      	beq.n	8005e48 <HAL_TIMEx_MasterConfigSynchronization+0x6c>
 8005de6:	233d      	movs	r3, #61	@ 0x3d
 8005de8:	2202      	movs	r2, #2
 8005dea:	54c2      	strb	r2, [r0, r3]
 8005dec:	6803      	ldr	r3, [r0, #0]
 8005dee:	4e17      	ldr	r6, [pc, #92]	@ (8005e4c <HAL_TIMEx_MasterConfigSynchronization+0x70>)
 8005df0:	685a      	ldr	r2, [r3, #4]
 8005df2:	680d      	ldr	r5, [r1, #0]
 8005df4:	689c      	ldr	r4, [r3, #8]
 8005df6:	42b3      	cmp	r3, r6
 8005df8:	d01d      	beq.n	8005e36 <HAL_TIMEx_MasterConfigSynchronization+0x5a>
 8005dfa:	2670      	movs	r6, #112	@ 0x70
 8005dfc:	43b2      	bics	r2, r6
 8005dfe:	432a      	orrs	r2, r5
 8005e00:	605a      	str	r2, [r3, #4]
 8005e02:	2280      	movs	r2, #128	@ 0x80
 8005e04:	05d2      	lsls	r2, r2, #23
 8005e06:	4293      	cmp	r3, r2
 8005e08:	d008      	beq.n	8005e1c <HAL_TIMEx_MasterConfigSynchronization+0x40>
 8005e0a:	4a11      	ldr	r2, [pc, #68]	@ (8005e50 <HAL_TIMEx_MasterConfigSynchronization+0x74>)
 8005e0c:	4293      	cmp	r3, r2
 8005e0e:	d005      	beq.n	8005e1c <HAL_TIMEx_MasterConfigSynchronization+0x40>
 8005e10:	4a10      	ldr	r2, [pc, #64]	@ (8005e54 <HAL_TIMEx_MasterConfigSynchronization+0x78>)
 8005e12:	4293      	cmp	r3, r2
 8005e14:	d002      	beq.n	8005e1c <HAL_TIMEx_MasterConfigSynchronization+0x40>
 8005e16:	4a10      	ldr	r2, [pc, #64]	@ (8005e58 <HAL_TIMEx_MasterConfigSynchronization+0x7c>)
 8005e18:	4293      	cmp	r3, r2
 8005e1a:	d104      	bne.n	8005e26 <HAL_TIMEx_MasterConfigSynchronization+0x4a>
 8005e1c:	2280      	movs	r2, #128	@ 0x80
 8005e1e:	4394      	bics	r4, r2
 8005e20:	688a      	ldr	r2, [r1, #8]
 8005e22:	4314      	orrs	r4, r2
 8005e24:	609c      	str	r4, [r3, #8]
 8005e26:	233d      	movs	r3, #61	@ 0x3d
 8005e28:	2201      	movs	r2, #1
 8005e2a:	54c2      	strb	r2, [r0, r3]
 8005e2c:	2200      	movs	r2, #0
 8005e2e:	3b01      	subs	r3, #1
 8005e30:	54c2      	strb	r2, [r0, r3]
 8005e32:	2000      	movs	r0, #0
 8005e34:	bd70      	pop	{r4, r5, r6, pc}
 8005e36:	4e09      	ldr	r6, [pc, #36]	@ (8005e5c <HAL_TIMEx_MasterConfigSynchronization+0x80>)
 8005e38:	4032      	ands	r2, r6
 8005e3a:	684e      	ldr	r6, [r1, #4]
 8005e3c:	4332      	orrs	r2, r6
 8005e3e:	2670      	movs	r6, #112	@ 0x70
 8005e40:	43b2      	bics	r2, r6
 8005e42:	4315      	orrs	r5, r2
 8005e44:	605d      	str	r5, [r3, #4]
 8005e46:	e7e9      	b.n	8005e1c <HAL_TIMEx_MasterConfigSynchronization+0x40>
 8005e48:	2002      	movs	r0, #2
 8005e4a:	e7f3      	b.n	8005e34 <HAL_TIMEx_MasterConfigSynchronization+0x58>
 8005e4c:	40012c00 	.word	0x40012c00
 8005e50:	40000400 	.word	0x40000400
 8005e54:	40000800 	.word	0x40000800
 8005e58:	40014000 	.word	0x40014000
 8005e5c:	ff0fffff 	.word	0xff0fffff

08005e60 <HAL_UART_DeInit>:
 8005e60:	b570      	push	{r4, r5, r6, lr}
 8005e62:	1e04      	subs	r4, r0, #0
 8005e64:	d018      	beq.n	8005e98 <HAL_UART_DeInit+0x38>
 8005e66:	2688      	movs	r6, #136	@ 0x88
 8005e68:	2324      	movs	r3, #36	@ 0x24
 8005e6a:	2101      	movs	r1, #1
 8005e6c:	2500      	movs	r5, #0
 8005e6e:	5183      	str	r3, [r0, r6]
 8005e70:	6803      	ldr	r3, [r0, #0]
 8005e72:	681a      	ldr	r2, [r3, #0]
 8005e74:	438a      	bics	r2, r1
 8005e76:	601a      	str	r2, [r3, #0]
 8005e78:	601d      	str	r5, [r3, #0]
 8005e7a:	605d      	str	r5, [r3, #4]
 8005e7c:	609d      	str	r5, [r3, #8]
 8005e7e:	f7fc fd6d 	bl	800295c <HAL_UART_MspDeInit>
 8005e82:	2390      	movs	r3, #144	@ 0x90
 8005e84:	2000      	movs	r0, #0
 8005e86:	50e5      	str	r5, [r4, r3]
 8005e88:	3b04      	subs	r3, #4
 8005e8a:	51a5      	str	r5, [r4, r6]
 8005e8c:	50e5      	str	r5, [r4, r3]
 8005e8e:	3b08      	subs	r3, #8
 8005e90:	66e5      	str	r5, [r4, #108]	@ 0x6c
 8005e92:	6725      	str	r5, [r4, #112]	@ 0x70
 8005e94:	54e5      	strb	r5, [r4, r3]
 8005e96:	bd70      	pop	{r4, r5, r6, pc}
 8005e98:	2001      	movs	r0, #1
 8005e9a:	e7fc      	b.n	8005e96 <HAL_UART_DeInit+0x36>

08005e9c <HAL_UART_Transmit_DMA>:
 8005e9c:	0013      	movs	r3, r2
 8005e9e:	2288      	movs	r2, #136	@ 0x88
 8005ea0:	b5f0      	push	{r4, r5, r6, r7, lr}
 8005ea2:	46c6      	mov	lr, r8
 8005ea4:	5882      	ldr	r2, [r0, r2]
 8005ea6:	0004      	movs	r4, r0
 8005ea8:	b500      	push	{lr}
 8005eaa:	2a20      	cmp	r2, #32
 8005eac:	d12c      	bne.n	8005f08 <HAL_UART_Transmit_DMA+0x6c>
 8005eae:	2900      	cmp	r1, #0
 8005eb0:	d028      	beq.n	8005f04 <HAL_UART_Transmit_DMA+0x68>
 8005eb2:	2b00      	cmp	r3, #0
 8005eb4:	d026      	beq.n	8005f04 <HAL_UART_Transmit_DMA+0x68>
 8005eb6:	2280      	movs	r2, #128	@ 0x80
 8005eb8:	6880      	ldr	r0, [r0, #8]
 8005eba:	0152      	lsls	r2, r2, #5
 8005ebc:	4290      	cmp	r0, r2
 8005ebe:	d038      	beq.n	8005f32 <HAL_UART_Transmit_DMA+0x96>
 8005ec0:	2254      	movs	r2, #84	@ 0x54
 8005ec2:	6521      	str	r1, [r4, #80]	@ 0x50
 8005ec4:	52a3      	strh	r3, [r4, r2]
 8005ec6:	3202      	adds	r2, #2
 8005ec8:	52a3      	strh	r3, [r4, r2]
 8005eca:	3232      	adds	r2, #50	@ 0x32
 8005ecc:	4690      	mov	r8, r2
 8005ece:	2690      	movs	r6, #144	@ 0x90
 8005ed0:	4640      	mov	r0, r8
 8005ed2:	2700      	movs	r7, #0
 8005ed4:	3a67      	subs	r2, #103	@ 0x67
 8005ed6:	51a7      	str	r7, [r4, r6]
 8005ed8:	5022      	str	r2, [r4, r0]
 8005eda:	6fe0      	ldr	r0, [r4, #124]	@ 0x7c
 8005edc:	6822      	ldr	r2, [r4, #0]
 8005ede:	2800      	cmp	r0, #0
 8005ee0:	d017      	beq.n	8005f12 <HAL_UART_Transmit_DMA+0x76>
 8005ee2:	4d17      	ldr	r5, [pc, #92]	@ (8005f40 <HAL_UART_Transmit_DMA+0xa4>)
 8005ee4:	6387      	str	r7, [r0, #56]	@ 0x38
 8005ee6:	62c5      	str	r5, [r0, #44]	@ 0x2c
 8005ee8:	4d16      	ldr	r5, [pc, #88]	@ (8005f44 <HAL_UART_Transmit_DMA+0xa8>)
 8005eea:	3228      	adds	r2, #40	@ 0x28
 8005eec:	6305      	str	r5, [r0, #48]	@ 0x30
 8005eee:	4d16      	ldr	r5, [pc, #88]	@ (8005f48 <HAL_UART_Transmit_DMA+0xac>)
 8005ef0:	6345      	str	r5, [r0, #52]	@ 0x34
 8005ef2:	f7fd fc91 	bl	8003818 <HAL_DMA_Start_IT>
 8005ef6:	2800      	cmp	r0, #0
 8005ef8:	d00a      	beq.n	8005f10 <HAL_UART_Transmit_DMA+0x74>
 8005efa:	2310      	movs	r3, #16
 8005efc:	4642      	mov	r2, r8
 8005efe:	51a3      	str	r3, [r4, r6]
 8005f00:	3310      	adds	r3, #16
 8005f02:	50a3      	str	r3, [r4, r2]
 8005f04:	2001      	movs	r0, #1
 8005f06:	e000      	b.n	8005f0a <HAL_UART_Transmit_DMA+0x6e>
 8005f08:	2002      	movs	r0, #2
 8005f0a:	bc80      	pop	{r7}
 8005f0c:	46b8      	mov	r8, r7
 8005f0e:	bdf0      	pop	{r4, r5, r6, r7, pc}
 8005f10:	6822      	ldr	r2, [r4, #0]
 8005f12:	2340      	movs	r3, #64	@ 0x40
 8005f14:	6213      	str	r3, [r2, #32]
 8005f16:	f3ef 8110 	mrs	r1, PRIMASK
 8005f1a:	3b3f      	subs	r3, #63	@ 0x3f
 8005f1c:	f383 8810 	msr	PRIMASK, r3
 8005f20:	2080      	movs	r0, #128	@ 0x80
 8005f22:	6822      	ldr	r2, [r4, #0]
 8005f24:	6893      	ldr	r3, [r2, #8]
 8005f26:	4303      	orrs	r3, r0
 8005f28:	6093      	str	r3, [r2, #8]
 8005f2a:	f381 8810 	msr	PRIMASK, r1
 8005f2e:	2000      	movs	r0, #0
 8005f30:	e7eb      	b.n	8005f0a <HAL_UART_Transmit_DMA+0x6e>
 8005f32:	6922      	ldr	r2, [r4, #16]
 8005f34:	2a00      	cmp	r2, #0
 8005f36:	d1c3      	bne.n	8005ec0 <HAL_UART_Transmit_DMA+0x24>
 8005f38:	07ca      	lsls	r2, r1, #31
 8005f3a:	d5c1      	bpl.n	8005ec0 <HAL_UART_Transmit_DMA+0x24>
 8005f3c:	2001      	movs	r0, #1
 8005f3e:	e7e4      	b.n	8005f0a <HAL_UART_Transmit_DMA+0x6e>
 8005f40:	08005f4d 	.word	0x08005f4d
 8005f44:	08005fa1 	.word	0x08005fa1
 8005f48:	08005fb9 	.word	0x08005fb9

08005f4c <UART_DMATransmitCplt>:
 8005f4c:	2220      	movs	r2, #32
 8005f4e:	0003      	movs	r3, r0
 8005f50:	0011      	movs	r1, r2
 8005f52:	681b      	ldr	r3, [r3, #0]
 8005f54:	b510      	push	{r4, lr}
 8005f56:	681b      	ldr	r3, [r3, #0]
 8005f58:	6a80      	ldr	r0, [r0, #40]	@ 0x28
 8005f5a:	4019      	ands	r1, r3
 8005f5c:	421a      	tst	r2, r3
 8005f5e:	d119      	bne.n	8005f94 <UART_DMATransmitCplt+0x48>
 8005f60:	2356      	movs	r3, #86	@ 0x56
 8005f62:	52c1      	strh	r1, [r0, r3]
 8005f64:	f3ef 8c10 	mrs	ip, PRIMASK
 8005f68:	3a1f      	subs	r2, #31
 8005f6a:	f382 8810 	msr	PRIMASK, r2
 8005f6e:	2480      	movs	r4, #128	@ 0x80
 8005f70:	6801      	ldr	r1, [r0, #0]
 8005f72:	688b      	ldr	r3, [r1, #8]
 8005f74:	43a3      	bics	r3, r4
 8005f76:	608b      	str	r3, [r1, #8]
 8005f78:	f38c 8810 	msr	PRIMASK, ip
 8005f7c:	f3ef 8110 	mrs	r1, PRIMASK
 8005f80:	f382 8810 	msr	PRIMASK, r2
 8005f84:	6802      	ldr	r2, [r0, #0]
 8005f86:	2040      	movs	r0, #64	@ 0x40
 8005f88:	6813      	ldr	r3, [r2, #0]
 8005f8a:	4303      	orrs	r3, r0
 8005f8c:	6013      	str	r3, [r2, #0]
 8005f8e:	f381 8810 	msr	PRIMASK, r1
 8005f92:	bd10      	pop	{r4, pc}
 8005f94:	f7fc f8b0 	bl	80020f8 <HAL_UART_TxCpltCallback>
 8005f98:	e7fb      	b.n	8005f92 <UART_DMATransmitCplt+0x46>
 8005f9a:	46c0      	nop			@ (mov r8, r8)

08005f9c <HAL_UART_TxHalfCpltCallback>:
 8005f9c:	4770      	bx	lr
 8005f9e:	46c0      	nop			@ (mov r8, r8)

08005fa0 <UART_DMATxHalfCplt>:
 8005fa0:	b510      	push	{r4, lr}
 8005fa2:	6a80      	ldr	r0, [r0, #40]	@ 0x28
 8005fa4:	f7ff fffa 	bl	8005f9c <HAL_UART_TxHalfCpltCallback>
 8005fa8:	bd10      	pop	{r4, pc}
 8005faa:	46c0      	nop			@ (mov r8, r8)

08005fac <HAL_UART_RxCpltCallback>:
 8005fac:	4770      	bx	lr
 8005fae:	46c0      	nop			@ (mov r8, r8)

08005fb0 <HAL_UART_RxHalfCpltCallback>:
 8005fb0:	4770      	bx	lr
 8005fb2:	46c0      	nop			@ (mov r8, r8)

08005fb4 <HAL_UART_ErrorCallback>:
 8005fb4:	4770      	bx	lr
 8005fb6:	46c0      	nop			@ (mov r8, r8)

08005fb8 <UART_DMAError>:
 8005fb8:	b5f8      	push	{r3, r4, r5, r6, r7, lr}
 8005fba:	2188      	movs	r1, #136	@ 0x88
 8005fbc:	238c      	movs	r3, #140	@ 0x8c
 8005fbe:	6a80      	ldr	r0, [r0, #40]	@ 0x28
 8005fc0:	5845      	ldr	r5, [r0, r1]
 8005fc2:	58c4      	ldr	r4, [r0, r3]
 8005fc4:	6803      	ldr	r3, [r0, #0]
 8005fc6:	689a      	ldr	r2, [r3, #8]
 8005fc8:	0612      	lsls	r2, r2, #24
 8005fca:	d501      	bpl.n	8005fd0 <UART_DMAError+0x18>
 8005fcc:	2d21      	cmp	r5, #33	@ 0x21
 8005fce:	d00c      	beq.n	8005fea <UART_DMAError+0x32>
 8005fd0:	689b      	ldr	r3, [r3, #8]
 8005fd2:	065b      	lsls	r3, r3, #25
 8005fd4:	d501      	bpl.n	8005fda <UART_DMAError+0x22>
 8005fd6:	2c22      	cmp	r4, #34	@ 0x22
 8005fd8:	d025      	beq.n	8006026 <UART_DMAError+0x6e>
 8005fda:	2290      	movs	r2, #144	@ 0x90
 8005fdc:	2110      	movs	r1, #16
 8005fde:	5883      	ldr	r3, [r0, r2]
 8005fe0:	430b      	orrs	r3, r1
 8005fe2:	5083      	str	r3, [r0, r2]
 8005fe4:	f7ff ffe6 	bl	8005fb4 <HAL_UART_ErrorCallback>
 8005fe8:	bdf8      	pop	{r3, r4, r5, r6, r7, pc}
 8005fea:	2356      	movs	r3, #86	@ 0x56
 8005fec:	2200      	movs	r2, #0
 8005fee:	52c2      	strh	r2, [r0, r3]
 8005ff0:	f3ef 8610 	mrs	r6, PRIMASK
 8005ff4:	3201      	adds	r2, #1
 8005ff6:	f382 8810 	msr	PRIMASK, r2
 8005ffa:	27c0      	movs	r7, #192	@ 0xc0
 8005ffc:	6805      	ldr	r5, [r0, #0]
 8005ffe:	682b      	ldr	r3, [r5, #0]
 8006000:	43bb      	bics	r3, r7
 8006002:	602b      	str	r3, [r5, #0]
 8006004:	f386 8810 	msr	PRIMASK, r6
 8006008:	f3ef 8510 	mrs	r5, PRIMASK
 800600c:	f382 8810 	msr	PRIMASK, r2
 8006010:	6802      	ldr	r2, [r0, #0]
 8006012:	4e1c      	ldr	r6, [pc, #112]	@ (8006084 <UART_DMAError+0xcc>)
 8006014:	6893      	ldr	r3, [r2, #8]
 8006016:	4033      	ands	r3, r6
 8006018:	6093      	str	r3, [r2, #8]
 800601a:	f385 8810 	msr	PRIMASK, r5
 800601e:	2320      	movs	r3, #32
 8006020:	5043      	str	r3, [r0, r1]
 8006022:	6803      	ldr	r3, [r0, #0]
 8006024:	e7d4      	b.n	8005fd0 <UART_DMAError+0x18>
 8006026:	235e      	movs	r3, #94	@ 0x5e
 8006028:	2200      	movs	r2, #0
 800602a:	52c2      	strh	r2, [r0, r3]
 800602c:	f3ef 8410 	mrs	r4, PRIMASK
 8006030:	3201      	adds	r2, #1
 8006032:	f382 8810 	msr	PRIMASK, r2
 8006036:	6801      	ldr	r1, [r0, #0]
 8006038:	4d13      	ldr	r5, [pc, #76]	@ (8006088 <UART_DMAError+0xd0>)
 800603a:	680b      	ldr	r3, [r1, #0]
 800603c:	402b      	ands	r3, r5
 800603e:	600b      	str	r3, [r1, #0]
 8006040:	f384 8810 	msr	PRIMASK, r4
 8006044:	f3ef 8110 	mrs	r1, PRIMASK
 8006048:	f382 8810 	msr	PRIMASK, r2
 800604c:	6802      	ldr	r2, [r0, #0]
 800604e:	4c0f      	ldr	r4, [pc, #60]	@ (800608c <UART_DMAError+0xd4>)
 8006050:	6893      	ldr	r3, [r2, #8]
 8006052:	4023      	ands	r3, r4
 8006054:	6093      	str	r3, [r2, #8]
 8006056:	f381 8810 	msr	PRIMASK, r1
 800605a:	6ec3      	ldr	r3, [r0, #108]	@ 0x6c
 800605c:	2b01      	cmp	r3, #1
 800605e:	d10a      	bne.n	8006076 <UART_DMAError+0xbe>
 8006060:	f3ef 8110 	mrs	r1, PRIMASK
 8006064:	f383 8810 	msr	PRIMASK, r3
 8006068:	2410      	movs	r4, #16
 800606a:	6802      	ldr	r2, [r0, #0]
 800606c:	6813      	ldr	r3, [r2, #0]
 800606e:	43a3      	bics	r3, r4
 8006070:	6013      	str	r3, [r2, #0]
 8006072:	f381 8810 	msr	PRIMASK, r1
 8006076:	238c      	movs	r3, #140	@ 0x8c
 8006078:	2220      	movs	r2, #32
 800607a:	50c2      	str	r2, [r0, r3]
 800607c:	2300      	movs	r3, #0
 800607e:	66c3      	str	r3, [r0, #108]	@ 0x6c
 8006080:	6743      	str	r3, [r0, #116]	@ 0x74
 8006082:	e7aa      	b.n	8005fda <UART_DMAError+0x22>
 8006084:	ff7fffff 	.word	0xff7fffff
 8006088:	fffffedf 	.word	0xfffffedf
 800608c:	effffffe 	.word	0xeffffffe

08006090 <UART_DMAAbortOnError>:
 8006090:	2300      	movs	r3, #0
 8006092:	225e      	movs	r2, #94	@ 0x5e
 8006094:	b510      	push	{r4, lr}
 8006096:	6a80      	ldr	r0, [r0, #40]	@ 0x28
 8006098:	5283      	strh	r3, [r0, r2]
 800609a:	3a08      	subs	r2, #8
 800609c:	5283      	strh	r3, [r0, r2]
 800609e:	f7ff ff89 	bl	8005fb4 <HAL_UART_ErrorCallback>
 80060a2:	bd10      	pop	{r4, pc}

080060a4 <HAL_UART_IRQHandler>:
 80060a4:	b5f8      	push	{r3, r4, r5, r6, r7, lr}
 80060a6:	4645      	mov	r5, r8
 80060a8:	46de      	mov	lr, fp
 80060aa:	4657      	mov	r7, sl
 80060ac:	464e      	mov	r6, r9
 80060ae:	6802      	ldr	r2, [r0, #0]
 80060b0:	b5e0      	push	{r5, r6, r7, lr}
 80060b2:	69d3      	ldr	r3, [r2, #28]
 80060b4:	4db5      	ldr	r5, [pc, #724]	@ (800638c <HAL_UART_IRQHandler+0x2e8>)
 80060b6:	0004      	movs	r4, r0
 80060b8:	6810      	ldr	r0, [r2, #0]
 80060ba:	6891      	ldr	r1, [r2, #8]
 80060bc:	422b      	tst	r3, r5
 80060be:	d138      	bne.n	8006132 <HAL_UART_IRQHandler+0x8e>
 80060c0:	2520      	movs	r5, #32
 80060c2:	421d      	tst	r5, r3
 80060c4:	d006      	beq.n	80060d4 <HAL_UART_IRQHandler+0x30>
 80060c6:	2680      	movs	r6, #128	@ 0x80
 80060c8:	0576      	lsls	r6, r6, #21
 80060ca:	4005      	ands	r5, r0
 80060cc:	400e      	ands	r6, r1
 80060ce:	4335      	orrs	r5, r6
 80060d0:	d000      	beq.n	80060d4 <HAL_UART_IRQHandler+0x30>
 80060d2:	e105      	b.n	80062e0 <HAL_UART_IRQHandler+0x23c>
 80060d4:	6ee5      	ldr	r5, [r4, #108]	@ 0x6c
 80060d6:	2d01      	cmp	r5, #1
 80060d8:	d100      	bne.n	80060dc <HAL_UART_IRQHandler+0x38>
 80060da:	e0cf      	b.n	800627c <HAL_UART_IRQHandler+0x1d8>
 80060dc:	2580      	movs	r5, #128	@ 0x80
 80060de:	036d      	lsls	r5, r5, #13
 80060e0:	422b      	tst	r3, r5
 80060e2:	d11f      	bne.n	8006124 <HAL_UART_IRQHandler+0x80>
 80060e4:	2280      	movs	r2, #128	@ 0x80
 80060e6:	421a      	tst	r2, r3
 80060e8:	d006      	beq.n	80060f8 <HAL_UART_IRQHandler+0x54>
 80060ea:	2580      	movs	r5, #128	@ 0x80
 80060ec:	042d      	lsls	r5, r5, #16
 80060ee:	4002      	ands	r2, r0
 80060f0:	4029      	ands	r1, r5
 80060f2:	430a      	orrs	r2, r1
 80060f4:	d000      	beq.n	80060f8 <HAL_UART_IRQHandler+0x54>
 80060f6:	e0fa      	b.n	80062ee <HAL_UART_IRQHandler+0x24a>
 80060f8:	2240      	movs	r2, #64	@ 0x40
 80060fa:	421a      	tst	r2, r3
 80060fc:	d002      	beq.n	8006104 <HAL_UART_IRQHandler+0x60>
 80060fe:	4202      	tst	r2, r0
 8006100:	d000      	beq.n	8006104 <HAL_UART_IRQHandler+0x60>
 8006102:	e121      	b.n	8006348 <HAL_UART_IRQHandler+0x2a4>
 8006104:	021a      	lsls	r2, r3, #8
 8006106:	d502      	bpl.n	800610e <HAL_UART_IRQHandler+0x6a>
 8006108:	0042      	lsls	r2, r0, #1
 800610a:	d500      	bpl.n	800610e <HAL_UART_IRQHandler+0x6a>
 800610c:	e130      	b.n	8006370 <HAL_UART_IRQHandler+0x2cc>
 800610e:	01db      	lsls	r3, r3, #7
 8006110:	d502      	bpl.n	8006118 <HAL_UART_IRQHandler+0x74>
 8006112:	2800      	cmp	r0, #0
 8006114:	da00      	bge.n	8006118 <HAL_UART_IRQHandler+0x74>
 8006116:	e12f      	b.n	8006378 <HAL_UART_IRQHandler+0x2d4>
 8006118:	bcf0      	pop	{r4, r5, r6, r7}
 800611a:	46bb      	mov	fp, r7
 800611c:	46b2      	mov	sl, r6
 800611e:	46a9      	mov	r9, r5
 8006120:	46a0      	mov	r8, r4
 8006122:	bdf8      	pop	{r3, r4, r5, r6, r7, pc}
 8006124:	024e      	lsls	r6, r1, #9
 8006126:	d5dd      	bpl.n	80060e4 <HAL_UART_IRQHandler+0x40>
 8006128:	0020      	movs	r0, r4
 800612a:	6215      	str	r5, [r2, #32]
 800612c:	f000 fd9e 	bl	8006c6c <HAL_UARTEx_WakeupCallback>
 8006130:	e7f2      	b.n	8006118 <HAL_UART_IRQHandler+0x74>
 8006132:	000f      	movs	r7, r1
 8006134:	4d96      	ldr	r5, [pc, #600]	@ (8006390 <HAL_UART_IRQHandler+0x2ec>)
 8006136:	402f      	ands	r7, r5
 8006138:	4229      	tst	r1, r5
 800613a:	d000      	beq.n	800613e <HAL_UART_IRQHandler+0x9a>
 800613c:	e0f9      	b.n	8006332 <HAL_UART_IRQHandler+0x28e>
 800613e:	4d95      	ldr	r5, [pc, #596]	@ (8006394 <HAL_UART_IRQHandler+0x2f0>)
 8006140:	4228      	tst	r0, r5
 8006142:	d0c7      	beq.n	80060d4 <HAL_UART_IRQHandler+0x30>
 8006144:	07dd      	lsls	r5, r3, #31
 8006146:	d51f      	bpl.n	8006188 <HAL_UART_IRQHandler+0xe4>
 8006148:	05c5      	lsls	r5, r0, #23
 800614a:	d400      	bmi.n	800614e <HAL_UART_IRQHandler+0xaa>
 800614c:	e0d3      	b.n	80062f6 <HAL_UART_IRQHandler+0x252>
 800614e:	2501      	movs	r5, #1
 8006150:	46ac      	mov	ip, r5
 8006152:	6215      	str	r5, [r2, #32]
 8006154:	358f      	adds	r5, #143	@ 0x8f
 8006156:	46a8      	mov	r8, r5
 8006158:	4666      	mov	r6, ip
 800615a:	5965      	ldr	r5, [r4, r5]
 800615c:	4335      	orrs	r5, r6
 800615e:	4646      	mov	r6, r8
 8006160:	51a5      	str	r5, [r4, r6]
 8006162:	2502      	movs	r5, #2
 8006164:	421d      	tst	r5, r3
 8006166:	d100      	bne.n	800616a <HAL_UART_IRQHandler+0xc6>
 8006168:	e0c8      	b.n	80062fc <HAL_UART_IRQHandler+0x258>
 800616a:	07ce      	lsls	r6, r1, #31
 800616c:	d50c      	bpl.n	8006188 <HAL_UART_IRQHandler+0xe4>
 800616e:	6215      	str	r5, [r2, #32]
 8006170:	358e      	adds	r5, #142	@ 0x8e
 8006172:	2604      	movs	r6, #4
 8006174:	46ac      	mov	ip, r5
 8006176:	5965      	ldr	r5, [r4, r5]
 8006178:	46b0      	mov	r8, r6
 800617a:	4335      	orrs	r5, r6
 800617c:	4666      	mov	r6, ip
 800617e:	51a5      	str	r5, [r4, r6]
 8006180:	4645      	mov	r5, r8
 8006182:	421d      	tst	r5, r3
 8006184:	d000      	beq.n	8006188 <HAL_UART_IRQHandler+0xe4>
 8006186:	e0bf      	b.n	8006308 <HAL_UART_IRQHandler+0x264>
 8006188:	2608      	movs	r6, #8
 800618a:	421e      	tst	r6, r3
 800618c:	d008      	beq.n	80061a0 <HAL_UART_IRQHandler+0xfc>
 800618e:	2520      	movs	r5, #32
 8006190:	4005      	ands	r5, r0
 8006192:	433d      	orrs	r5, r7
 8006194:	d004      	beq.n	80061a0 <HAL_UART_IRQHandler+0xfc>
 8006196:	2790      	movs	r7, #144	@ 0x90
 8006198:	6216      	str	r6, [r2, #32]
 800619a:	59e5      	ldr	r5, [r4, r7]
 800619c:	4335      	orrs	r5, r6
 800619e:	51e5      	str	r5, [r4, r7]
 80061a0:	2580      	movs	r5, #128	@ 0x80
 80061a2:	012d      	lsls	r5, r5, #4
 80061a4:	422b      	tst	r3, r5
 80061a6:	d007      	beq.n	80061b8 <HAL_UART_IRQHandler+0x114>
 80061a8:	0146      	lsls	r6, r0, #5
 80061aa:	d505      	bpl.n	80061b8 <HAL_UART_IRQHandler+0x114>
 80061ac:	2690      	movs	r6, #144	@ 0x90
 80061ae:	2720      	movs	r7, #32
 80061b0:	6215      	str	r5, [r2, #32]
 80061b2:	59a5      	ldr	r5, [r4, r6]
 80061b4:	433d      	orrs	r5, r7
 80061b6:	51a5      	str	r5, [r4, r6]
 80061b8:	2590      	movs	r5, #144	@ 0x90
 80061ba:	5965      	ldr	r5, [r4, r5]
 80061bc:	2d00      	cmp	r5, #0
 80061be:	d0ab      	beq.n	8006118 <HAL_UART_IRQHandler+0x74>
 80061c0:	2520      	movs	r5, #32
 80061c2:	421d      	tst	r5, r3
 80061c4:	d006      	beq.n	80061d4 <HAL_UART_IRQHandler+0x130>
 80061c6:	2380      	movs	r3, #128	@ 0x80
 80061c8:	055b      	lsls	r3, r3, #21
 80061ca:	4005      	ands	r5, r0
 80061cc:	400b      	ands	r3, r1
 80061ce:	431d      	orrs	r5, r3
 80061d0:	d000      	beq.n	80061d4 <HAL_UART_IRQHandler+0x130>
 80061d2:	e0a6      	b.n	8006322 <HAL_UART_IRQHandler+0x27e>
 80061d4:	2690      	movs	r6, #144	@ 0x90
 80061d6:	2540      	movs	r5, #64	@ 0x40
 80061d8:	59a1      	ldr	r1, [r4, r6]
 80061da:	6893      	ldr	r3, [r2, #8]
 80061dc:	401d      	ands	r5, r3
 80061de:	2328      	movs	r3, #40	@ 0x28
 80061e0:	400b      	ands	r3, r1
 80061e2:	431d      	orrs	r5, r3
 80061e4:	d100      	bne.n	80061e8 <HAL_UART_IRQHandler+0x144>
 80061e6:	e0cb      	b.n	8006380 <HAL_UART_IRQHandler+0x2dc>
 80061e8:	f3ef 8010 	mrs	r0, PRIMASK
 80061ec:	2201      	movs	r2, #1
 80061ee:	f382 8810 	msr	PRIMASK, r2
 80061f2:	6821      	ldr	r1, [r4, #0]
 80061f4:	4d68      	ldr	r5, [pc, #416]	@ (8006398 <HAL_UART_IRQHandler+0x2f4>)
 80061f6:	680b      	ldr	r3, [r1, #0]
 80061f8:	402b      	ands	r3, r5
 80061fa:	600b      	str	r3, [r1, #0]
 80061fc:	f380 8810 	msr	PRIMASK, r0
 8006200:	f3ef 8110 	mrs	r1, PRIMASK
 8006204:	f382 8810 	msr	PRIMASK, r2
 8006208:	6822      	ldr	r2, [r4, #0]
 800620a:	4864      	ldr	r0, [pc, #400]	@ (800639c <HAL_UART_IRQHandler+0x2f8>)
 800620c:	6893      	ldr	r3, [r2, #8]
 800620e:	4003      	ands	r3, r0
 8006210:	6093      	str	r3, [r2, #8]
 8006212:	f381 8810 	msr	PRIMASK, r1
 8006216:	6ee3      	ldr	r3, [r4, #108]	@ 0x6c
 8006218:	2b01      	cmp	r3, #1
 800621a:	d10a      	bne.n	8006232 <HAL_UART_IRQHandler+0x18e>
 800621c:	f3ef 8110 	mrs	r1, PRIMASK
 8006220:	f383 8810 	msr	PRIMASK, r3
 8006224:	2010      	movs	r0, #16
 8006226:	6822      	ldr	r2, [r4, #0]
 8006228:	6813      	ldr	r3, [r2, #0]
 800622a:	4383      	bics	r3, r0
 800622c:	6013      	str	r3, [r2, #0]
 800622e:	f381 8810 	msr	PRIMASK, r1
 8006232:	238c      	movs	r3, #140	@ 0x8c
 8006234:	2220      	movs	r2, #32
 8006236:	50e2      	str	r2, [r4, r3]
 8006238:	2300      	movs	r3, #0
 800623a:	66e3      	str	r3, [r4, #108]	@ 0x6c
 800623c:	6763      	str	r3, [r4, #116]	@ 0x74
 800623e:	6823      	ldr	r3, [r4, #0]
 8006240:	3220      	adds	r2, #32
 8006242:	689b      	ldr	r3, [r3, #8]
 8006244:	421a      	tst	r2, r3
 8006246:	d07b      	beq.n	8006340 <HAL_UART_IRQHandler+0x29c>
 8006248:	f3ef 8010 	mrs	r0, PRIMASK
 800624c:	2301      	movs	r3, #1
 800624e:	f383 8810 	msr	PRIMASK, r3
 8006252:	6821      	ldr	r1, [r4, #0]
 8006254:	688b      	ldr	r3, [r1, #8]
 8006256:	4393      	bics	r3, r2
 8006258:	608b      	str	r3, [r1, #8]
 800625a:	f380 8810 	msr	PRIMASK, r0
 800625e:	2580      	movs	r5, #128	@ 0x80
 8006260:	5960      	ldr	r0, [r4, r5]
 8006262:	2800      	cmp	r0, #0
 8006264:	d06c      	beq.n	8006340 <HAL_UART_IRQHandler+0x29c>
 8006266:	4b4e      	ldr	r3, [pc, #312]	@ (80063a0 <HAL_UART_IRQHandler+0x2fc>)
 8006268:	6383      	str	r3, [r0, #56]	@ 0x38
 800626a:	f7fd fb6b 	bl	8003944 <HAL_DMA_Abort_IT>
 800626e:	2800      	cmp	r0, #0
 8006270:	d100      	bne.n	8006274 <HAL_UART_IRQHandler+0x1d0>
 8006272:	e751      	b.n	8006118 <HAL_UART_IRQHandler+0x74>
 8006274:	5960      	ldr	r0, [r4, r5]
 8006276:	6b83      	ldr	r3, [r0, #56]	@ 0x38
 8006278:	4798      	blx	r3
 800627a:	e74d      	b.n	8006118 <HAL_UART_IRQHandler+0x74>
 800627c:	2610      	movs	r6, #16
 800627e:	421e      	tst	r6, r3
 8006280:	d100      	bne.n	8006284 <HAL_UART_IRQHandler+0x1e0>
 8006282:	e72b      	b.n	80060dc <HAL_UART_IRQHandler+0x38>
 8006284:	4206      	tst	r6, r0
 8006286:	d100      	bne.n	800628a <HAL_UART_IRQHandler+0x1e6>
 8006288:	e728      	b.n	80060dc <HAL_UART_IRQHandler+0x38>
 800628a:	2340      	movs	r3, #64	@ 0x40
 800628c:	0018      	movs	r0, r3
 800628e:	6216      	str	r6, [r2, #32]
 8006290:	6892      	ldr	r2, [r2, #8]
 8006292:	4010      	ands	r0, r2
 8006294:	4213      	tst	r3, r2
 8006296:	d100      	bne.n	800629a <HAL_UART_IRQHandler+0x1f6>
 8006298:	e084      	b.n	80063a4 <HAL_UART_IRQHandler+0x300>
 800629a:	2280      	movs	r2, #128	@ 0x80
 800629c:	4694      	mov	ip, r2
 800629e:	58a2      	ldr	r2, [r4, r2]
 80062a0:	6810      	ldr	r0, [r2, #0]
 80062a2:	6842      	ldr	r2, [r0, #4]
 80062a4:	b292      	uxth	r2, r2
 80062a6:	2a00      	cmp	r2, #0
 80062a8:	d100      	bne.n	80062ac <HAL_UART_IRQHandler+0x208>
 80062aa:	e735      	b.n	8006118 <HAL_UART_IRQHandler+0x74>
 80062ac:	215c      	movs	r1, #92	@ 0x5c
 80062ae:	468b      	mov	fp, r1
 80062b0:	5a61      	ldrh	r1, [r4, r1]
 80062b2:	4291      	cmp	r1, r2
 80062b4:	d800      	bhi.n	80062b8 <HAL_UART_IRQHandler+0x214>
 80062b6:	e72f      	b.n	8006118 <HAL_UART_IRQHandler+0x74>
 80062b8:	275e      	movs	r7, #94	@ 0x5e
 80062ba:	53e2      	strh	r2, [r4, r7]
 80062bc:	2220      	movs	r2, #32
 80062be:	0017      	movs	r7, r2
 80062c0:	6800      	ldr	r0, [r0, #0]
 80062c2:	4007      	ands	r7, r0
 80062c4:	46b8      	mov	r8, r7
 80062c6:	4202      	tst	r2, r0
 80062c8:	d100      	bne.n	80062cc <HAL_UART_IRQHandler+0x228>
 80062ca:	e0a8      	b.n	800641e <HAL_UART_IRQHandler+0x37a>
 80062cc:	2302      	movs	r3, #2
 80062ce:	6723      	str	r3, [r4, #112]	@ 0x70
 80062d0:	335c      	adds	r3, #92	@ 0x5c
 80062d2:	5ae3      	ldrh	r3, [r4, r3]
 80062d4:	0020      	movs	r0, r4
 80062d6:	1ac9      	subs	r1, r1, r3
 80062d8:	b289      	uxth	r1, r1
 80062da:	f7fb ff01 	bl	80020e0 <HAL_UARTEx_RxEventCallback>
 80062de:	e71b      	b.n	8006118 <HAL_UART_IRQHandler+0x74>
 80062e0:	6f63      	ldr	r3, [r4, #116]	@ 0x74
 80062e2:	2b00      	cmp	r3, #0
 80062e4:	d100      	bne.n	80062e8 <HAL_UART_IRQHandler+0x244>
 80062e6:	e717      	b.n	8006118 <HAL_UART_IRQHandler+0x74>
 80062e8:	0020      	movs	r0, r4
 80062ea:	4798      	blx	r3
 80062ec:	e714      	b.n	8006118 <HAL_UART_IRQHandler+0x74>
 80062ee:	6fa3      	ldr	r3, [r4, #120]	@ 0x78
 80062f0:	2b00      	cmp	r3, #0
 80062f2:	d1f9      	bne.n	80062e8 <HAL_UART_IRQHandler+0x244>
 80062f4:	e710      	b.n	8006118 <HAL_UART_IRQHandler+0x74>
 80062f6:	079d      	lsls	r5, r3, #30
 80062f8:	d500      	bpl.n	80062fc <HAL_UART_IRQHandler+0x258>
 80062fa:	e745      	b.n	8006188 <HAL_UART_IRQHandler+0xe4>
 80062fc:	075d      	lsls	r5, r3, #29
 80062fe:	d400      	bmi.n	8006302 <HAL_UART_IRQHandler+0x25e>
 8006300:	e742      	b.n	8006188 <HAL_UART_IRQHandler+0xe4>
 8006302:	07cd      	lsls	r5, r1, #31
 8006304:	d400      	bmi.n	8006308 <HAL_UART_IRQHandler+0x264>
 8006306:	e73f      	b.n	8006188 <HAL_UART_IRQHandler+0xe4>
 8006308:	2504      	movs	r5, #4
 800630a:	6215      	str	r5, [r2, #32]
 800630c:	358c      	adds	r5, #140	@ 0x8c
 800630e:	46a9      	mov	r9, r5
 8006310:	5965      	ldr	r5, [r4, r5]
 8006312:	46a8      	mov	r8, r5
 8006314:	2502      	movs	r5, #2
 8006316:	4646      	mov	r6, r8
 8006318:	432e      	orrs	r6, r5
 800631a:	0035      	movs	r5, r6
 800631c:	464e      	mov	r6, r9
 800631e:	51a5      	str	r5, [r4, r6]
 8006320:	e732      	b.n	8006188 <HAL_UART_IRQHandler+0xe4>
 8006322:	6f63      	ldr	r3, [r4, #116]	@ 0x74
 8006324:	2b00      	cmp	r3, #0
 8006326:	d100      	bne.n	800632a <HAL_UART_IRQHandler+0x286>
 8006328:	e754      	b.n	80061d4 <HAL_UART_IRQHandler+0x130>
 800632a:	0020      	movs	r0, r4
 800632c:	4798      	blx	r3
 800632e:	6822      	ldr	r2, [r4, #0]
 8006330:	e750      	b.n	80061d4 <HAL_UART_IRQHandler+0x130>
 8006332:	07dd      	lsls	r5, r3, #31
 8006334:	d400      	bmi.n	8006338 <HAL_UART_IRQHandler+0x294>
 8006336:	e714      	b.n	8006162 <HAL_UART_IRQHandler+0xbe>
 8006338:	05c5      	lsls	r5, r0, #23
 800633a:	d400      	bmi.n	800633e <HAL_UART_IRQHandler+0x29a>
 800633c:	e711      	b.n	8006162 <HAL_UART_IRQHandler+0xbe>
 800633e:	e706      	b.n	800614e <HAL_UART_IRQHandler+0xaa>
 8006340:	0020      	movs	r0, r4
 8006342:	f7ff fe37 	bl	8005fb4 <HAL_UART_ErrorCallback>
 8006346:	e6e7      	b.n	8006118 <HAL_UART_IRQHandler+0x74>
 8006348:	f3ef 8010 	mrs	r0, PRIMASK
 800634c:	2301      	movs	r3, #1
 800634e:	f383 8810 	msr	PRIMASK, r3
 8006352:	6821      	ldr	r1, [r4, #0]
 8006354:	680b      	ldr	r3, [r1, #0]
 8006356:	4393      	bics	r3, r2
 8006358:	600b      	str	r3, [r1, #0]
 800635a:	f380 8810 	msr	PRIMASK, r0
 800635e:	2388      	movs	r3, #136	@ 0x88
 8006360:	3a20      	subs	r2, #32
 8006362:	50e2      	str	r2, [r4, r3]
 8006364:	2300      	movs	r3, #0
 8006366:	0020      	movs	r0, r4
 8006368:	67a3      	str	r3, [r4, #120]	@ 0x78
 800636a:	f7fb fec5 	bl	80020f8 <HAL_UART_TxCpltCallback>
 800636e:	e6d3      	b.n	8006118 <HAL_UART_IRQHandler+0x74>
 8006370:	0020      	movs	r0, r4
 8006372:	f000 fc7f 	bl	8006c74 <HAL_UARTEx_TxFifoEmptyCallback>
 8006376:	e6cf      	b.n	8006118 <HAL_UART_IRQHandler+0x74>
 8006378:	0020      	movs	r0, r4
 800637a:	f000 fc79 	bl	8006c70 <HAL_UARTEx_RxFifoFullCallback>
 800637e:	e6cb      	b.n	8006118 <HAL_UART_IRQHandler+0x74>
 8006380:	0020      	movs	r0, r4
 8006382:	f7ff fe17 	bl	8005fb4 <HAL_UART_ErrorCallback>
 8006386:	51a5      	str	r5, [r4, r6]
 8006388:	e6c6      	b.n	8006118 <HAL_UART_IRQHandler+0x74>
 800638a:	46c0      	nop			@ (mov r8, r8)
 800638c:	0000080f 	.word	0x0000080f
 8006390:	10000001 	.word	0x10000001
 8006394:	04000120 	.word	0x04000120
 8006398:	fffffedf 	.word	0xfffffedf
 800639c:	effffffe 	.word	0xeffffffe
 80063a0:	08006091 	.word	0x08006091
 80063a4:	235c      	movs	r3, #92	@ 0x5c
 80063a6:	225e      	movs	r2, #94	@ 0x5e
 80063a8:	5ae1      	ldrh	r1, [r4, r3]
 80063aa:	5aa3      	ldrh	r3, [r4, r2]
 80063ac:	5aa2      	ldrh	r2, [r4, r2]
 80063ae:	b29b      	uxth	r3, r3
 80063b0:	2a00      	cmp	r2, #0
 80063b2:	d100      	bne.n	80063b6 <HAL_UART_IRQHandler+0x312>
 80063b4:	e6b0      	b.n	8006118 <HAL_UART_IRQHandler+0x74>
 80063b6:	1ac9      	subs	r1, r1, r3
 80063b8:	b289      	uxth	r1, r1
 80063ba:	2900      	cmp	r1, #0
 80063bc:	d100      	bne.n	80063c0 <HAL_UART_IRQHandler+0x31c>
 80063be:	e6ab      	b.n	8006118 <HAL_UART_IRQHandler+0x74>
 80063c0:	f3ef 8910 	mrs	r9, PRIMASK
 80063c4:	f385 8810 	msr	PRIMASK, r5
 80063c8:	6822      	ldr	r2, [r4, #0]
 80063ca:	6813      	ldr	r3, [r2, #0]
 80063cc:	4698      	mov	r8, r3
 80063ce:	4647      	mov	r7, r8
 80063d0:	4b2d      	ldr	r3, [pc, #180]	@ (8006488 <HAL_UART_IRQHandler+0x3e4>)
 80063d2:	401f      	ands	r7, r3
 80063d4:	6017      	str	r7, [r2, #0]
 80063d6:	f389 8810 	msr	PRIMASK, r9
 80063da:	f3ef 8910 	mrs	r9, PRIMASK
 80063de:	f385 8810 	msr	PRIMASK, r5
 80063e2:	6822      	ldr	r2, [r4, #0]
 80063e4:	6893      	ldr	r3, [r2, #8]
 80063e6:	4698      	mov	r8, r3
 80063e8:	4647      	mov	r7, r8
 80063ea:	4b28      	ldr	r3, [pc, #160]	@ (800648c <HAL_UART_IRQHandler+0x3e8>)
 80063ec:	401f      	ands	r7, r3
 80063ee:	6097      	str	r7, [r2, #8]
 80063f0:	f389 8810 	msr	PRIMASK, r9
 80063f4:	238c      	movs	r3, #140	@ 0x8c
 80063f6:	2220      	movs	r2, #32
 80063f8:	50e2      	str	r2, [r4, r3]
 80063fa:	66e0      	str	r0, [r4, #108]	@ 0x6c
 80063fc:	6760      	str	r0, [r4, #116]	@ 0x74
 80063fe:	f3ef 8010 	mrs	r0, PRIMASK
 8006402:	f385 8810 	msr	PRIMASK, r5
 8006406:	6822      	ldr	r2, [r4, #0]
 8006408:	6813      	ldr	r3, [r2, #0]
 800640a:	43b3      	bics	r3, r6
 800640c:	6013      	str	r3, [r2, #0]
 800640e:	f380 8810 	msr	PRIMASK, r0
 8006412:	2302      	movs	r3, #2
 8006414:	0020      	movs	r0, r4
 8006416:	6723      	str	r3, [r4, #112]	@ 0x70
 8006418:	f7fb fe62 	bl	80020e0 <HAL_UARTEx_RxEventCallback>
 800641c:	e67c      	b.n	8006118 <HAL_UART_IRQHandler+0x74>
 800641e:	f3ef 8910 	mrs	r9, PRIMASK
 8006422:	f385 8810 	msr	PRIMASK, r5
 8006426:	6820      	ldr	r0, [r4, #0]
 8006428:	4f19      	ldr	r7, [pc, #100]	@ (8006490 <HAL_UART_IRQHandler+0x3ec>)
 800642a:	6801      	ldr	r1, [r0, #0]
 800642c:	4039      	ands	r1, r7
 800642e:	6001      	str	r1, [r0, #0]
 8006430:	f389 8810 	msr	PRIMASK, r9
 8006434:	f3ef 8910 	mrs	r9, PRIMASK
 8006438:	f385 8810 	msr	PRIMASK, r5
 800643c:	6820      	ldr	r0, [r4, #0]
 800643e:	6881      	ldr	r1, [r0, #8]
 8006440:	43a9      	bics	r1, r5
 8006442:	6081      	str	r1, [r0, #8]
 8006444:	f389 8810 	msr	PRIMASK, r9
 8006448:	f3ef 8910 	mrs	r9, PRIMASK
 800644c:	f385 8810 	msr	PRIMASK, r5
 8006450:	6820      	ldr	r0, [r4, #0]
 8006452:	6881      	ldr	r1, [r0, #8]
 8006454:	4399      	bics	r1, r3
 8006456:	6081      	str	r1, [r0, #8]
 8006458:	f389 8810 	msr	PRIMASK, r9
 800645c:	334c      	adds	r3, #76	@ 0x4c
 800645e:	50e2      	str	r2, [r4, r3]
 8006460:	4643      	mov	r3, r8
 8006462:	66e3      	str	r3, [r4, #108]	@ 0x6c
 8006464:	f3ef 8110 	mrs	r1, PRIMASK
 8006468:	f385 8810 	msr	PRIMASK, r5
 800646c:	6822      	ldr	r2, [r4, #0]
 800646e:	6813      	ldr	r3, [r2, #0]
 8006470:	43b3      	bics	r3, r6
 8006472:	6013      	str	r3, [r2, #0]
 8006474:	f381 8810 	msr	PRIMASK, r1
 8006478:	4663      	mov	r3, ip
 800647a:	58e0      	ldr	r0, [r4, r3]
 800647c:	f7fd fa2a 	bl	80038d4 <HAL_DMA_Abort>
 8006480:	465b      	mov	r3, fp
 8006482:	5ae1      	ldrh	r1, [r4, r3]
 8006484:	e722      	b.n	80062cc <HAL_UART_IRQHandler+0x228>
 8006486:	46c0      	nop			@ (mov r8, r8)
 8006488:	fffffedf 	.word	0xfffffedf
 800648c:	effffffe 	.word	0xeffffffe
 8006490:	fffffeff 	.word	0xfffffeff

08006494 <UART_DMARxHalfCplt>:
 8006494:	2301      	movs	r3, #1
 8006496:	6a80      	ldr	r0, [r0, #40]	@ 0x28
 8006498:	b510      	push	{r4, lr}
 800649a:	6703      	str	r3, [r0, #112]	@ 0x70
 800649c:	6ec3      	ldr	r3, [r0, #108]	@ 0x6c
 800649e:	2b01      	cmp	r3, #1
 80064a0:	d002      	beq.n	80064a8 <UART_DMARxHalfCplt+0x14>
 80064a2:	f7ff fd85 	bl	8005fb0 <HAL_UART_RxHalfCpltCallback>
 80064a6:	bd10      	pop	{r4, pc}
 80064a8:	335b      	adds	r3, #91	@ 0x5b
 80064aa:	5ac1      	ldrh	r1, [r0, r3]
 80064ac:	0849      	lsrs	r1, r1, #1
 80064ae:	f7fb fe17 	bl	80020e0 <HAL_UARTEx_RxEventCallback>
 80064b2:	e7f8      	b.n	80064a6 <UART_DMARxHalfCplt+0x12>

080064b4 <UART_DMAReceiveCplt>:
 80064b4:	0003      	movs	r3, r0
 80064b6:	681b      	ldr	r3, [r3, #0]
 80064b8:	b570      	push	{r4, r5, r6, lr}
 80064ba:	681a      	ldr	r2, [r3, #0]
 80064bc:	2320      	movs	r3, #32
 80064be:	0019      	movs	r1, r3
 80064c0:	6a80      	ldr	r0, [r0, #40]	@ 0x28
 80064c2:	4011      	ands	r1, r2
 80064c4:	4213      	tst	r3, r2
 80064c6:	d127      	bne.n	8006518 <UART_DMAReceiveCplt+0x64>
 80064c8:	225e      	movs	r2, #94	@ 0x5e
 80064ca:	5281      	strh	r1, [r0, r2]
 80064cc:	f3ef 8510 	mrs	r5, PRIMASK
 80064d0:	3a5d      	subs	r2, #93	@ 0x5d
 80064d2:	f382 8810 	msr	PRIMASK, r2
 80064d6:	6804      	ldr	r4, [r0, #0]
 80064d8:	4e1c      	ldr	r6, [pc, #112]	@ (800654c <UART_DMAReceiveCplt+0x98>)
 80064da:	6821      	ldr	r1, [r4, #0]
 80064dc:	4031      	ands	r1, r6
 80064de:	6021      	str	r1, [r4, #0]
 80064e0:	f385 8810 	msr	PRIMASK, r5
 80064e4:	f3ef 8510 	mrs	r5, PRIMASK
 80064e8:	f382 8810 	msr	PRIMASK, r2
 80064ec:	6804      	ldr	r4, [r0, #0]
 80064ee:	68a1      	ldr	r1, [r4, #8]
 80064f0:	4391      	bics	r1, r2
 80064f2:	60a1      	str	r1, [r4, #8]
 80064f4:	f385 8810 	msr	PRIMASK, r5
 80064f8:	f3ef 8410 	mrs	r4, PRIMASK
 80064fc:	f382 8810 	msr	PRIMASK, r2
 8006500:	2540      	movs	r5, #64	@ 0x40
 8006502:	6801      	ldr	r1, [r0, #0]
 8006504:	688a      	ldr	r2, [r1, #8]
 8006506:	43aa      	bics	r2, r5
 8006508:	608a      	str	r2, [r1, #8]
 800650a:	f384 8810 	msr	PRIMASK, r4
 800650e:	228c      	movs	r2, #140	@ 0x8c
 8006510:	5083      	str	r3, [r0, r2]
 8006512:	6ec3      	ldr	r3, [r0, #108]	@ 0x6c
 8006514:	2b01      	cmp	r3, #1
 8006516:	d00c      	beq.n	8006532 <UART_DMAReceiveCplt+0x7e>
 8006518:	2300      	movs	r3, #0
 800651a:	6703      	str	r3, [r0, #112]	@ 0x70
 800651c:	6ec3      	ldr	r3, [r0, #108]	@ 0x6c
 800651e:	2b01      	cmp	r3, #1
 8006520:	d002      	beq.n	8006528 <UART_DMAReceiveCplt+0x74>
 8006522:	f7ff fd43 	bl	8005fac <HAL_UART_RxCpltCallback>
 8006526:	bd70      	pop	{r4, r5, r6, pc}
 8006528:	335b      	adds	r3, #91	@ 0x5b
 800652a:	5ac1      	ldrh	r1, [r0, r3]
 800652c:	f7fb fdd8 	bl	80020e0 <HAL_UARTEx_RxEventCallback>
 8006530:	e7f9      	b.n	8006526 <UART_DMAReceiveCplt+0x72>
 8006532:	f3ef 8110 	mrs	r1, PRIMASK
 8006536:	f383 8810 	msr	PRIMASK, r3
 800653a:	2410      	movs	r4, #16
 800653c:	6802      	ldr	r2, [r0, #0]
 800653e:	6813      	ldr	r3, [r2, #0]
 8006540:	43a3      	bics	r3, r4
 8006542:	6013      	str	r3, [r2, #0]
 8006544:	f381 8810 	msr	PRIMASK, r1
 8006548:	e7e6      	b.n	8006518 <UART_DMAReceiveCplt+0x64>
 800654a:	46c0      	nop			@ (mov r8, r8)
 800654c:	fffffeff 	.word	0xfffffeff

08006550 <UART_SetConfig>:
 8006550:	b5f8      	push	{r3, r4, r5, r6, r7, lr}
 8006552:	0004      	movs	r4, r0
 8006554:	6925      	ldr	r5, [r4, #16]
 8006556:	68a2      	ldr	r2, [r4, #8]
 8006558:	6803      	ldr	r3, [r0, #0]
 800655a:	432a      	orrs	r2, r5
 800655c:	6965      	ldr	r5, [r4, #20]
 800655e:	6819      	ldr	r1, [r3, #0]
 8006560:	69c0      	ldr	r0, [r0, #28]
 8006562:	432a      	orrs	r2, r5
 8006564:	4d8a      	ldr	r5, [pc, #552]	@ (8006790 <UART_SetConfig+0x240>)
 8006566:	4302      	orrs	r2, r0
 8006568:	4029      	ands	r1, r5
 800656a:	430a      	orrs	r2, r1
 800656c:	601a      	str	r2, [r3, #0]
 800656e:	685a      	ldr	r2, [r3, #4]
 8006570:	4988      	ldr	r1, [pc, #544]	@ (8006794 <UART_SetConfig+0x244>)
 8006572:	69a6      	ldr	r6, [r4, #24]
 8006574:	400a      	ands	r2, r1
 8006576:	68e1      	ldr	r1, [r4, #12]
 8006578:	430a      	orrs	r2, r1
 800657a:	605a      	str	r2, [r3, #4]
 800657c:	4a86      	ldr	r2, [pc, #536]	@ (8006798 <UART_SetConfig+0x248>)
 800657e:	6a61      	ldr	r1, [r4, #36]	@ 0x24
 8006580:	4293      	cmp	r3, r2
 8006582:	d100      	bne.n	8006586 <UART_SetConfig+0x36>
 8006584:	e0e4      	b.n	8006750 <UART_SetConfig+0x200>
 8006586:	4a85      	ldr	r2, [pc, #532]	@ (800679c <UART_SetConfig+0x24c>)
 8006588:	4293      	cmp	r3, r2
 800658a:	d100      	bne.n	800658e <UART_SetConfig+0x3e>
 800658c:	e095      	b.n	80066ba <UART_SetConfig+0x16a>
 800658e:	6a22      	ldr	r2, [r4, #32]
 8006590:	689d      	ldr	r5, [r3, #8]
 8006592:	4332      	orrs	r2, r6
 8006594:	4e82      	ldr	r6, [pc, #520]	@ (80067a0 <UART_SetConfig+0x250>)
 8006596:	4035      	ands	r5, r6
 8006598:	432a      	orrs	r2, r5
 800659a:	250f      	movs	r5, #15
 800659c:	609a      	str	r2, [r3, #8]
 800659e:	6ada      	ldr	r2, [r3, #44]	@ 0x2c
 80065a0:	43aa      	bics	r2, r5
 80065a2:	430a      	orrs	r2, r1
 80065a4:	62da      	str	r2, [r3, #44]	@ 0x2c
 80065a6:	4a7f      	ldr	r2, [pc, #508]	@ (80067a4 <UART_SetConfig+0x254>)
 80065a8:	4293      	cmp	r3, r2
 80065aa:	d026      	beq.n	80065fa <UART_SetConfig+0xaa>
 80065ac:	4a7e      	ldr	r2, [pc, #504]	@ (80067a8 <UART_SetConfig+0x258>)
 80065ae:	4293      	cmp	r3, r2
 80065b0:	d013      	beq.n	80065da <UART_SetConfig+0x8a>
 80065b2:	4a7e      	ldr	r2, [pc, #504]	@ (80067ac <UART_SetConfig+0x25c>)
 80065b4:	4293      	cmp	r3, r2
 80065b6:	d100      	bne.n	80065ba <UART_SetConfig+0x6a>
 80065b8:	e075      	b.n	80066a6 <UART_SetConfig+0x156>
 80065ba:	4a7d      	ldr	r2, [pc, #500]	@ (80067b0 <UART_SetConfig+0x260>)
 80065bc:	4293      	cmp	r3, r2
 80065be:	d026      	beq.n	800660e <UART_SetConfig+0xbe>
 80065c0:	4a7c      	ldr	r2, [pc, #496]	@ (80067b4 <UART_SetConfig+0x264>)
 80065c2:	4293      	cmp	r3, r2
 80065c4:	d023      	beq.n	800660e <UART_SetConfig+0xbe>
 80065c6:	4a7c      	ldr	r2, [pc, #496]	@ (80067b8 <UART_SetConfig+0x268>)
 80065c8:	4293      	cmp	r3, r2
 80065ca:	d020      	beq.n	800660e <UART_SetConfig+0xbe>
 80065cc:	2001      	movs	r0, #1
 80065ce:	4b7b      	ldr	r3, [pc, #492]	@ (80067bc <UART_SetConfig+0x26c>)
 80065d0:	66a3      	str	r3, [r4, #104]	@ 0x68
 80065d2:	2300      	movs	r3, #0
 80065d4:	6763      	str	r3, [r4, #116]	@ 0x74
 80065d6:	67a3      	str	r3, [r4, #120]	@ 0x78
 80065d8:	bdf8      	pop	{r3, r4, r5, r6, r7, pc}
 80065da:	4b79      	ldr	r3, [pc, #484]	@ (80067c0 <UART_SetConfig+0x270>)
 80065dc:	6d5a      	ldr	r2, [r3, #84]	@ 0x54
 80065de:	230c      	movs	r3, #12
 80065e0:	4013      	ands	r3, r2
 80065e2:	2b08      	cmp	r3, #8
 80065e4:	d039      	beq.n	800665a <UART_SetConfig+0x10a>
 80065e6:	d830      	bhi.n	800664a <UART_SetConfig+0xfa>
 80065e8:	2b00      	cmp	r3, #0
 80065ea:	d010      	beq.n	800660e <UART_SetConfig+0xbe>
 80065ec:	2380      	movs	r3, #128	@ 0x80
 80065ee:	021b      	lsls	r3, r3, #8
 80065f0:	4298      	cmp	r0, r3
 80065f2:	d039      	beq.n	8006668 <UART_SetConfig+0x118>
 80065f4:	f7fe ffd8 	bl	80055a8 <HAL_RCC_GetSysClockFreq>
 80065f8:	e010      	b.n	800661c <UART_SetConfig+0xcc>
 80065fa:	4b71      	ldr	r3, [pc, #452]	@ (80067c0 <UART_SetConfig+0x270>)
 80065fc:	6d5a      	ldr	r2, [r3, #84]	@ 0x54
 80065fe:	2303      	movs	r3, #3
 8006600:	4013      	ands	r3, r2
 8006602:	2b02      	cmp	r3, #2
 8006604:	d029      	beq.n	800665a <UART_SetConfig+0x10a>
 8006606:	2b03      	cmp	r3, #3
 8006608:	d021      	beq.n	800664e <UART_SetConfig+0xfe>
 800660a:	2b01      	cmp	r3, #1
 800660c:	d0ee      	beq.n	80065ec <UART_SetConfig+0x9c>
 800660e:	2380      	movs	r3, #128	@ 0x80
 8006610:	021b      	lsls	r3, r3, #8
 8006612:	4298      	cmp	r0, r3
 8006614:	d100      	bne.n	8006618 <UART_SetConfig+0xc8>
 8006616:	e0b0      	b.n	800677a <UART_SetConfig+0x22a>
 8006618:	f7ff f8dc 	bl	80057d4 <HAL_RCC_GetPCLK1Freq>
 800661c:	2800      	cmp	r0, #0
 800661e:	d012      	beq.n	8006646 <UART_SetConfig+0xf6>
 8006620:	6a61      	ldr	r1, [r4, #36]	@ 0x24
 8006622:	4b68      	ldr	r3, [pc, #416]	@ (80067c4 <UART_SetConfig+0x274>)
 8006624:	0049      	lsls	r1, r1, #1
 8006626:	5ac9      	ldrh	r1, [r1, r3]
 8006628:	f7f9 fd74 	bl	8000114 <__udivsi3>
 800662c:	6865      	ldr	r5, [r4, #4]
 800662e:	086b      	lsrs	r3, r5, #1
 8006630:	18c0      	adds	r0, r0, r3
 8006632:	0029      	movs	r1, r5
 8006634:	f7f9 fd6e 	bl	8000114 <__udivsi3>
 8006638:	0002      	movs	r2, r0
 800663a:	4b63      	ldr	r3, [pc, #396]	@ (80067c8 <UART_SetConfig+0x278>)
 800663c:	3a10      	subs	r2, #16
 800663e:	429a      	cmp	r2, r3
 8006640:	d8c4      	bhi.n	80065cc <UART_SetConfig+0x7c>
 8006642:	6823      	ldr	r3, [r4, #0]
 8006644:	60d8      	str	r0, [r3, #12]
 8006646:	2000      	movs	r0, #0
 8006648:	e7c1      	b.n	80065ce <UART_SetConfig+0x7e>
 800664a:	2b0c      	cmp	r3, #12
 800664c:	d1be      	bne.n	80065cc <UART_SetConfig+0x7c>
 800664e:	2380      	movs	r3, #128	@ 0x80
 8006650:	021b      	lsls	r3, r3, #8
 8006652:	4298      	cmp	r0, r3
 8006654:	d00d      	beq.n	8006672 <UART_SetConfig+0x122>
 8006656:	0018      	movs	r0, r3
 8006658:	e7e3      	b.n	8006622 <UART_SetConfig+0xd2>
 800665a:	2380      	movs	r3, #128	@ 0x80
 800665c:	021b      	lsls	r3, r3, #8
 800665e:	4298      	cmp	r0, r3
 8006660:	d100      	bne.n	8006664 <UART_SetConfig+0x114>
 8006662:	e08d      	b.n	8006780 <UART_SetConfig+0x230>
 8006664:	4859      	ldr	r0, [pc, #356]	@ (80067cc <UART_SetConfig+0x27c>)
 8006666:	e7dc      	b.n	8006622 <UART_SetConfig+0xd2>
 8006668:	f7fe ff9e 	bl	80055a8 <HAL_RCC_GetSysClockFreq>
 800666c:	2800      	cmp	r0, #0
 800666e:	d0ea      	beq.n	8006646 <UART_SetConfig+0xf6>
 8006670:	6a61      	ldr	r1, [r4, #36]	@ 0x24
 8006672:	4b54      	ldr	r3, [pc, #336]	@ (80067c4 <UART_SetConfig+0x274>)
 8006674:	0049      	lsls	r1, r1, #1
 8006676:	5ac9      	ldrh	r1, [r1, r3]
 8006678:	f7f9 fd4c 	bl	8000114 <__udivsi3>
 800667c:	6865      	ldr	r5, [r4, #4]
 800667e:	0040      	lsls	r0, r0, #1
 8006680:	086b      	lsrs	r3, r5, #1
 8006682:	18c0      	adds	r0, r0, r3
 8006684:	0029      	movs	r1, r5
 8006686:	f7f9 fd45 	bl	8000114 <__udivsi3>
 800668a:	0002      	movs	r2, r0
 800668c:	4b4e      	ldr	r3, [pc, #312]	@ (80067c8 <UART_SetConfig+0x278>)
 800668e:	3a10      	subs	r2, #16
 8006690:	429a      	cmp	r2, r3
 8006692:	d89b      	bhi.n	80065cc <UART_SetConfig+0x7c>
 8006694:	4b4e      	ldr	r3, [pc, #312]	@ (80067d0 <UART_SetConfig+0x280>)
 8006696:	6822      	ldr	r2, [r4, #0]
 8006698:	4003      	ands	r3, r0
 800669a:	0700      	lsls	r0, r0, #28
 800669c:	0f40      	lsrs	r0, r0, #29
 800669e:	4303      	orrs	r3, r0
 80066a0:	60d3      	str	r3, [r2, #12]
 80066a2:	2000      	movs	r0, #0
 80066a4:	e793      	b.n	80065ce <UART_SetConfig+0x7e>
 80066a6:	4b46      	ldr	r3, [pc, #280]	@ (80067c0 <UART_SetConfig+0x270>)
 80066a8:	6d5a      	ldr	r2, [r3, #84]	@ 0x54
 80066aa:	2330      	movs	r3, #48	@ 0x30
 80066ac:	4013      	ands	r3, r2
 80066ae:	2b20      	cmp	r3, #32
 80066b0:	d0d3      	beq.n	800665a <UART_SetConfig+0x10a>
 80066b2:	d999      	bls.n	80065e8 <UART_SetConfig+0x98>
 80066b4:	2b30      	cmp	r3, #48	@ 0x30
 80066b6:	d0ca      	beq.n	800664e <UART_SetConfig+0xfe>
 80066b8:	e788      	b.n	80065cc <UART_SetConfig+0x7c>
 80066ba:	689a      	ldr	r2, [r3, #8]
 80066bc:	4838      	ldr	r0, [pc, #224]	@ (80067a0 <UART_SetConfig+0x250>)
 80066be:	4002      	ands	r2, r0
 80066c0:	200f      	movs	r0, #15
 80066c2:	4332      	orrs	r2, r6
 80066c4:	609a      	str	r2, [r3, #8]
 80066c6:	6ada      	ldr	r2, [r3, #44]	@ 0x2c
 80066c8:	4382      	bics	r2, r0
 80066ca:	430a      	orrs	r2, r1
 80066cc:	20c0      	movs	r0, #192	@ 0xc0
 80066ce:	62da      	str	r2, [r3, #44]	@ 0x2c
 80066d0:	2280      	movs	r2, #128	@ 0x80
 80066d2:	4b3b      	ldr	r3, [pc, #236]	@ (80067c0 <UART_SetConfig+0x270>)
 80066d4:	0080      	lsls	r0, r0, #2
 80066d6:	6d5b      	ldr	r3, [r3, #84]	@ 0x54
 80066d8:	0092      	lsls	r2, r2, #2
 80066da:	4003      	ands	r3, r0
 80066dc:	4293      	cmp	r3, r2
 80066de:	d04a      	beq.n	8006776 <UART_SetConfig+0x226>
 80066e0:	4293      	cmp	r3, r2
 80066e2:	d84f      	bhi.n	8006784 <UART_SetConfig+0x234>
 80066e4:	2b00      	cmp	r3, #0
 80066e6:	d02f      	beq.n	8006748 <UART_SetConfig+0x1f8>
 80066e8:	f7fe ff5e 	bl	80055a8 <HAL_RCC_GetSysClockFreq>
 80066ec:	0006      	movs	r6, r0
 80066ee:	2e00      	cmp	r6, #0
 80066f0:	d0a9      	beq.n	8006646 <UART_SetConfig+0xf6>
 80066f2:	6a61      	ldr	r1, [r4, #36]	@ 0x24
 80066f4:	4b33      	ldr	r3, [pc, #204]	@ (80067c4 <UART_SetConfig+0x274>)
 80066f6:	0049      	lsls	r1, r1, #1
 80066f8:	5acf      	ldrh	r7, [r1, r3]
 80066fa:	0030      	movs	r0, r6
 80066fc:	0039      	movs	r1, r7
 80066fe:	f7f9 fd09 	bl	8000114 <__udivsi3>
 8006702:	6865      	ldr	r5, [r4, #4]
 8006704:	006b      	lsls	r3, r5, #1
 8006706:	195b      	adds	r3, r3, r5
 8006708:	4283      	cmp	r3, r0
 800670a:	d900      	bls.n	800670e <UART_SetConfig+0x1be>
 800670c:	e75e      	b.n	80065cc <UART_SetConfig+0x7c>
 800670e:	032b      	lsls	r3, r5, #12
 8006710:	4283      	cmp	r3, r0
 8006712:	d200      	bcs.n	8006716 <UART_SetConfig+0x1c6>
 8006714:	e75a      	b.n	80065cc <UART_SetConfig+0x7c>
 8006716:	003a      	movs	r2, r7
 8006718:	2300      	movs	r3, #0
 800671a:	0030      	movs	r0, r6
 800671c:	2100      	movs	r1, #0
 800671e:	f7f9 fe6f 	bl	8000400 <__aeabi_uldivmod>
 8006722:	020b      	lsls	r3, r1, #8
 8006724:	2100      	movs	r1, #0
 8006726:	0e06      	lsrs	r6, r0, #24
 8006728:	0202      	lsls	r2, r0, #8
 800672a:	4333      	orrs	r3, r6
 800672c:	0868      	lsrs	r0, r5, #1
 800672e:	1880      	adds	r0, r0, r2
 8006730:	4159      	adcs	r1, r3
 8006732:	002a      	movs	r2, r5
 8006734:	2300      	movs	r3, #0
 8006736:	f7f9 fe63 	bl	8000400 <__aeabi_uldivmod>
 800673a:	4b26      	ldr	r3, [pc, #152]	@ (80067d4 <UART_SetConfig+0x284>)
 800673c:	18c2      	adds	r2, r0, r3
 800673e:	4b26      	ldr	r3, [pc, #152]	@ (80067d8 <UART_SetConfig+0x288>)
 8006740:	429a      	cmp	r2, r3
 8006742:	d900      	bls.n	8006746 <UART_SetConfig+0x1f6>
 8006744:	e742      	b.n	80065cc <UART_SetConfig+0x7c>
 8006746:	e77c      	b.n	8006642 <UART_SetConfig+0xf2>
 8006748:	f7ff f844 	bl	80057d4 <HAL_RCC_GetPCLK1Freq>
 800674c:	0006      	movs	r6, r0
 800674e:	e7ce      	b.n	80066ee <UART_SetConfig+0x19e>
 8006750:	689a      	ldr	r2, [r3, #8]
 8006752:	4813      	ldr	r0, [pc, #76]	@ (80067a0 <UART_SetConfig+0x250>)
 8006754:	4002      	ands	r2, r0
 8006756:	200f      	movs	r0, #15
 8006758:	4332      	orrs	r2, r6
 800675a:	609a      	str	r2, [r3, #8]
 800675c:	6ada      	ldr	r2, [r3, #44]	@ 0x2c
 800675e:	4382      	bics	r2, r0
 8006760:	430a      	orrs	r2, r1
 8006762:	20c0      	movs	r0, #192	@ 0xc0
 8006764:	62da      	str	r2, [r3, #44]	@ 0x2c
 8006766:	2280      	movs	r2, #128	@ 0x80
 8006768:	4b15      	ldr	r3, [pc, #84]	@ (80067c0 <UART_SetConfig+0x270>)
 800676a:	0100      	lsls	r0, r0, #4
 800676c:	6d5b      	ldr	r3, [r3, #84]	@ 0x54
 800676e:	0112      	lsls	r2, r2, #4
 8006770:	4003      	ands	r3, r0
 8006772:	4293      	cmp	r3, r2
 8006774:	d1b4      	bne.n	80066e0 <UART_SetConfig+0x190>
 8006776:	4e15      	ldr	r6, [pc, #84]	@ (80067cc <UART_SetConfig+0x27c>)
 8006778:	e7bc      	b.n	80066f4 <UART_SetConfig+0x1a4>
 800677a:	f7ff f82b 	bl	80057d4 <HAL_RCC_GetPCLK1Freq>
 800677e:	e775      	b.n	800666c <UART_SetConfig+0x11c>
 8006780:	4812      	ldr	r0, [pc, #72]	@ (80067cc <UART_SetConfig+0x27c>)
 8006782:	e776      	b.n	8006672 <UART_SetConfig+0x122>
 8006784:	4283      	cmp	r3, r0
 8006786:	d000      	beq.n	800678a <UART_SetConfig+0x23a>
 8006788:	e720      	b.n	80065cc <UART_SetConfig+0x7c>
 800678a:	2680      	movs	r6, #128	@ 0x80
 800678c:	0236      	lsls	r6, r6, #8
 800678e:	e7b1      	b.n	80066f4 <UART_SetConfig+0x1a4>
 8006790:	cfff69f3 	.word	0xcfff69f3
 8006794:	ffffcfff 	.word	0xffffcfff
 8006798:	40008000 	.word	0x40008000
 800679c:	40008400 	.word	0x40008400
 80067a0:	11fff4ff 	.word	0x11fff4ff
 80067a4:	40013800 	.word	0x40013800
 80067a8:	40004400 	.word	0x40004400
 80067ac:	40004800 	.word	0x40004800
 80067b0:	40004c00 	.word	0x40004c00
 80067b4:	40005000 	.word	0x40005000
 80067b8:	40013c00 	.word	0x40013c00
 80067bc:	00010001 	.word	0x00010001
 80067c0:	40021000 	.word	0x40021000
 80067c4:	08009824 	.word	0x08009824
 80067c8:	0000ffef 	.word	0x0000ffef
 80067cc:	00f42400 	.word	0x00f42400
 80067d0:	0000fff0 	.word	0x0000fff0
 80067d4:	fffffd00 	.word	0xfffffd00
 80067d8:	000ffcff 	.word	0x000ffcff

080067dc <UART_AdvFeatureConfig>:
 80067dc:	6a83      	ldr	r3, [r0, #40]	@ 0x28
 80067de:	b530      	push	{r4, r5, lr}
 80067e0:	071a      	lsls	r2, r3, #28
 80067e2:	d506      	bpl.n	80067f2 <UART_AdvFeatureConfig+0x16>
 80067e4:	6801      	ldr	r1, [r0, #0]
 80067e6:	4c28      	ldr	r4, [pc, #160]	@ (8006888 <UART_AdvFeatureConfig+0xac>)
 80067e8:	684a      	ldr	r2, [r1, #4]
 80067ea:	4022      	ands	r2, r4
 80067ec:	6b84      	ldr	r4, [r0, #56]	@ 0x38
 80067ee:	4322      	orrs	r2, r4
 80067f0:	604a      	str	r2, [r1, #4]
 80067f2:	07da      	lsls	r2, r3, #31
 80067f4:	d506      	bpl.n	8006804 <UART_AdvFeatureConfig+0x28>
 80067f6:	6801      	ldr	r1, [r0, #0]
 80067f8:	4c24      	ldr	r4, [pc, #144]	@ (800688c <UART_AdvFeatureConfig+0xb0>)
 80067fa:	684a      	ldr	r2, [r1, #4]
 80067fc:	4022      	ands	r2, r4
 80067fe:	6ac4      	ldr	r4, [r0, #44]	@ 0x2c
 8006800:	4322      	orrs	r2, r4
 8006802:	604a      	str	r2, [r1, #4]
 8006804:	079a      	lsls	r2, r3, #30
 8006806:	d506      	bpl.n	8006816 <UART_AdvFeatureConfig+0x3a>
 8006808:	6801      	ldr	r1, [r0, #0]
 800680a:	4c21      	ldr	r4, [pc, #132]	@ (8006890 <UART_AdvFeatureConfig+0xb4>)
 800680c:	684a      	ldr	r2, [r1, #4]
 800680e:	4022      	ands	r2, r4
 8006810:	6b04      	ldr	r4, [r0, #48]	@ 0x30
 8006812:	4322      	orrs	r2, r4
 8006814:	604a      	str	r2, [r1, #4]
 8006816:	075a      	lsls	r2, r3, #29
 8006818:	d506      	bpl.n	8006828 <UART_AdvFeatureConfig+0x4c>
 800681a:	6801      	ldr	r1, [r0, #0]
 800681c:	4c1d      	ldr	r4, [pc, #116]	@ (8006894 <UART_AdvFeatureConfig+0xb8>)
 800681e:	684a      	ldr	r2, [r1, #4]
 8006820:	4022      	ands	r2, r4
 8006822:	6b44      	ldr	r4, [r0, #52]	@ 0x34
 8006824:	4322      	orrs	r2, r4
 8006826:	604a      	str	r2, [r1, #4]
 8006828:	06da      	lsls	r2, r3, #27
 800682a:	d506      	bpl.n	800683a <UART_AdvFeatureConfig+0x5e>
 800682c:	6801      	ldr	r1, [r0, #0]
 800682e:	4c1a      	ldr	r4, [pc, #104]	@ (8006898 <UART_AdvFeatureConfig+0xbc>)
 8006830:	688a      	ldr	r2, [r1, #8]
 8006832:	4022      	ands	r2, r4
 8006834:	6bc4      	ldr	r4, [r0, #60]	@ 0x3c
 8006836:	4322      	orrs	r2, r4
 8006838:	608a      	str	r2, [r1, #8]
 800683a:	069a      	lsls	r2, r3, #26
 800683c:	d506      	bpl.n	800684c <UART_AdvFeatureConfig+0x70>
 800683e:	6801      	ldr	r1, [r0, #0]
 8006840:	4c16      	ldr	r4, [pc, #88]	@ (800689c <UART_AdvFeatureConfig+0xc0>)
 8006842:	688a      	ldr	r2, [r1, #8]
 8006844:	4022      	ands	r2, r4
 8006846:	6c04      	ldr	r4, [r0, #64]	@ 0x40
 8006848:	4322      	orrs	r2, r4
 800684a:	608a      	str	r2, [r1, #8]
 800684c:	065a      	lsls	r2, r3, #25
 800684e:	d50a      	bpl.n	8006866 <UART_AdvFeatureConfig+0x8a>
 8006850:	6801      	ldr	r1, [r0, #0]
 8006852:	4d13      	ldr	r5, [pc, #76]	@ (80068a0 <UART_AdvFeatureConfig+0xc4>)
 8006854:	684a      	ldr	r2, [r1, #4]
 8006856:	6c44      	ldr	r4, [r0, #68]	@ 0x44
 8006858:	402a      	ands	r2, r5
 800685a:	4322      	orrs	r2, r4
 800685c:	604a      	str	r2, [r1, #4]
 800685e:	2280      	movs	r2, #128	@ 0x80
 8006860:	0352      	lsls	r2, r2, #13
 8006862:	4294      	cmp	r4, r2
 8006864:	d009      	beq.n	800687a <UART_AdvFeatureConfig+0x9e>
 8006866:	061b      	lsls	r3, r3, #24
 8006868:	d506      	bpl.n	8006878 <UART_AdvFeatureConfig+0x9c>
 800686a:	6802      	ldr	r2, [r0, #0]
 800686c:	490d      	ldr	r1, [pc, #52]	@ (80068a4 <UART_AdvFeatureConfig+0xc8>)
 800686e:	6853      	ldr	r3, [r2, #4]
 8006870:	400b      	ands	r3, r1
 8006872:	6cc1      	ldr	r1, [r0, #76]	@ 0x4c
 8006874:	430b      	orrs	r3, r1
 8006876:	6053      	str	r3, [r2, #4]
 8006878:	bd30      	pop	{r4, r5, pc}
 800687a:	684a      	ldr	r2, [r1, #4]
 800687c:	4c0a      	ldr	r4, [pc, #40]	@ (80068a8 <UART_AdvFeatureConfig+0xcc>)
 800687e:	4022      	ands	r2, r4
 8006880:	6c84      	ldr	r4, [r0, #72]	@ 0x48
 8006882:	4322      	orrs	r2, r4
 8006884:	604a      	str	r2, [r1, #4]
 8006886:	e7ee      	b.n	8006866 <UART_AdvFeatureConfig+0x8a>
 8006888:	ffff7fff 	.word	0xffff7fff
 800688c:	fffdffff 	.word	0xfffdffff
 8006890:	fffeffff 	.word	0xfffeffff
 8006894:	fffbffff 	.word	0xfffbffff
 8006898:	ffffefff 	.word	0xffffefff
 800689c:	ffffdfff 	.word	0xffffdfff
 80068a0:	ffefffff 	.word	0xffefffff
 80068a4:	fff7ffff 	.word	0xfff7ffff
 80068a8:	ff9fffff 	.word	0xff9fffff

080068ac <UART_CheckIdleState>:
 80068ac:	b5f0      	push	{r4, r5, r6, r7, lr}
 80068ae:	2390      	movs	r3, #144	@ 0x90
 80068b0:	2200      	movs	r2, #0
 80068b2:	46c6      	mov	lr, r8
 80068b4:	0004      	movs	r4, r0
 80068b6:	b500      	push	{lr}
 80068b8:	50c2      	str	r2, [r0, r3]
 80068ba:	f7fc fe27 	bl	800350c <HAL_GetTick>
 80068be:	6823      	ldr	r3, [r4, #0]
 80068c0:	0005      	movs	r5, r0
 80068c2:	681a      	ldr	r2, [r3, #0]
 80068c4:	0712      	lsls	r2, r2, #28
 80068c6:	d411      	bmi.n	80068ec <UART_CheckIdleState+0x40>
 80068c8:	681a      	ldr	r2, [r3, #0]
 80068ca:	0752      	lsls	r2, r2, #29
 80068cc:	d43e      	bmi.n	800694c <UART_CheckIdleState+0xa0>
 80068ce:	2320      	movs	r3, #32
 80068d0:	2288      	movs	r2, #136	@ 0x88
 80068d2:	50a3      	str	r3, [r4, r2]
 80068d4:	3204      	adds	r2, #4
 80068d6:	50a3      	str	r3, [r4, r2]
 80068d8:	2300      	movs	r3, #0
 80068da:	2000      	movs	r0, #0
 80068dc:	66e3      	str	r3, [r4, #108]	@ 0x6c
 80068de:	6723      	str	r3, [r4, #112]	@ 0x70
 80068e0:	2384      	movs	r3, #132	@ 0x84
 80068e2:	2200      	movs	r2, #0
 80068e4:	54e2      	strb	r2, [r4, r3]
 80068e6:	bc80      	pop	{r7}
 80068e8:	46b8      	mov	r8, r7
 80068ea:	bdf0      	pop	{r4, r5, r6, r7, pc}
 80068ec:	69da      	ldr	r2, [r3, #28]
 80068ee:	0292      	lsls	r2, r2, #10
 80068f0:	d4ea      	bmi.n	80068c8 <UART_CheckIdleState+0x1c>
 80068f2:	2680      	movs	r6, #128	@ 0x80
 80068f4:	2308      	movs	r3, #8
 80068f6:	2704      	movs	r7, #4
 80068f8:	4698      	mov	r8, r3
 80068fa:	04b6      	lsls	r6, r6, #18
 80068fc:	e010      	b.n	8006920 <UART_CheckIdleState+0x74>
 80068fe:	6823      	ldr	r3, [r4, #0]
 8006900:	681a      	ldr	r2, [r3, #0]
 8006902:	4217      	tst	r7, r2
 8006904:	d009      	beq.n	800691a <UART_CheckIdleState+0x6e>
 8006906:	4641      	mov	r1, r8
 8006908:	69da      	ldr	r2, [r3, #28]
 800690a:	4211      	tst	r1, r2
 800690c:	d159      	bne.n	80069c2 <UART_CheckIdleState+0x116>
 800690e:	2280      	movs	r2, #128	@ 0x80
 8006910:	69d9      	ldr	r1, [r3, #28]
 8006912:	0112      	lsls	r2, r2, #4
 8006914:	4211      	tst	r1, r2
 8006916:	d000      	beq.n	800691a <UART_CheckIdleState+0x6e>
 8006918:	e085      	b.n	8006a26 <UART_CheckIdleState+0x17a>
 800691a:	69da      	ldr	r2, [r3, #28]
 800691c:	0292      	lsls	r2, r2, #10
 800691e:	d4d3      	bmi.n	80068c8 <UART_CheckIdleState+0x1c>
 8006920:	f7fc fdf4 	bl	800350c <HAL_GetTick>
 8006924:	1b40      	subs	r0, r0, r5
 8006926:	42b0      	cmp	r0, r6
 8006928:	d3e9      	bcc.n	80068fe <UART_CheckIdleState+0x52>
 800692a:	f3ef 8110 	mrs	r1, PRIMASK
 800692e:	2301      	movs	r3, #1
 8006930:	f383 8810 	msr	PRIMASK, r3
 8006934:	2080      	movs	r0, #128	@ 0x80
 8006936:	6822      	ldr	r2, [r4, #0]
 8006938:	6813      	ldr	r3, [r2, #0]
 800693a:	4383      	bics	r3, r0
 800693c:	6013      	str	r3, [r2, #0]
 800693e:	f381 8810 	msr	PRIMASK, r1
 8006942:	2388      	movs	r3, #136	@ 0x88
 8006944:	2220      	movs	r2, #32
 8006946:	2003      	movs	r0, #3
 8006948:	50e2      	str	r2, [r4, r3]
 800694a:	e7c9      	b.n	80068e0 <UART_CheckIdleState+0x34>
 800694c:	69db      	ldr	r3, [r3, #28]
 800694e:	025b      	lsls	r3, r3, #9
 8006950:	d4bd      	bmi.n	80068ce <UART_CheckIdleState+0x22>
 8006952:	2680      	movs	r6, #128	@ 0x80
 8006954:	2308      	movs	r3, #8
 8006956:	2704      	movs	r7, #4
 8006958:	4698      	mov	r8, r3
 800695a:	04b6      	lsls	r6, r6, #18
 800695c:	e011      	b.n	8006982 <UART_CheckIdleState+0xd6>
 800695e:	6823      	ldr	r3, [r4, #0]
 8006960:	681a      	ldr	r2, [r3, #0]
 8006962:	4217      	tst	r7, r2
 8006964:	d00a      	beq.n	800697c <UART_CheckIdleState+0xd0>
 8006966:	4641      	mov	r1, r8
 8006968:	69da      	ldr	r2, [r3, #28]
 800696a:	4211      	tst	r1, r2
 800696c:	d000      	beq.n	8006970 <UART_CheckIdleState+0xc4>
 800696e:	e08b      	b.n	8006a88 <UART_CheckIdleState+0x1dc>
 8006970:	2280      	movs	r2, #128	@ 0x80
 8006972:	69d9      	ldr	r1, [r3, #28]
 8006974:	0112      	lsls	r2, r2, #4
 8006976:	4211      	tst	r1, r2
 8006978:	d000      	beq.n	800697c <UART_CheckIdleState+0xd0>
 800697a:	e0b7      	b.n	8006aec <UART_CheckIdleState+0x240>
 800697c:	69db      	ldr	r3, [r3, #28]
 800697e:	025b      	lsls	r3, r3, #9
 8006980:	d4a5      	bmi.n	80068ce <UART_CheckIdleState+0x22>
 8006982:	f7fc fdc3 	bl	800350c <HAL_GetTick>
 8006986:	1b40      	subs	r0, r0, r5
 8006988:	42b0      	cmp	r0, r6
 800698a:	d3e8      	bcc.n	800695e <UART_CheckIdleState+0xb2>
 800698c:	f3ef 8010 	mrs	r0, PRIMASK
 8006990:	2201      	movs	r2, #1
 8006992:	f382 8810 	msr	PRIMASK, r2
 8006996:	6821      	ldr	r1, [r4, #0]
 8006998:	4d6d      	ldr	r5, [pc, #436]	@ (8006b50 <UART_CheckIdleState+0x2a4>)
 800699a:	680b      	ldr	r3, [r1, #0]
 800699c:	402b      	ands	r3, r5
 800699e:	600b      	str	r3, [r1, #0]
 80069a0:	f380 8810 	msr	PRIMASK, r0
 80069a4:	f3ef 8010 	mrs	r0, PRIMASK
 80069a8:	f382 8810 	msr	PRIMASK, r2
 80069ac:	6821      	ldr	r1, [r4, #0]
 80069ae:	688b      	ldr	r3, [r1, #8]
 80069b0:	4393      	bics	r3, r2
 80069b2:	608b      	str	r3, [r1, #8]
 80069b4:	f380 8810 	msr	PRIMASK, r0
 80069b8:	238c      	movs	r3, #140	@ 0x8c
 80069ba:	321f      	adds	r2, #31
 80069bc:	2003      	movs	r0, #3
 80069be:	50e2      	str	r2, [r4, r3]
 80069c0:	e78e      	b.n	80068e0 <UART_CheckIdleState+0x34>
 80069c2:	6219      	str	r1, [r3, #32]
 80069c4:	f3ef 8010 	mrs	r0, PRIMASK
 80069c8:	2201      	movs	r2, #1
 80069ca:	f382 8810 	msr	PRIMASK, r2
 80069ce:	6821      	ldr	r1, [r4, #0]
 80069d0:	4d5f      	ldr	r5, [pc, #380]	@ (8006b50 <UART_CheckIdleState+0x2a4>)
 80069d2:	680b      	ldr	r3, [r1, #0]
 80069d4:	402b      	ands	r3, r5
 80069d6:	600b      	str	r3, [r1, #0]
 80069d8:	f380 8810 	msr	PRIMASK, r0
 80069dc:	f3ef 8110 	mrs	r1, PRIMASK
 80069e0:	f382 8810 	msr	PRIMASK, r2
 80069e4:	6822      	ldr	r2, [r4, #0]
 80069e6:	485b      	ldr	r0, [pc, #364]	@ (8006b54 <UART_CheckIdleState+0x2a8>)
 80069e8:	6893      	ldr	r3, [r2, #8]
 80069ea:	4003      	ands	r3, r0
 80069ec:	6093      	str	r3, [r2, #8]
 80069ee:	f381 8810 	msr	PRIMASK, r1
 80069f2:	6ee3      	ldr	r3, [r4, #108]	@ 0x6c
 80069f4:	2b01      	cmp	r3, #1
 80069f6:	d10a      	bne.n	8006a0e <UART_CheckIdleState+0x162>
 80069f8:	f3ef 8110 	mrs	r1, PRIMASK
 80069fc:	f383 8810 	msr	PRIMASK, r3
 8006a00:	2010      	movs	r0, #16
 8006a02:	6822      	ldr	r2, [r4, #0]
 8006a04:	6813      	ldr	r3, [r2, #0]
 8006a06:	4383      	bics	r3, r0
 8006a08:	6013      	str	r3, [r2, #0]
 8006a0a:	f381 8810 	msr	PRIMASK, r1
 8006a0e:	238c      	movs	r3, #140	@ 0x8c
 8006a10:	2220      	movs	r2, #32
 8006a12:	2108      	movs	r1, #8
 8006a14:	50e2      	str	r2, [r4, r3]
 8006a16:	2300      	movs	r3, #0
 8006a18:	3270      	adds	r2, #112	@ 0x70
 8006a1a:	66e3      	str	r3, [r4, #108]	@ 0x6c
 8006a1c:	6763      	str	r3, [r4, #116]	@ 0x74
 8006a1e:	50a1      	str	r1, [r4, r2]
 8006a20:	3a0c      	subs	r2, #12
 8006a22:	54a3      	strb	r3, [r4, r2]
 8006a24:	e781      	b.n	800692a <UART_CheckIdleState+0x7e>
 8006a26:	621a      	str	r2, [r3, #32]
 8006a28:	f3ef 8010 	mrs	r0, PRIMASK
 8006a2c:	2201      	movs	r2, #1
 8006a2e:	f382 8810 	msr	PRIMASK, r2
 8006a32:	6821      	ldr	r1, [r4, #0]
 8006a34:	4d46      	ldr	r5, [pc, #280]	@ (8006b50 <UART_CheckIdleState+0x2a4>)
 8006a36:	680b      	ldr	r3, [r1, #0]
 8006a38:	402b      	ands	r3, r5
 8006a3a:	600b      	str	r3, [r1, #0]
 8006a3c:	f380 8810 	msr	PRIMASK, r0
 8006a40:	f3ef 8110 	mrs	r1, PRIMASK
 8006a44:	f382 8810 	msr	PRIMASK, r2
 8006a48:	6822      	ldr	r2, [r4, #0]
 8006a4a:	4842      	ldr	r0, [pc, #264]	@ (8006b54 <UART_CheckIdleState+0x2a8>)
 8006a4c:	6893      	ldr	r3, [r2, #8]
 8006a4e:	4003      	ands	r3, r0
 8006a50:	6093      	str	r3, [r2, #8]
 8006a52:	f381 8810 	msr	PRIMASK, r1
 8006a56:	6ee3      	ldr	r3, [r4, #108]	@ 0x6c
 8006a58:	2b01      	cmp	r3, #1
 8006a5a:	d10a      	bne.n	8006a72 <UART_CheckIdleState+0x1c6>
 8006a5c:	f3ef 8110 	mrs	r1, PRIMASK
 8006a60:	f383 8810 	msr	PRIMASK, r3
 8006a64:	2010      	movs	r0, #16
 8006a66:	6822      	ldr	r2, [r4, #0]
 8006a68:	6813      	ldr	r3, [r2, #0]
 8006a6a:	4383      	bics	r3, r0
 8006a6c:	6013      	str	r3, [r2, #0]
 8006a6e:	f381 8810 	msr	PRIMASK, r1
 8006a72:	2220      	movs	r2, #32
 8006a74:	238c      	movs	r3, #140	@ 0x8c
 8006a76:	2190      	movs	r1, #144	@ 0x90
 8006a78:	50e2      	str	r2, [r4, r3]
 8006a7a:	2300      	movs	r3, #0
 8006a7c:	66e3      	str	r3, [r4, #108]	@ 0x6c
 8006a7e:	6763      	str	r3, [r4, #116]	@ 0x74
 8006a80:	5062      	str	r2, [r4, r1]
 8006a82:	3264      	adds	r2, #100	@ 0x64
 8006a84:	54a3      	strb	r3, [r4, r2]
 8006a86:	e750      	b.n	800692a <UART_CheckIdleState+0x7e>
 8006a88:	6219      	str	r1, [r3, #32]
 8006a8a:	f3ef 8010 	mrs	r0, PRIMASK
 8006a8e:	2201      	movs	r2, #1
 8006a90:	f382 8810 	msr	PRIMASK, r2
 8006a94:	6821      	ldr	r1, [r4, #0]
 8006a96:	4d2e      	ldr	r5, [pc, #184]	@ (8006b50 <UART_CheckIdleState+0x2a4>)
 8006a98:	680b      	ldr	r3, [r1, #0]
 8006a9a:	402b      	ands	r3, r5
 8006a9c:	600b      	str	r3, [r1, #0]
 8006a9e:	f380 8810 	msr	PRIMASK, r0
 8006aa2:	f3ef 8110 	mrs	r1, PRIMASK
 8006aa6:	f382 8810 	msr	PRIMASK, r2
 8006aaa:	6822      	ldr	r2, [r4, #0]
 8006aac:	4829      	ldr	r0, [pc, #164]	@ (8006b54 <UART_CheckIdleState+0x2a8>)
 8006aae:	6893      	ldr	r3, [r2, #8]
 8006ab0:	4003      	ands	r3, r0
 8006ab2:	6093      	str	r3, [r2, #8]
 8006ab4:	f381 8810 	msr	PRIMASK, r1
 8006ab8:	6ee3      	ldr	r3, [r4, #108]	@ 0x6c
 8006aba:	2b01      	cmp	r3, #1
 8006abc:	d10a      	bne.n	8006ad4 <UART_CheckIdleState+0x228>
 8006abe:	f3ef 8110 	mrs	r1, PRIMASK
 8006ac2:	f383 8810 	msr	PRIMASK, r3
 8006ac6:	2010      	movs	r0, #16
 8006ac8:	6822      	ldr	r2, [r4, #0]
 8006aca:	6813      	ldr	r3, [r2, #0]
 8006acc:	4383      	bics	r3, r0
 8006ace:	6013      	str	r3, [r2, #0]
 8006ad0:	f381 8810 	msr	PRIMASK, r1
 8006ad4:	238c      	movs	r3, #140	@ 0x8c
 8006ad6:	2220      	movs	r2, #32
 8006ad8:	2108      	movs	r1, #8
 8006ada:	50e2      	str	r2, [r4, r3]
 8006adc:	2300      	movs	r3, #0
 8006ade:	3270      	adds	r2, #112	@ 0x70
 8006ae0:	66e3      	str	r3, [r4, #108]	@ 0x6c
 8006ae2:	6763      	str	r3, [r4, #116]	@ 0x74
 8006ae4:	50a1      	str	r1, [r4, r2]
 8006ae6:	3a0c      	subs	r2, #12
 8006ae8:	54a3      	strb	r3, [r4, r2]
 8006aea:	e74f      	b.n	800698c <UART_CheckIdleState+0xe0>
 8006aec:	621a      	str	r2, [r3, #32]
 8006aee:	f3ef 8010 	mrs	r0, PRIMASK
 8006af2:	2201      	movs	r2, #1
 8006af4:	f382 8810 	msr	PRIMASK, r2
 8006af8:	6821      	ldr	r1, [r4, #0]
 8006afa:	4d15      	ldr	r5, [pc, #84]	@ (8006b50 <UART_CheckIdleState+0x2a4>)
 8006afc:	680b      	ldr	r3, [r1, #0]
 8006afe:	402b      	ands	r3, r5
 8006b00:	600b      	str	r3, [r1, #0]
 8006b02:	f380 8810 	msr	PRIMASK, r0
 8006b06:	f3ef 8110 	mrs	r1, PRIMASK
 8006b0a:	f382 8810 	msr	PRIMASK, r2
 8006b0e:	6822      	ldr	r2, [r4, #0]
 8006b10:	4810      	ldr	r0, [pc, #64]	@ (8006b54 <UART_CheckIdleState+0x2a8>)
 8006b12:	6893      	ldr	r3, [r2, #8]
 8006b14:	4003      	ands	r3, r0
 8006b16:	6093      	str	r3, [r2, #8]
 8006b18:	f381 8810 	msr	PRIMASK, r1
 8006b1c:	6ee3      	ldr	r3, [r4, #108]	@ 0x6c
 8006b1e:	2b01      	cmp	r3, #1
 8006b20:	d10a      	bne.n	8006b38 <UART_CheckIdleState+0x28c>
 8006b22:	f3ef 8110 	mrs	r1, PRIMASK
 8006b26:	f383 8810 	msr	PRIMASK, r3
 8006b2a:	2010      	movs	r0, #16
 8006b2c:	6822      	ldr	r2, [r4, #0]
 8006b2e:	6813      	ldr	r3, [r2, #0]
 8006b30:	4383      	bics	r3, r0
 8006b32:	6013      	str	r3, [r2, #0]
 8006b34:	f381 8810 	msr	PRIMASK, r1
 8006b38:	2220      	movs	r2, #32
 8006b3a:	238c      	movs	r3, #140	@ 0x8c
 8006b3c:	2190      	movs	r1, #144	@ 0x90
 8006b3e:	50e2      	str	r2, [r4, r3]
 8006b40:	2300      	movs	r3, #0
 8006b42:	66e3      	str	r3, [r4, #108]	@ 0x6c
 8006b44:	6763      	str	r3, [r4, #116]	@ 0x74
 8006b46:	5062      	str	r2, [r4, r1]
 8006b48:	3264      	adds	r2, #100	@ 0x64
 8006b4a:	54a3      	strb	r3, [r4, r2]
 8006b4c:	e71e      	b.n	800698c <UART_CheckIdleState+0xe0>
 8006b4e:	46c0      	nop			@ (mov r8, r8)
 8006b50:	fffffedf 	.word	0xfffffedf
 8006b54:	effffffe 	.word	0xeffffffe

08006b58 <HAL_UART_Init>:
 8006b58:	b510      	push	{r4, lr}
 8006b5a:	1e04      	subs	r4, r0, #0
 8006b5c:	d024      	beq.n	8006ba8 <HAL_UART_Init+0x50>
 8006b5e:	2388      	movs	r3, #136	@ 0x88
 8006b60:	58c3      	ldr	r3, [r0, r3]
 8006b62:	2b00      	cmp	r3, #0
 8006b64:	d026      	beq.n	8006bb4 <HAL_UART_Init+0x5c>
 8006b66:	2388      	movs	r3, #136	@ 0x88
 8006b68:	2224      	movs	r2, #36	@ 0x24
 8006b6a:	2101      	movs	r1, #1
 8006b6c:	50e2      	str	r2, [r4, r3]
 8006b6e:	6822      	ldr	r2, [r4, #0]
 8006b70:	6813      	ldr	r3, [r2, #0]
 8006b72:	438b      	bics	r3, r1
 8006b74:	6013      	str	r3, [r2, #0]
 8006b76:	6aa3      	ldr	r3, [r4, #40]	@ 0x28
 8006b78:	2b00      	cmp	r3, #0
 8006b7a:	d117      	bne.n	8006bac <HAL_UART_Init+0x54>
 8006b7c:	0020      	movs	r0, r4
 8006b7e:	f7ff fce7 	bl	8006550 <UART_SetConfig>
 8006b82:	2801      	cmp	r0, #1
 8006b84:	d010      	beq.n	8006ba8 <HAL_UART_Init+0x50>
 8006b86:	6823      	ldr	r3, [r4, #0]
 8006b88:	490d      	ldr	r1, [pc, #52]	@ (8006bc0 <HAL_UART_Init+0x68>)
 8006b8a:	685a      	ldr	r2, [r3, #4]
 8006b8c:	0020      	movs	r0, r4
 8006b8e:	400a      	ands	r2, r1
 8006b90:	212a      	movs	r1, #42	@ 0x2a
 8006b92:	605a      	str	r2, [r3, #4]
 8006b94:	689a      	ldr	r2, [r3, #8]
 8006b96:	438a      	bics	r2, r1
 8006b98:	609a      	str	r2, [r3, #8]
 8006b9a:	681a      	ldr	r2, [r3, #0]
 8006b9c:	3929      	subs	r1, #41	@ 0x29
 8006b9e:	430a      	orrs	r2, r1
 8006ba0:	601a      	str	r2, [r3, #0]
 8006ba2:	f7ff fe83 	bl	80068ac <UART_CheckIdleState>
 8006ba6:	bd10      	pop	{r4, pc}
 8006ba8:	2001      	movs	r0, #1
 8006baa:	e7fc      	b.n	8006ba6 <HAL_UART_Init+0x4e>
 8006bac:	0020      	movs	r0, r4
 8006bae:	f7ff fe15 	bl	80067dc <UART_AdvFeatureConfig>
 8006bb2:	e7e3      	b.n	8006b7c <HAL_UART_Init+0x24>
 8006bb4:	2284      	movs	r2, #132	@ 0x84
 8006bb6:	5483      	strb	r3, [r0, r2]
 8006bb8:	f7fb fe5c 	bl	8002874 <HAL_UART_MspInit>
 8006bbc:	e7d3      	b.n	8006b66 <HAL_UART_Init+0xe>
 8006bbe:	46c0      	nop			@ (mov r8, r8)
 8006bc0:	ffffb7ff 	.word	0xffffb7ff

08006bc4 <UART_Start_Receive_DMA>:
 8006bc4:	b5f8      	push	{r3, r4, r5, r6, r7, lr}
 8006bc6:	0013      	movs	r3, r2
 8006bc8:	225c      	movs	r2, #92	@ 0x5c
 8006bca:	6581      	str	r1, [r0, #88]	@ 0x58
 8006bcc:	000d      	movs	r5, r1
 8006bce:	5283      	strh	r3, [r0, r2]
 8006bd0:	2122      	movs	r1, #34	@ 0x22
 8006bd2:	2790      	movs	r7, #144	@ 0x90
 8006bd4:	2200      	movs	r2, #0
 8006bd6:	268c      	movs	r6, #140	@ 0x8c
 8006bd8:	51c2      	str	r2, [r0, r7]
 8006bda:	5181      	str	r1, [r0, r6]
 8006bdc:	315e      	adds	r1, #94	@ 0x5e
 8006bde:	0004      	movs	r4, r0
 8006be0:	5840      	ldr	r0, [r0, r1]
 8006be2:	2800      	cmp	r0, #0
 8006be4:	d00d      	beq.n	8006c02 <UART_Start_Receive_DMA+0x3e>
 8006be6:	491e      	ldr	r1, [pc, #120]	@ (8006c60 <UART_Start_Receive_DMA+0x9c>)
 8006be8:	6382      	str	r2, [r0, #56]	@ 0x38
 8006bea:	62c1      	str	r1, [r0, #44]	@ 0x2c
 8006bec:	491d      	ldr	r1, [pc, #116]	@ (8006c64 <UART_Start_Receive_DMA+0xa0>)
 8006bee:	002a      	movs	r2, r5
 8006bf0:	6301      	str	r1, [r0, #48]	@ 0x30
 8006bf2:	491d      	ldr	r1, [pc, #116]	@ (8006c68 <UART_Start_Receive_DMA+0xa4>)
 8006bf4:	6341      	str	r1, [r0, #52]	@ 0x34
 8006bf6:	6821      	ldr	r1, [r4, #0]
 8006bf8:	3124      	adds	r1, #36	@ 0x24
 8006bfa:	f7fc fe0d 	bl	8003818 <HAL_DMA_Start_IT>
 8006bfe:	2800      	cmp	r0, #0
 8006c00:	d127      	bne.n	8006c52 <UART_Start_Receive_DMA+0x8e>
 8006c02:	6923      	ldr	r3, [r4, #16]
 8006c04:	2b00      	cmp	r3, #0
 8006c06:	d117      	bne.n	8006c38 <UART_Start_Receive_DMA+0x74>
 8006c08:	f3ef 8010 	mrs	r0, PRIMASK
 8006c0c:	2301      	movs	r3, #1
 8006c0e:	f383 8810 	msr	PRIMASK, r3
 8006c12:	6821      	ldr	r1, [r4, #0]
 8006c14:	688a      	ldr	r2, [r1, #8]
 8006c16:	431a      	orrs	r2, r3
 8006c18:	608a      	str	r2, [r1, #8]
 8006c1a:	f380 8810 	msr	PRIMASK, r0
 8006c1e:	f3ef 8110 	mrs	r1, PRIMASK
 8006c22:	f383 8810 	msr	PRIMASK, r3
 8006c26:	2040      	movs	r0, #64	@ 0x40
 8006c28:	6822      	ldr	r2, [r4, #0]
 8006c2a:	6893      	ldr	r3, [r2, #8]
 8006c2c:	4303      	orrs	r3, r0
 8006c2e:	6093      	str	r3, [r2, #8]
 8006c30:	f381 8810 	msr	PRIMASK, r1
 8006c34:	2000      	movs	r0, #0
 8006c36:	bdf8      	pop	{r3, r4, r5, r6, r7, pc}
 8006c38:	f3ef 8110 	mrs	r1, PRIMASK
 8006c3c:	2301      	movs	r3, #1
 8006c3e:	f383 8810 	msr	PRIMASK, r3
 8006c42:	6822      	ldr	r2, [r4, #0]
 8006c44:	33ff      	adds	r3, #255	@ 0xff
 8006c46:	6810      	ldr	r0, [r2, #0]
 8006c48:	4303      	orrs	r3, r0
 8006c4a:	6013      	str	r3, [r2, #0]
 8006c4c:	f381 8810 	msr	PRIMASK, r1
 8006c50:	e7da      	b.n	8006c08 <UART_Start_Receive_DMA+0x44>
 8006c52:	2310      	movs	r3, #16
 8006c54:	51e3      	str	r3, [r4, r7]
 8006c56:	3310      	adds	r3, #16
 8006c58:	2001      	movs	r0, #1
 8006c5a:	51a3      	str	r3, [r4, r6]
 8006c5c:	e7eb      	b.n	8006c36 <UART_Start_Receive_DMA+0x72>
 8006c5e:	46c0      	nop			@ (mov r8, r8)
 8006c60:	080064b5 	.word	0x080064b5
 8006c64:	08006495 	.word	0x08006495
 8006c68:	08005fb9 	.word	0x08005fb9

08006c6c <HAL_UARTEx_WakeupCallback>:
 8006c6c:	4770      	bx	lr
 8006c6e:	46c0      	nop			@ (mov r8, r8)

08006c70 <HAL_UARTEx_RxFifoFullCallback>:
 8006c70:	4770      	bx	lr
 8006c72:	46c0      	nop			@ (mov r8, r8)

08006c74 <HAL_UARTEx_TxFifoEmptyCallback>:
 8006c74:	4770      	bx	lr
 8006c76:	46c0      	nop			@ (mov r8, r8)

08006c78 <HAL_UARTEx_ReceiveToIdle_DMA>:
 8006c78:	238c      	movs	r3, #140	@ 0x8c
 8006c7a:	58c3      	ldr	r3, [r0, r3]
 8006c7c:	b510      	push	{r4, lr}
 8006c7e:	0004      	movs	r4, r0
 8006c80:	2b20      	cmp	r3, #32
 8006c82:	d129      	bne.n	8006cd8 <HAL_UARTEx_ReceiveToIdle_DMA+0x60>
 8006c84:	2900      	cmp	r1, #0
 8006c86:	d00b      	beq.n	8006ca0 <HAL_UARTEx_ReceiveToIdle_DMA+0x28>
 8006c88:	2a00      	cmp	r2, #0
 8006c8a:	d009      	beq.n	8006ca0 <HAL_UARTEx_ReceiveToIdle_DMA+0x28>
 8006c8c:	2380      	movs	r3, #128	@ 0x80
 8006c8e:	6880      	ldr	r0, [r0, #8]
 8006c90:	015b      	lsls	r3, r3, #5
 8006c92:	4298      	cmp	r0, r3
 8006c94:	d106      	bne.n	8006ca4 <HAL_UARTEx_ReceiveToIdle_DMA+0x2c>
 8006c96:	6923      	ldr	r3, [r4, #16]
 8006c98:	2b00      	cmp	r3, #0
 8006c9a:	d103      	bne.n	8006ca4 <HAL_UARTEx_ReceiveToIdle_DMA+0x2c>
 8006c9c:	07cb      	lsls	r3, r1, #31
 8006c9e:	d501      	bpl.n	8006ca4 <HAL_UARTEx_ReceiveToIdle_DMA+0x2c>
 8006ca0:	2001      	movs	r0, #1
 8006ca2:	bd10      	pop	{r4, pc}
 8006ca4:	2301      	movs	r3, #1
 8006ca6:	66e3      	str	r3, [r4, #108]	@ 0x6c
 8006ca8:	2300      	movs	r3, #0
 8006caa:	0020      	movs	r0, r4
 8006cac:	6723      	str	r3, [r4, #112]	@ 0x70
 8006cae:	f7ff ff89 	bl	8006bc4 <UART_Start_Receive_DMA>
 8006cb2:	2800      	cmp	r0, #0
 8006cb4:	d1f5      	bne.n	8006ca2 <HAL_UARTEx_ReceiveToIdle_DMA+0x2a>
 8006cb6:	6ee3      	ldr	r3, [r4, #108]	@ 0x6c
 8006cb8:	2b01      	cmp	r3, #1
 8006cba:	d1f1      	bne.n	8006ca0 <HAL_UARTEx_ReceiveToIdle_DMA+0x28>
 8006cbc:	2110      	movs	r1, #16
 8006cbe:	6822      	ldr	r2, [r4, #0]
 8006cc0:	6211      	str	r1, [r2, #32]
 8006cc2:	f3ef 8c10 	mrs	ip, PRIMASK
 8006cc6:	f383 8810 	msr	PRIMASK, r3
 8006cca:	6822      	ldr	r2, [r4, #0]
 8006ccc:	6813      	ldr	r3, [r2, #0]
 8006cce:	430b      	orrs	r3, r1
 8006cd0:	6013      	str	r3, [r2, #0]
 8006cd2:	f38c 8810 	msr	PRIMASK, ip
 8006cd6:	e7e4      	b.n	8006ca2 <HAL_UARTEx_ReceiveToIdle_DMA+0x2a>
 8006cd8:	2002      	movs	r0, #2
 8006cda:	e7e2      	b.n	8006ca2 <HAL_UARTEx_ReceiveToIdle_DMA+0x2a>

08006cdc <HAL_USART_Init>:
 8006cdc:	b5f8      	push	{r3, r4, r5, r6, r7, lr}
 8006cde:	1e04      	subs	r4, r0, #0
 8006ce0:	d049      	beq.n	8006d76 <HAL_USART_Init+0x9a>
 8006ce2:	2359      	movs	r3, #89	@ 0x59
 8006ce4:	5cc3      	ldrb	r3, [r0, r3]
 8006ce6:	b2da      	uxtb	r2, r3
 8006ce8:	2b00      	cmp	r3, #0
 8006cea:	d100      	bne.n	8006cee <HAL_USART_Init+0x12>
 8006cec:	e0a8      	b.n	8006e40 <HAL_USART_Init+0x164>
 8006cee:	2359      	movs	r3, #89	@ 0x59
 8006cf0:	2202      	movs	r2, #2
 8006cf2:	2101      	movs	r1, #1
 8006cf4:	54e2      	strb	r2, [r4, r3]
 8006cf6:	6823      	ldr	r3, [r4, #0]
 8006cf8:	6920      	ldr	r0, [r4, #16]
 8006cfa:	681a      	ldr	r2, [r3, #0]
 8006cfc:	438a      	bics	r2, r1
 8006cfe:	601a      	str	r2, [r3, #0]
 8006d00:	68a2      	ldr	r2, [r4, #8]
 8006d02:	6819      	ldr	r1, [r3, #0]
 8006d04:	4302      	orrs	r2, r0
 8006d06:	487f      	ldr	r0, [pc, #508]	@ (8006f04 <HAL_USART_Init+0x228>)
 8006d08:	4001      	ands	r1, r0
 8006d0a:	430a      	orrs	r2, r1
 8006d0c:	6961      	ldr	r1, [r4, #20]
 8006d0e:	69a0      	ldr	r0, [r4, #24]
 8006d10:	430a      	orrs	r2, r1
 8006d12:	2180      	movs	r1, #128	@ 0x80
 8006d14:	0209      	lsls	r1, r1, #8
 8006d16:	430a      	orrs	r2, r1
 8006d18:	601a      	str	r2, [r3, #0]
 8006d1a:	6a22      	ldr	r2, [r4, #32]
 8006d1c:	6859      	ldr	r1, [r3, #4]
 8006d1e:	4302      	orrs	r2, r0
 8006d20:	4879      	ldr	r0, [pc, #484]	@ (8006f08 <HAL_USART_Init+0x22c>)
 8006d22:	4001      	ands	r1, r0
 8006d24:	430a      	orrs	r2, r1
 8006d26:	69e1      	ldr	r1, [r4, #28]
 8006d28:	200f      	movs	r0, #15
 8006d2a:	430a      	orrs	r2, r1
 8006d2c:	68e1      	ldr	r1, [r4, #12]
 8006d2e:	430a      	orrs	r2, r1
 8006d30:	2180      	movs	r1, #128	@ 0x80
 8006d32:	0109      	lsls	r1, r1, #4
 8006d34:	430a      	orrs	r2, r1
 8006d36:	605a      	str	r2, [r3, #4]
 8006d38:	6ada      	ldr	r2, [r3, #44]	@ 0x2c
 8006d3a:	6a61      	ldr	r1, [r4, #36]	@ 0x24
 8006d3c:	4382      	bics	r2, r0
 8006d3e:	430a      	orrs	r2, r1
 8006d40:	62da      	str	r2, [r3, #44]	@ 0x2c
 8006d42:	4a72      	ldr	r2, [pc, #456]	@ (8006f0c <HAL_USART_Init+0x230>)
 8006d44:	4293      	cmp	r3, r2
 8006d46:	d100      	bne.n	8006d4a <HAL_USART_Init+0x6e>
 8006d48:	e07f      	b.n	8006e4a <HAL_USART_Init+0x16e>
 8006d4a:	4a71      	ldr	r2, [pc, #452]	@ (8006f10 <HAL_USART_Init+0x234>)
 8006d4c:	4293      	cmp	r3, r2
 8006d4e:	d014      	beq.n	8006d7a <HAL_USART_Init+0x9e>
 8006d50:	4a70      	ldr	r2, [pc, #448]	@ (8006f14 <HAL_USART_Init+0x238>)
 8006d52:	4293      	cmp	r3, r2
 8006d54:	d100      	bne.n	8006d58 <HAL_USART_Init+0x7c>
 8006d56:	e0ae      	b.n	8006eb6 <HAL_USART_Init+0x1da>
 8006d58:	4a6f      	ldr	r2, [pc, #444]	@ (8006f18 <HAL_USART_Init+0x23c>)
 8006d5a:	4293      	cmp	r3, r2
 8006d5c:	d018      	beq.n	8006d90 <HAL_USART_Init+0xb4>
 8006d5e:	4a6f      	ldr	r2, [pc, #444]	@ (8006f1c <HAL_USART_Init+0x240>)
 8006d60:	4293      	cmp	r3, r2
 8006d62:	d015      	beq.n	8006d90 <HAL_USART_Init+0xb4>
 8006d64:	4a6e      	ldr	r2, [pc, #440]	@ (8006f20 <HAL_USART_Init+0x244>)
 8006d66:	4293      	cmp	r3, r2
 8006d68:	d012      	beq.n	8006d90 <HAL_USART_Init+0xb4>
 8006d6a:	2301      	movs	r3, #1
 8006d6c:	87a3      	strh	r3, [r4, #60]	@ 0x3c
 8006d6e:	8763      	strh	r3, [r4, #58]	@ 0x3a
 8006d70:	2300      	movs	r3, #0
 8006d72:	64a3      	str	r3, [r4, #72]	@ 0x48
 8006d74:	64e3      	str	r3, [r4, #76]	@ 0x4c
 8006d76:	2001      	movs	r0, #1
 8006d78:	e061      	b.n	8006e3e <HAL_USART_Init+0x162>
 8006d7a:	4b6a      	ldr	r3, [pc, #424]	@ (8006f24 <HAL_USART_Init+0x248>)
 8006d7c:	6d5a      	ldr	r2, [r3, #84]	@ 0x54
 8006d7e:	230c      	movs	r3, #12
 8006d80:	4013      	ands	r3, r2
 8006d82:	2b08      	cmp	r3, #8
 8006d84:	d100      	bne.n	8006d88 <HAL_USART_Init+0xac>
 8006d86:	e082      	b.n	8006e8e <HAL_USART_Init+0x1b2>
 8006d88:	d900      	bls.n	8006d8c <HAL_USART_Init+0xb0>
 8006d8a:	e0a7      	b.n	8006edc <HAL_USART_Init+0x200>
 8006d8c:	2b00      	cmp	r3, #0
 8006d8e:	d166      	bne.n	8006e5e <HAL_USART_Init+0x182>
 8006d90:	f7fe fd20 	bl	80057d4 <HAL_RCC_GetPCLK1Freq>
 8006d94:	6a63      	ldr	r3, [r4, #36]	@ 0x24
 8006d96:	2b00      	cmp	r3, #0
 8006d98:	d000      	beq.n	8006d9c <HAL_USART_Init+0xc0>
 8006d9a:	e06e      	b.n	8006e7a <HAL_USART_Init+0x19e>
 8006d9c:	6861      	ldr	r1, [r4, #4]
 8006d9e:	0040      	lsls	r0, r0, #1
 8006da0:	084b      	lsrs	r3, r1, #1
 8006da2:	18c0      	adds	r0, r0, r3
 8006da4:	f7f9 f9b6 	bl	8000114 <__udivsi3>
 8006da8:	0003      	movs	r3, r0
 8006daa:	4a5f      	ldr	r2, [pc, #380]	@ (8006f28 <HAL_USART_Init+0x24c>)
 8006dac:	3b10      	subs	r3, #16
 8006dae:	4293      	cmp	r3, r2
 8006db0:	d8db      	bhi.n	8006d6a <HAL_USART_Init+0x8e>
 8006db2:	4a5e      	ldr	r2, [pc, #376]	@ (8006f2c <HAL_USART_Init+0x250>)
 8006db4:	6823      	ldr	r3, [r4, #0]
 8006db6:	4002      	ands	r2, r0
 8006db8:	0700      	lsls	r0, r0, #28
 8006dba:	0f40      	lsrs	r0, r0, #29
 8006dbc:	4302      	orrs	r2, r0
 8006dbe:	60da      	str	r2, [r3, #12]
 8006dc0:	2001      	movs	r0, #1
 8006dc2:	2200      	movs	r2, #0
 8006dc4:	6859      	ldr	r1, [r3, #4]
 8006dc6:	4d5a      	ldr	r5, [pc, #360]	@ (8006f30 <HAL_USART_Init+0x254>)
 8006dc8:	64a2      	str	r2, [r4, #72]	@ 0x48
 8006dca:	4029      	ands	r1, r5
 8006dcc:	252a      	movs	r5, #42	@ 0x2a
 8006dce:	64e2      	str	r2, [r4, #76]	@ 0x4c
 8006dd0:	87a0      	strh	r0, [r4, #60]	@ 0x3c
 8006dd2:	8760      	strh	r0, [r4, #58]	@ 0x3a
 8006dd4:	6059      	str	r1, [r3, #4]
 8006dd6:	6899      	ldr	r1, [r3, #8]
 8006dd8:	43a9      	bics	r1, r5
 8006dda:	6099      	str	r1, [r3, #8]
 8006ddc:	6819      	ldr	r1, [r3, #0]
 8006dde:	4301      	orrs	r1, r0
 8006de0:	6019      	str	r1, [r3, #0]
 8006de2:	65e2      	str	r2, [r4, #92]	@ 0x5c
 8006de4:	f7fc fb92 	bl	800350c <HAL_GetTick>
 8006de8:	6823      	ldr	r3, [r4, #0]
 8006dea:	0005      	movs	r5, r0
 8006dec:	681a      	ldr	r2, [r3, #0]
 8006dee:	0712      	lsls	r2, r2, #28
 8006df0:	d50d      	bpl.n	8006e0e <HAL_USART_Init+0x132>
 8006df2:	2680      	movs	r6, #128	@ 0x80
 8006df4:	27fa      	movs	r7, #250	@ 0xfa
 8006df6:	03b6      	lsls	r6, r6, #14
 8006df8:	00bf      	lsls	r7, r7, #2
 8006dfa:	e005      	b.n	8006e08 <HAL_USART_Init+0x12c>
 8006dfc:	f7fc fb86 	bl	800350c <HAL_GetTick>
 8006e00:	1b40      	subs	r0, r0, r5
 8006e02:	42b8      	cmp	r0, r7
 8006e04:	d84f      	bhi.n	8006ea6 <HAL_USART_Init+0x1ca>
 8006e06:	6823      	ldr	r3, [r4, #0]
 8006e08:	69da      	ldr	r2, [r3, #28]
 8006e0a:	4232      	tst	r2, r6
 8006e0c:	d0f6      	beq.n	8006dfc <HAL_USART_Init+0x120>
 8006e0e:	681a      	ldr	r2, [r3, #0]
 8006e10:	0752      	lsls	r2, r2, #29
 8006e12:	d50d      	bpl.n	8006e30 <HAL_USART_Init+0x154>
 8006e14:	2680      	movs	r6, #128	@ 0x80
 8006e16:	27fa      	movs	r7, #250	@ 0xfa
 8006e18:	03f6      	lsls	r6, r6, #15
 8006e1a:	00bf      	lsls	r7, r7, #2
 8006e1c:	e005      	b.n	8006e2a <HAL_USART_Init+0x14e>
 8006e1e:	f7fc fb75 	bl	800350c <HAL_GetTick>
 8006e22:	1b40      	subs	r0, r0, r5
 8006e24:	42b8      	cmp	r0, r7
 8006e26:	d83e      	bhi.n	8006ea6 <HAL_USART_Init+0x1ca>
 8006e28:	6823      	ldr	r3, [r4, #0]
 8006e2a:	69db      	ldr	r3, [r3, #28]
 8006e2c:	4233      	tst	r3, r6
 8006e2e:	d0f6      	beq.n	8006e1e <HAL_USART_Init+0x142>
 8006e30:	2359      	movs	r3, #89	@ 0x59
 8006e32:	2201      	movs	r2, #1
 8006e34:	54e2      	strb	r2, [r4, r3]
 8006e36:	2200      	movs	r2, #0
 8006e38:	2000      	movs	r0, #0
 8006e3a:	3b01      	subs	r3, #1
 8006e3c:	54e2      	strb	r2, [r4, r3]
 8006e3e:	bdf8      	pop	{r3, r4, r5, r6, r7, pc}
 8006e40:	3358      	adds	r3, #88	@ 0x58
 8006e42:	54c2      	strb	r2, [r0, r3]
 8006e44:	f7fb fcb2 	bl	80027ac <HAL_USART_MspInit>
 8006e48:	e751      	b.n	8006cee <HAL_USART_Init+0x12>
 8006e4a:	4b36      	ldr	r3, [pc, #216]	@ (8006f24 <HAL_USART_Init+0x248>)
 8006e4c:	6d5a      	ldr	r2, [r3, #84]	@ 0x54
 8006e4e:	2303      	movs	r3, #3
 8006e50:	4013      	ands	r3, r2
 8006e52:	2b02      	cmp	r3, #2
 8006e54:	d01b      	beq.n	8006e8e <HAL_USART_Init+0x1b2>
 8006e56:	2b03      	cmp	r3, #3
 8006e58:	d038      	beq.n	8006ecc <HAL_USART_Init+0x1f0>
 8006e5a:	2b01      	cmp	r3, #1
 8006e5c:	d198      	bne.n	8006d90 <HAL_USART_Init+0xb4>
 8006e5e:	f7fe fba3 	bl	80055a8 <HAL_RCC_GetSysClockFreq>
 8006e62:	6a63      	ldr	r3, [r4, #36]	@ 0x24
 8006e64:	2b00      	cmp	r3, #0
 8006e66:	d099      	beq.n	8006d9c <HAL_USART_Init+0xc0>
 8006e68:	3b01      	subs	r3, #1
 8006e6a:	2b0a      	cmp	r3, #10
 8006e6c:	d896      	bhi.n	8006d9c <HAL_USART_Init+0xc0>
 8006e6e:	4a31      	ldr	r2, [pc, #196]	@ (8006f34 <HAL_USART_Init+0x258>)
 8006e70:	009b      	lsls	r3, r3, #2
 8006e72:	5899      	ldr	r1, [r3, r2]
 8006e74:	f7f9 f94e 	bl	8000114 <__udivsi3>
 8006e78:	e790      	b.n	8006d9c <HAL_USART_Init+0xc0>
 8006e7a:	3b01      	subs	r3, #1
 8006e7c:	2b0a      	cmp	r3, #10
 8006e7e:	d900      	bls.n	8006e82 <HAL_USART_Init+0x1a6>
 8006e80:	e78c      	b.n	8006d9c <HAL_USART_Init+0xc0>
 8006e82:	4a2d      	ldr	r2, [pc, #180]	@ (8006f38 <HAL_USART_Init+0x25c>)
 8006e84:	009b      	lsls	r3, r3, #2
 8006e86:	5899      	ldr	r1, [r3, r2]
 8006e88:	f7f9 f944 	bl	8000114 <__udivsi3>
 8006e8c:	e786      	b.n	8006d9c <HAL_USART_Init+0xc0>
 8006e8e:	2900      	cmp	r1, #0
 8006e90:	d002      	beq.n	8006e98 <HAL_USART_Init+0x1bc>
 8006e92:	3901      	subs	r1, #1
 8006e94:	290a      	cmp	r1, #10
 8006e96:	d924      	bls.n	8006ee2 <HAL_USART_Init+0x206>
 8006e98:	4b28      	ldr	r3, [pc, #160]	@ (8006f3c <HAL_USART_Init+0x260>)
 8006e9a:	6861      	ldr	r1, [r4, #4]
 8006e9c:	0848      	lsrs	r0, r1, #1
 8006e9e:	18c0      	adds	r0, r0, r3
 8006ea0:	f7f9 f938 	bl	8000114 <__udivsi3>
 8006ea4:	e780      	b.n	8006da8 <HAL_USART_Init+0xcc>
 8006ea6:	2359      	movs	r3, #89	@ 0x59
 8006ea8:	2201      	movs	r2, #1
 8006eaa:	54e2      	strb	r2, [r4, r3]
 8006eac:	2358      	movs	r3, #88	@ 0x58
 8006eae:	2200      	movs	r2, #0
 8006eb0:	2003      	movs	r0, #3
 8006eb2:	54e2      	strb	r2, [r4, r3]
 8006eb4:	e7c3      	b.n	8006e3e <HAL_USART_Init+0x162>
 8006eb6:	4b1b      	ldr	r3, [pc, #108]	@ (8006f24 <HAL_USART_Init+0x248>)
 8006eb8:	6d5a      	ldr	r2, [r3, #84]	@ 0x54
 8006eba:	2330      	movs	r3, #48	@ 0x30
 8006ebc:	4013      	ands	r3, r2
 8006ebe:	2b20      	cmp	r3, #32
 8006ec0:	d0e5      	beq.n	8006e8e <HAL_USART_Init+0x1b2>
 8006ec2:	d800      	bhi.n	8006ec6 <HAL_USART_Init+0x1ea>
 8006ec4:	e762      	b.n	8006d8c <HAL_USART_Init+0xb0>
 8006ec6:	2b30      	cmp	r3, #48	@ 0x30
 8006ec8:	d000      	beq.n	8006ecc <HAL_USART_Init+0x1f0>
 8006eca:	e74e      	b.n	8006d6a <HAL_USART_Init+0x8e>
 8006ecc:	2900      	cmp	r1, #0
 8006ece:	d002      	beq.n	8006ed6 <HAL_USART_Init+0x1fa>
 8006ed0:	3901      	subs	r1, #1
 8006ed2:	290a      	cmp	r1, #10
 8006ed4:	d90d      	bls.n	8006ef2 <HAL_USART_Init+0x216>
 8006ed6:	2380      	movs	r3, #128	@ 0x80
 8006ed8:	025b      	lsls	r3, r3, #9
 8006eda:	e7de      	b.n	8006e9a <HAL_USART_Init+0x1be>
 8006edc:	2b0c      	cmp	r3, #12
 8006ede:	d0f5      	beq.n	8006ecc <HAL_USART_Init+0x1f0>
 8006ee0:	e743      	b.n	8006d6a <HAL_USART_Init+0x8e>
 8006ee2:	4b17      	ldr	r3, [pc, #92]	@ (8006f40 <HAL_USART_Init+0x264>)
 8006ee4:	0089      	lsls	r1, r1, #2
 8006ee6:	58c9      	ldr	r1, [r1, r3]
 8006ee8:	4816      	ldr	r0, [pc, #88]	@ (8006f44 <HAL_USART_Init+0x268>)
 8006eea:	f7f9 f913 	bl	8000114 <__udivsi3>
 8006eee:	0043      	lsls	r3, r0, #1
 8006ef0:	e7d3      	b.n	8006e9a <HAL_USART_Init+0x1be>
 8006ef2:	2080      	movs	r0, #128	@ 0x80
 8006ef4:	4b14      	ldr	r3, [pc, #80]	@ (8006f48 <HAL_USART_Init+0x26c>)
 8006ef6:	0089      	lsls	r1, r1, #2
 8006ef8:	58c9      	ldr	r1, [r1, r3]
 8006efa:	0200      	lsls	r0, r0, #8
 8006efc:	f7f9 f90a 	bl	8000114 <__udivsi3>
 8006f00:	0043      	lsls	r3, r0, #1
 8006f02:	e7ca      	b.n	8006e9a <HAL_USART_Init+0x1be>
 8006f04:	cfff69f3 	.word	0xcfff69f3
 8006f08:	ffffc0f6 	.word	0xffffc0f6
 8006f0c:	40013800 	.word	0x40013800
 8006f10:	40004400 	.word	0x40004400
 8006f14:	40004800 	.word	0x40004800
 8006f18:	40004c00 	.word	0x40004c00
 8006f1c:	40005000 	.word	0x40005000
 8006f20:	40013c00 	.word	0x40013c00
 8006f24:	40021000 	.word	0x40021000
 8006f28:	0000ffef 	.word	0x0000ffef
 8006f2c:	0000fff0 	.word	0x0000fff0
 8006f30:	ffffbfff 	.word	0xffffbfff
 8006f34:	0800983c 	.word	0x0800983c
 8006f38:	0800983c 	.word	0x0800983c
 8006f3c:	01e84800 	.word	0x01e84800
 8006f40:	0800983c 	.word	0x0800983c
 8006f44:	00f42400 	.word	0x00f42400
 8006f48:	0800983c 	.word	0x0800983c

08006f4c <HAL_USART_Transmit>:
 8006f4c:	b5f8      	push	{r3, r4, r5, r6, r7, lr}
 8006f4e:	4647      	mov	r7, r8
 8006f50:	46ce      	mov	lr, r9
 8006f52:	4698      	mov	r8, r3
 8006f54:	2359      	movs	r3, #89	@ 0x59
 8006f56:	b580      	push	{r7, lr}
 8006f58:	5cc3      	ldrb	r3, [r0, r3]
 8006f5a:	0005      	movs	r5, r0
 8006f5c:	000e      	movs	r6, r1
 8006f5e:	0014      	movs	r4, r2
 8006f60:	b2d8      	uxtb	r0, r3
 8006f62:	2b01      	cmp	r3, #1
 8006f64:	d000      	beq.n	8006f68 <HAL_USART_Transmit+0x1c>
 8006f66:	e070      	b.n	800704a <HAL_USART_Transmit+0xfe>
 8006f68:	2900      	cmp	r1, #0
 8006f6a:	d04a      	beq.n	8007002 <HAL_USART_Transmit+0xb6>
 8006f6c:	2a00      	cmp	r2, #0
 8006f6e:	d048      	beq.n	8007002 <HAL_USART_Transmit+0xb6>
 8006f70:	2380      	movs	r3, #128	@ 0x80
 8006f72:	68aa      	ldr	r2, [r5, #8]
 8006f74:	015b      	lsls	r3, r3, #5
 8006f76:	429a      	cmp	r2, r3
 8006f78:	d100      	bne.n	8006f7c <HAL_USART_Transmit+0x30>
 8006f7a:	e076      	b.n	800706a <HAL_USART_Transmit+0x11e>
 8006f7c:	2358      	movs	r3, #88	@ 0x58
 8006f7e:	5cea      	ldrb	r2, [r5, r3]
 8006f80:	2a01      	cmp	r2, #1
 8006f82:	d062      	beq.n	800704a <HAL_USART_Transmit+0xfe>
 8006f84:	2201      	movs	r2, #1
 8006f86:	54ea      	strb	r2, [r5, r3]
 8006f88:	2300      	movs	r3, #0
 8006f8a:	3211      	adds	r2, #17
 8006f8c:	65eb      	str	r3, [r5, #92]	@ 0x5c
 8006f8e:	3359      	adds	r3, #89	@ 0x59
 8006f90:	54ea      	strb	r2, [r5, r3]
 8006f92:	f7fc fabb 	bl	800350c <HAL_GetTick>
 8006f96:	2380      	movs	r3, #128	@ 0x80
 8006f98:	68aa      	ldr	r2, [r5, #8]
 8006f9a:	4681      	mov	r9, r0
 8006f9c:	2700      	movs	r7, #0
 8006f9e:	85ac      	strh	r4, [r5, #44]	@ 0x2c
 8006fa0:	85ec      	strh	r4, [r5, #46]	@ 0x2e
 8006fa2:	015b      	lsls	r3, r3, #5
 8006fa4:	429a      	cmp	r2, r3
 8006fa6:	d052      	beq.n	800704e <HAL_USART_Transmit+0x102>
 8006fa8:	8deb      	ldrh	r3, [r5, #46]	@ 0x2e
 8006faa:	682a      	ldr	r2, [r5, #0]
 8006fac:	2b00      	cmp	r3, #0
 8006fae:	d064      	beq.n	800707a <HAL_USART_Transmit+0x12e>
 8006fb0:	4643      	mov	r3, r8
 8006fb2:	2480      	movs	r4, #128	@ 0x80
 8006fb4:	3301      	adds	r3, #1
 8006fb6:	d134      	bne.n	8007022 <HAL_USART_Transmit+0xd6>
 8006fb8:	69d3      	ldr	r3, [r2, #28]
 8006fba:	421c      	tst	r4, r3
 8006fbc:	d0fc      	beq.n	8006fb8 <HAL_USART_Transmit+0x6c>
 8006fbe:	2e00      	cmp	r6, #0
 8006fc0:	d03d      	beq.n	800703e <HAL_USART_Transmit+0xf2>
 8006fc2:	7833      	ldrb	r3, [r6, #0]
 8006fc4:	3601      	adds	r6, #1
 8006fc6:	6293      	str	r3, [r2, #40]	@ 0x28
 8006fc8:	8deb      	ldrh	r3, [r5, #46]	@ 0x2e
 8006fca:	3b01      	subs	r3, #1
 8006fcc:	b29b      	uxth	r3, r3
 8006fce:	85eb      	strh	r3, [r5, #46]	@ 0x2e
 8006fd0:	8deb      	ldrh	r3, [r5, #46]	@ 0x2e
 8006fd2:	2b00      	cmp	r3, #0
 8006fd4:	d1f0      	bne.n	8006fb8 <HAL_USART_Transmit+0x6c>
 8006fd6:	2140      	movs	r1, #64	@ 0x40
 8006fd8:	69d3      	ldr	r3, [r2, #28]
 8006fda:	4219      	tst	r1, r3
 8006fdc:	d0fc      	beq.n	8006fd8 <HAL_USART_Transmit+0x8c>
 8006fde:	2108      	movs	r1, #8
 8006fe0:	2340      	movs	r3, #64	@ 0x40
 8006fe2:	6213      	str	r3, [r2, #32]
 8006fe4:	6211      	str	r1, [r2, #32]
 8006fe6:	6993      	ldr	r3, [r2, #24]
 8006fe8:	2000      	movs	r0, #0
 8006fea:	430b      	orrs	r3, r1
 8006fec:	6193      	str	r3, [r2, #24]
 8006fee:	6993      	ldr	r3, [r2, #24]
 8006ff0:	3108      	adds	r1, #8
 8006ff2:	430b      	orrs	r3, r1
 8006ff4:	6193      	str	r3, [r2, #24]
 8006ff6:	2359      	movs	r3, #89	@ 0x59
 8006ff8:	2201      	movs	r2, #1
 8006ffa:	54ea      	strb	r2, [r5, r3]
 8006ffc:	2200      	movs	r2, #0
 8006ffe:	3b01      	subs	r3, #1
 8007000:	54ea      	strb	r2, [r5, r3]
 8007002:	bcc0      	pop	{r6, r7}
 8007004:	46b9      	mov	r9, r7
 8007006:	46b0      	mov	r8, r6
 8007008:	bdf8      	pop	{r3, r4, r5, r6, r7, pc}
 800700a:	2e00      	cmp	r6, #0
 800700c:	d04a      	beq.n	80070a4 <HAL_USART_Transmit+0x158>
 800700e:	7833      	ldrb	r3, [r6, #0]
 8007010:	3601      	adds	r6, #1
 8007012:	6293      	str	r3, [r2, #40]	@ 0x28
 8007014:	8deb      	ldrh	r3, [r5, #46]	@ 0x2e
 8007016:	3b01      	subs	r3, #1
 8007018:	b29b      	uxth	r3, r3
 800701a:	85eb      	strh	r3, [r5, #46]	@ 0x2e
 800701c:	8deb      	ldrh	r3, [r5, #46]	@ 0x2e
 800701e:	2b00      	cmp	r3, #0
 8007020:	d02e      	beq.n	8007080 <HAL_USART_Transmit+0x134>
 8007022:	69d3      	ldr	r3, [r2, #28]
 8007024:	421c      	tst	r4, r3
 8007026:	d1f0      	bne.n	800700a <HAL_USART_Transmit+0xbe>
 8007028:	f7fc fa70 	bl	800350c <HAL_GetTick>
 800702c:	464b      	mov	r3, r9
 800702e:	1ac0      	subs	r0, r0, r3
 8007030:	4580      	cmp	r8, r0
 8007032:	d312      	bcc.n	800705a <HAL_USART_Transmit+0x10e>
 8007034:	4643      	mov	r3, r8
 8007036:	2b00      	cmp	r3, #0
 8007038:	d00f      	beq.n	800705a <HAL_USART_Transmit+0x10e>
 800703a:	682a      	ldr	r2, [r5, #0]
 800703c:	e7f1      	b.n	8007022 <HAL_USART_Transmit+0xd6>
 800703e:	883b      	ldrh	r3, [r7, #0]
 8007040:	3702      	adds	r7, #2
 8007042:	05db      	lsls	r3, r3, #23
 8007044:	0ddb      	lsrs	r3, r3, #23
 8007046:	6293      	str	r3, [r2, #40]	@ 0x28
 8007048:	e7be      	b.n	8006fc8 <HAL_USART_Transmit+0x7c>
 800704a:	2002      	movs	r0, #2
 800704c:	e7d9      	b.n	8007002 <HAL_USART_Transmit+0xb6>
 800704e:	692b      	ldr	r3, [r5, #16]
 8007050:	2b00      	cmp	r3, #0
 8007052:	d1a9      	bne.n	8006fa8 <HAL_USART_Transmit+0x5c>
 8007054:	0037      	movs	r7, r6
 8007056:	2600      	movs	r6, #0
 8007058:	e7a6      	b.n	8006fa8 <HAL_USART_Transmit+0x5c>
 800705a:	2359      	movs	r3, #89	@ 0x59
 800705c:	2201      	movs	r2, #1
 800705e:	54ea      	strb	r2, [r5, r3]
 8007060:	2358      	movs	r3, #88	@ 0x58
 8007062:	2200      	movs	r2, #0
 8007064:	2003      	movs	r0, #3
 8007066:	54ea      	strb	r2, [r5, r3]
 8007068:	e7cb      	b.n	8007002 <HAL_USART_Transmit+0xb6>
 800706a:	692b      	ldr	r3, [r5, #16]
 800706c:	2b00      	cmp	r3, #0
 800706e:	d000      	beq.n	8007072 <HAL_USART_Transmit+0x126>
 8007070:	e784      	b.n	8006f7c <HAL_USART_Transmit+0x30>
 8007072:	4201      	tst	r1, r0
 8007074:	d100      	bne.n	8007078 <HAL_USART_Transmit+0x12c>
 8007076:	e781      	b.n	8006f7c <HAL_USART_Transmit+0x30>
 8007078:	e7c3      	b.n	8007002 <HAL_USART_Transmit+0xb6>
 800707a:	4643      	mov	r3, r8
 800707c:	3301      	adds	r3, #1
 800707e:	d0aa      	beq.n	8006fd6 <HAL_USART_Transmit+0x8a>
 8007080:	2440      	movs	r4, #64	@ 0x40
 8007082:	69d3      	ldr	r3, [r2, #28]
 8007084:	421c      	tst	r4, r3
 8007086:	d1aa      	bne.n	8006fde <HAL_USART_Transmit+0x92>
 8007088:	f7fc fa40 	bl	800350c <HAL_GetTick>
 800708c:	464b      	mov	r3, r9
 800708e:	1ac0      	subs	r0, r0, r3
 8007090:	4580      	cmp	r8, r0
 8007092:	d3e2      	bcc.n	800705a <HAL_USART_Transmit+0x10e>
 8007094:	4643      	mov	r3, r8
 8007096:	2b00      	cmp	r3, #0
 8007098:	d0df      	beq.n	800705a <HAL_USART_Transmit+0x10e>
 800709a:	682a      	ldr	r2, [r5, #0]
 800709c:	69d3      	ldr	r3, [r2, #28]
 800709e:	421c      	tst	r4, r3
 80070a0:	d0f2      	beq.n	8007088 <HAL_USART_Transmit+0x13c>
 80070a2:	e79c      	b.n	8006fde <HAL_USART_Transmit+0x92>
 80070a4:	883b      	ldrh	r3, [r7, #0]
 80070a6:	3702      	adds	r7, #2
 80070a8:	05db      	lsls	r3, r3, #23
 80070aa:	0ddb      	lsrs	r3, r3, #23
 80070ac:	6293      	str	r3, [r2, #40]	@ 0x28
 80070ae:	e7b1      	b.n	8007014 <HAL_USART_Transmit+0xc8>

080070b0 <HAL_USART_TxCpltCallback>:
 80070b0:	4770      	bx	lr
 80070b2:	46c0      	nop			@ (mov r8, r8)

080070b4 <HAL_USART_TxRxCpltCallback>:
 80070b4:	4770      	bx	lr
 80070b6:	46c0      	nop			@ (mov r8, r8)

080070b8 <HAL_USART_ErrorCallback>:
 80070b8:	4770      	bx	lr
 80070ba:	46c0      	nop			@ (mov r8, r8)

080070bc <HAL_USART_IRQHandler>:
 80070bc:	b5f0      	push	{r4, r5, r6, r7, lr}
 80070be:	46c6      	mov	lr, r8
 80070c0:	6802      	ldr	r2, [r0, #0]
 80070c2:	4d84      	ldr	r5, [pc, #528]	@ (80072d4 <HAL_USART_IRQHandler+0x218>)
 80070c4:	69d3      	ldr	r3, [r2, #28]
 80070c6:	0004      	movs	r4, r0
 80070c8:	b500      	push	{lr}
 80070ca:	6810      	ldr	r0, [r2, #0]
 80070cc:	6891      	ldr	r1, [r2, #8]
 80070ce:	422b      	tst	r3, r5
 80070d0:	d12b      	bne.n	800712a <HAL_USART_IRQHandler+0x6e>
 80070d2:	2520      	movs	r5, #32
 80070d4:	421d      	tst	r5, r3
 80070d6:	d11c      	bne.n	8007112 <HAL_USART_IRQHandler+0x56>
 80070d8:	2580      	movs	r5, #128	@ 0x80
 80070da:	421d      	tst	r5, r3
 80070dc:	d006      	beq.n	80070ec <HAL_USART_IRQHandler+0x30>
 80070de:	2680      	movs	r6, #128	@ 0x80
 80070e0:	0436      	lsls	r6, r6, #16
 80070e2:	4005      	ands	r5, r0
 80070e4:	4031      	ands	r1, r6
 80070e6:	430d      	orrs	r5, r1
 80070e8:	d000      	beq.n	80070ec <HAL_USART_IRQHandler+0x30>
 80070ea:	e08d      	b.n	8007208 <HAL_USART_IRQHandler+0x14c>
 80070ec:	2140      	movs	r1, #64	@ 0x40
 80070ee:	4219      	tst	r1, r3
 80070f0:	d002      	beq.n	80070f8 <HAL_USART_IRQHandler+0x3c>
 80070f2:	4201      	tst	r1, r0
 80070f4:	d000      	beq.n	80070f8 <HAL_USART_IRQHandler+0x3c>
 80070f6:	e0c5      	b.n	8007284 <HAL_USART_IRQHandler+0x1c8>
 80070f8:	021a      	lsls	r2, r3, #8
 80070fa:	d502      	bpl.n	8007102 <HAL_USART_IRQHandler+0x46>
 80070fc:	0042      	lsls	r2, r0, #1
 80070fe:	d500      	bpl.n	8007102 <HAL_USART_IRQHandler+0x46>
 8007100:	e0d6      	b.n	80072b0 <HAL_USART_IRQHandler+0x1f4>
 8007102:	01db      	lsls	r3, r3, #7
 8007104:	d502      	bpl.n	800710c <HAL_USART_IRQHandler+0x50>
 8007106:	2800      	cmp	r0, #0
 8007108:	da00      	bge.n	800710c <HAL_USART_IRQHandler+0x50>
 800710a:	e0d5      	b.n	80072b8 <HAL_USART_IRQHandler+0x1fc>
 800710c:	bc80      	pop	{r7}
 800710e:	46b8      	mov	r8, r7
 8007110:	bdf0      	pop	{r4, r5, r6, r7, pc}
 8007112:	2680      	movs	r6, #128	@ 0x80
 8007114:	0576      	lsls	r6, r6, #21
 8007116:	4005      	ands	r5, r0
 8007118:	400e      	ands	r6, r1
 800711a:	4335      	orrs	r5, r6
 800711c:	d0dc      	beq.n	80070d8 <HAL_USART_IRQHandler+0x1c>
 800711e:	6ca3      	ldr	r3, [r4, #72]	@ 0x48
 8007120:	2b00      	cmp	r3, #0
 8007122:	d0f3      	beq.n	800710c <HAL_USART_IRQHandler+0x50>
 8007124:	0020      	movs	r0, r4
 8007126:	4798      	blx	r3
 8007128:	e7f0      	b.n	800710c <HAL_USART_IRQHandler+0x50>
 800712a:	000e      	movs	r6, r1
 800712c:	4d6a      	ldr	r5, [pc, #424]	@ (80072d8 <HAL_USART_IRQHandler+0x21c>)
 800712e:	402e      	ands	r6, r5
 8007130:	46b4      	mov	ip, r6
 8007132:	4229      	tst	r1, r5
 8007134:	d152      	bne.n	80071dc <HAL_USART_IRQHandler+0x120>
 8007136:	2590      	movs	r5, #144	@ 0x90
 8007138:	006d      	lsls	r5, r5, #1
 800713a:	4228      	tst	r0, r5
 800713c:	d0cc      	beq.n	80070d8 <HAL_USART_IRQHandler+0x1c>
 800713e:	07dd      	lsls	r5, r3, #31
 8007140:	d50d      	bpl.n	800715e <HAL_USART_IRQHandler+0xa2>
 8007142:	05c5      	lsls	r5, r0, #23
 8007144:	d44e      	bmi.n	80071e4 <HAL_USART_IRQHandler+0x128>
 8007146:	079d      	lsls	r5, r3, #30
 8007148:	d409      	bmi.n	800715e <HAL_USART_IRQHandler+0xa2>
 800714a:	075d      	lsls	r5, r3, #29
 800714c:	d507      	bpl.n	800715e <HAL_USART_IRQHandler+0xa2>
 800714e:	07cd      	lsls	r5, r1, #31
 8007150:	d505      	bpl.n	800715e <HAL_USART_IRQHandler+0xa2>
 8007152:	2504      	movs	r5, #4
 8007154:	2602      	movs	r6, #2
 8007156:	6215      	str	r5, [r2, #32]
 8007158:	6de5      	ldr	r5, [r4, #92]	@ 0x5c
 800715a:	4335      	orrs	r5, r6
 800715c:	65e5      	str	r5, [r4, #92]	@ 0x5c
 800715e:	2580      	movs	r5, #128	@ 0x80
 8007160:	2608      	movs	r6, #8
 8007162:	012d      	lsls	r5, r5, #4
 8007164:	46b0      	mov	r8, r6
 8007166:	401d      	ands	r5, r3
 8007168:	421e      	tst	r6, r3
 800716a:	d05e      	beq.n	800722a <HAL_USART_IRQHandler+0x16e>
 800716c:	4667      	mov	r7, ip
 800716e:	3618      	adds	r6, #24
 8007170:	4006      	ands	r6, r0
 8007172:	433e      	orrs	r6, r7
 8007174:	d153      	bne.n	800721e <HAL_USART_IRQHandler+0x162>
 8007176:	2d00      	cmp	r5, #0
 8007178:	d017      	beq.n	80071aa <HAL_USART_IRQHandler+0xee>
 800717a:	0145      	lsls	r5, r0, #5
 800717c:	d506      	bpl.n	800718c <HAL_USART_IRQHandler+0xd0>
 800717e:	2580      	movs	r5, #128	@ 0x80
 8007180:	2680      	movs	r6, #128	@ 0x80
 8007182:	012d      	lsls	r5, r5, #4
 8007184:	6215      	str	r5, [r2, #32]
 8007186:	6de5      	ldr	r5, [r4, #92]	@ 0x5c
 8007188:	4335      	orrs	r5, r6
 800718a:	65e5      	str	r5, [r4, #92]	@ 0x5c
 800718c:	2580      	movs	r5, #128	@ 0x80
 800718e:	01ad      	lsls	r5, r5, #6
 8007190:	422b      	tst	r3, r5
 8007192:	d00a      	beq.n	80071aa <HAL_USART_IRQHandler+0xee>
 8007194:	07ce      	lsls	r6, r1, #31
 8007196:	d508      	bpl.n	80071aa <HAL_USART_IRQHandler+0xee>
 8007198:	2659      	movs	r6, #89	@ 0x59
 800719a:	5da6      	ldrb	r6, [r4, r6]
 800719c:	6215      	str	r5, [r2, #32]
 800719e:	2e22      	cmp	r6, #34	@ 0x22
 80071a0:	d0b4      	beq.n	800710c <HAL_USART_IRQHandler+0x50>
 80071a2:	2620      	movs	r6, #32
 80071a4:	6de5      	ldr	r5, [r4, #92]	@ 0x5c
 80071a6:	4335      	orrs	r5, r6
 80071a8:	65e5      	str	r5, [r4, #92]	@ 0x5c
 80071aa:	6de5      	ldr	r5, [r4, #92]	@ 0x5c
 80071ac:	2d00      	cmp	r5, #0
 80071ae:	d0ad      	beq.n	800710c <HAL_USART_IRQHandler+0x50>
 80071b0:	2520      	movs	r5, #32
 80071b2:	421d      	tst	r5, r3
 80071b4:	d005      	beq.n	80071c2 <HAL_USART_IRQHandler+0x106>
 80071b6:	2380      	movs	r3, #128	@ 0x80
 80071b8:	055b      	lsls	r3, r3, #21
 80071ba:	4005      	ands	r5, r0
 80071bc:	400b      	ands	r3, r1
 80071be:	431d      	orrs	r5, r3
 80071c0:	d126      	bne.n	8007210 <HAL_USART_IRQHandler+0x154>
 80071c2:	2140      	movs	r1, #64	@ 0x40
 80071c4:	2308      	movs	r3, #8
 80071c6:	6de0      	ldr	r0, [r4, #92]	@ 0x5c
 80071c8:	6895      	ldr	r5, [r2, #8]
 80071ca:	4003      	ands	r3, r0
 80071cc:	400d      	ands	r5, r1
 80071ce:	431d      	orrs	r5, r3
 80071d0:	d12e      	bne.n	8007230 <HAL_USART_IRQHandler+0x174>
 80071d2:	0020      	movs	r0, r4
 80071d4:	f7ff ff70 	bl	80070b8 <HAL_USART_ErrorCallback>
 80071d8:	65e5      	str	r5, [r4, #92]	@ 0x5c
 80071da:	e797      	b.n	800710c <HAL_USART_IRQHandler+0x50>
 80071dc:	07dd      	lsls	r5, r3, #31
 80071de:	d506      	bpl.n	80071ee <HAL_USART_IRQHandler+0x132>
 80071e0:	05c5      	lsls	r5, r0, #23
 80071e2:	d504      	bpl.n	80071ee <HAL_USART_IRQHandler+0x132>
 80071e4:	2601      	movs	r6, #1
 80071e6:	6216      	str	r6, [r2, #32]
 80071e8:	6de5      	ldr	r5, [r4, #92]	@ 0x5c
 80071ea:	4335      	orrs	r5, r6
 80071ec:	65e5      	str	r5, [r4, #92]	@ 0x5c
 80071ee:	2502      	movs	r5, #2
 80071f0:	421d      	tst	r5, r3
 80071f2:	d0aa      	beq.n	800714a <HAL_USART_IRQHandler+0x8e>
 80071f4:	07ce      	lsls	r6, r1, #31
 80071f6:	d5b2      	bpl.n	800715e <HAL_USART_IRQHandler+0xa2>
 80071f8:	2604      	movs	r6, #4
 80071fa:	6215      	str	r5, [r2, #32]
 80071fc:	6de5      	ldr	r5, [r4, #92]	@ 0x5c
 80071fe:	4335      	orrs	r5, r6
 8007200:	65e5      	str	r5, [r4, #92]	@ 0x5c
 8007202:	421e      	tst	r6, r3
 8007204:	d0ab      	beq.n	800715e <HAL_USART_IRQHandler+0xa2>
 8007206:	e7a4      	b.n	8007152 <HAL_USART_IRQHandler+0x96>
 8007208:	6ce3      	ldr	r3, [r4, #76]	@ 0x4c
 800720a:	2b00      	cmp	r3, #0
 800720c:	d18a      	bne.n	8007124 <HAL_USART_IRQHandler+0x68>
 800720e:	e77d      	b.n	800710c <HAL_USART_IRQHandler+0x50>
 8007210:	6ca3      	ldr	r3, [r4, #72]	@ 0x48
 8007212:	2b00      	cmp	r3, #0
 8007214:	d0d5      	beq.n	80071c2 <HAL_USART_IRQHandler+0x106>
 8007216:	0020      	movs	r0, r4
 8007218:	4798      	blx	r3
 800721a:	6822      	ldr	r2, [r4, #0]
 800721c:	e7d1      	b.n	80071c2 <HAL_USART_IRQHandler+0x106>
 800721e:	4646      	mov	r6, r8
 8007220:	4647      	mov	r7, r8
 8007222:	6216      	str	r6, [r2, #32]
 8007224:	6de6      	ldr	r6, [r4, #92]	@ 0x5c
 8007226:	433e      	orrs	r6, r7
 8007228:	65e6      	str	r6, [r4, #92]	@ 0x5c
 800722a:	2d00      	cmp	r5, #0
 800722c:	d1a5      	bne.n	800717a <HAL_USART_IRQHandler+0xbe>
 800722e:	e7ad      	b.n	800718c <HAL_USART_IRQHandler+0xd0>
 8007230:	6813      	ldr	r3, [r2, #0]
 8007232:	482a      	ldr	r0, [pc, #168]	@ (80072dc <HAL_USART_IRQHandler+0x220>)
 8007234:	4003      	ands	r3, r0
 8007236:	6013      	str	r3, [r2, #0]
 8007238:	6893      	ldr	r3, [r2, #8]
 800723a:	4829      	ldr	r0, [pc, #164]	@ (80072e0 <HAL_USART_IRQHandler+0x224>)
 800723c:	4003      	ands	r3, r0
 800723e:	6093      	str	r3, [r2, #8]
 8007240:	2001      	movs	r0, #1
 8007242:	2359      	movs	r3, #89	@ 0x59
 8007244:	54e0      	strb	r0, [r4, r3]
 8007246:	6893      	ldr	r3, [r2, #8]
 8007248:	4219      	tst	r1, r3
 800724a:	d017      	beq.n	800727c <HAL_USART_IRQHandler+0x1c0>
 800724c:	6893      	ldr	r3, [r2, #8]
 800724e:	6d20      	ldr	r0, [r4, #80]	@ 0x50
 8007250:	438b      	bics	r3, r1
 8007252:	6093      	str	r3, [r2, #8]
 8007254:	2800      	cmp	r0, #0
 8007256:	d003      	beq.n	8007260 <HAL_USART_IRQHandler+0x1a4>
 8007258:	2300      	movs	r3, #0
 800725a:	6383      	str	r3, [r0, #56]	@ 0x38
 800725c:	f7fc fb72 	bl	8003944 <HAL_DMA_Abort_IT>
 8007260:	6d60      	ldr	r0, [r4, #84]	@ 0x54
 8007262:	2800      	cmp	r0, #0
 8007264:	d00a      	beq.n	800727c <HAL_USART_IRQHandler+0x1c0>
 8007266:	4b1f      	ldr	r3, [pc, #124]	@ (80072e4 <HAL_USART_IRQHandler+0x228>)
 8007268:	6383      	str	r3, [r0, #56]	@ 0x38
 800726a:	f7fc fb6b 	bl	8003944 <HAL_DMA_Abort_IT>
 800726e:	2800      	cmp	r0, #0
 8007270:	d100      	bne.n	8007274 <HAL_USART_IRQHandler+0x1b8>
 8007272:	e74b      	b.n	800710c <HAL_USART_IRQHandler+0x50>
 8007274:	6d60      	ldr	r0, [r4, #84]	@ 0x54
 8007276:	6b83      	ldr	r3, [r0, #56]	@ 0x38
 8007278:	4798      	blx	r3
 800727a:	e747      	b.n	800710c <HAL_USART_IRQHandler+0x50>
 800727c:	0020      	movs	r0, r4
 800727e:	f7ff ff1b 	bl	80070b8 <HAL_USART_ErrorCallback>
 8007282:	e743      	b.n	800710c <HAL_USART_IRQHandler+0x50>
 8007284:	6813      	ldr	r3, [r2, #0]
 8007286:	438b      	bics	r3, r1
 8007288:	6013      	str	r3, [r2, #0]
 800728a:	6893      	ldr	r3, [r2, #8]
 800728c:	393f      	subs	r1, #63	@ 0x3f
 800728e:	438b      	bics	r3, r1
 8007290:	6093      	str	r3, [r2, #8]
 8007292:	2300      	movs	r3, #0
 8007294:	64e3      	str	r3, [r4, #76]	@ 0x4c
 8007296:	3359      	adds	r3, #89	@ 0x59
 8007298:	5ce0      	ldrb	r0, [r4, r3]
 800729a:	2812      	cmp	r0, #18
 800729c:	d010      	beq.n	80072c0 <HAL_USART_IRQHandler+0x204>
 800729e:	8ee2      	ldrh	r2, [r4, #54]	@ 0x36
 80072a0:	2a00      	cmp	r2, #0
 80072a2:	d000      	beq.n	80072a6 <HAL_USART_IRQHandler+0x1ea>
 80072a4:	e732      	b.n	800710c <HAL_USART_IRQHandler+0x50>
 80072a6:	0020      	movs	r0, r4
 80072a8:	54e1      	strb	r1, [r4, r3]
 80072aa:	f7ff ff03 	bl	80070b4 <HAL_USART_TxRxCpltCallback>
 80072ae:	e72d      	b.n	800710c <HAL_USART_IRQHandler+0x50>
 80072b0:	0020      	movs	r0, r4
 80072b2:	f000 f823 	bl	80072fc <HAL_USARTEx_TxFifoEmptyCallback>
 80072b6:	e729      	b.n	800710c <HAL_USART_IRQHandler+0x50>
 80072b8:	0020      	movs	r0, r4
 80072ba:	f000 f81d 	bl	80072f8 <HAL_USARTEx_RxFifoFullCallback>
 80072be:	e725      	b.n	800710c <HAL_USART_IRQHandler+0x50>
 80072c0:	2508      	movs	r5, #8
 80072c2:	6215      	str	r5, [r2, #32]
 80072c4:	6990      	ldr	r0, [r2, #24]
 80072c6:	4328      	orrs	r0, r5
 80072c8:	6190      	str	r0, [r2, #24]
 80072ca:	0020      	movs	r0, r4
 80072cc:	54e1      	strb	r1, [r4, r3]
 80072ce:	f7ff feef 	bl	80070b0 <HAL_USART_TxCpltCallback>
 80072d2:	e71b      	b.n	800710c <HAL_USART_IRQHandler+0x50>
 80072d4:	0000280f 	.word	0x0000280f
 80072d8:	10000001 	.word	0x10000001
 80072dc:	fffffe1f 	.word	0xfffffe1f
 80072e0:	ef7ffffe 	.word	0xef7ffffe
 80072e4:	080072e9 	.word	0x080072e9

080072e8 <USART_DMAAbortOnError>:
 80072e8:	2300      	movs	r3, #0
 80072ea:	b510      	push	{r4, lr}
 80072ec:	6a80      	ldr	r0, [r0, #40]	@ 0x28
 80072ee:	86c3      	strh	r3, [r0, #54]	@ 0x36
 80072f0:	85c3      	strh	r3, [r0, #46]	@ 0x2e
 80072f2:	f7ff fee1 	bl	80070b8 <HAL_USART_ErrorCallback>
 80072f6:	bd10      	pop	{r4, pc}

080072f8 <HAL_USARTEx_RxFifoFullCallback>:
 80072f8:	4770      	bx	lr
 80072fa:	46c0      	nop			@ (mov r8, r8)

080072fc <HAL_USARTEx_TxFifoEmptyCallback>:
 80072fc:	4770      	bx	lr
 80072fe:	46c0      	nop			@ (mov r8, r8)

08007300 <HAL_USARTEx_DisableFifoMode>:
 8007300:	b570      	push	{r4, r5, r6, lr}
 8007302:	2458      	movs	r4, #88	@ 0x58
 8007304:	5d03      	ldrb	r3, [r0, r4]
 8007306:	2b01      	cmp	r3, #1
 8007308:	d011      	beq.n	800732e <HAL_USARTEx_DisableFifoMode+0x2e>
 800730a:	2559      	movs	r5, #89	@ 0x59
 800730c:	2302      	movs	r3, #2
 800730e:	2601      	movs	r6, #1
 8007310:	5543      	strb	r3, [r0, r5]
 8007312:	6803      	ldr	r3, [r0, #0]
 8007314:	681a      	ldr	r2, [r3, #0]
 8007316:	6819      	ldr	r1, [r3, #0]
 8007318:	43b1      	bics	r1, r6
 800731a:	6019      	str	r1, [r3, #0]
 800731c:	4905      	ldr	r1, [pc, #20]	@ (8007334 <HAL_USARTEx_DisableFifoMode+0x34>)
 800731e:	400a      	ands	r2, r1
 8007320:	2100      	movs	r1, #0
 8007322:	6441      	str	r1, [r0, #68]	@ 0x44
 8007324:	601a      	str	r2, [r3, #0]
 8007326:	5546      	strb	r6, [r0, r5]
 8007328:	5501      	strb	r1, [r0, r4]
 800732a:	2000      	movs	r0, #0
 800732c:	bd70      	pop	{r4, r5, r6, pc}
 800732e:	2002      	movs	r0, #2
 8007330:	e7fc      	b.n	800732c <HAL_USARTEx_DisableFifoMode+0x2c>
 8007332:	46c0      	nop			@ (mov r8, r8)
 8007334:	dfffffff 	.word	0xdfffffff

08007338 <HAL_USARTEx_SetTxFifoThreshold>:
 8007338:	b5f0      	push	{r4, r5, r6, r7, lr}
 800733a:	46d6      	mov	lr, sl
 800733c:	464f      	mov	r7, r9
 800733e:	4646      	mov	r6, r8
 8007340:	2358      	movs	r3, #88	@ 0x58
 8007342:	b5c0      	push	{r6, r7, lr}
 8007344:	5cc3      	ldrb	r3, [r0, r3]
 8007346:	0004      	movs	r4, r0
 8007348:	000a      	movs	r2, r1
 800734a:	2b01      	cmp	r3, #1
 800734c:	d03b      	beq.n	80073c6 <HAL_USARTEx_SetTxFifoThreshold+0x8e>
 800734e:	2359      	movs	r3, #89	@ 0x59
 8007350:	2102      	movs	r1, #2
 8007352:	54c1      	strb	r1, [r0, r3]
 8007354:	6805      	ldr	r5, [r0, #0]
 8007356:	3901      	subs	r1, #1
 8007358:	682e      	ldr	r6, [r5, #0]
 800735a:	682b      	ldr	r3, [r5, #0]
 800735c:	438b      	bics	r3, r1
 800735e:	602b      	str	r3, [r5, #0]
 8007360:	68ab      	ldr	r3, [r5, #8]
 8007362:	00db      	lsls	r3, r3, #3
 8007364:	08d9      	lsrs	r1, r3, #3
 8007366:	6c43      	ldr	r3, [r0, #68]	@ 0x44
 8007368:	4311      	orrs	r1, r2
 800736a:	60a9      	str	r1, [r5, #8]
 800736c:	2b00      	cmp	r3, #0
 800736e:	d027      	beq.n	80073c0 <HAL_USARTEx_SetTxFifoThreshold+0x88>
 8007370:	68ab      	ldr	r3, [r5, #8]
 8007372:	4a16      	ldr	r2, [pc, #88]	@ (80073cc <HAL_USARTEx_SetTxFifoThreshold+0x94>)
 8007374:	4698      	mov	r8, r3
 8007376:	4692      	mov	sl, r2
 8007378:	68ab      	ldr	r3, [r5, #8]
 800737a:	0f5b      	lsrs	r3, r3, #29
 800737c:	5cd0      	ldrb	r0, [r2, r3]
 800737e:	4a14      	ldr	r2, [pc, #80]	@ (80073d0 <HAL_USARTEx_SetTxFifoThreshold+0x98>)
 8007380:	00c0      	lsls	r0, r0, #3
 8007382:	5cd1      	ldrb	r1, [r2, r3]
 8007384:	4691      	mov	r9, r2
 8007386:	f7f8 ff4f 	bl	8000228 <__divsi3>
 800738a:	4643      	mov	r3, r8
 800738c:	4652      	mov	r2, sl
 800738e:	011b      	lsls	r3, r3, #4
 8007390:	0f5b      	lsrs	r3, r3, #29
 8007392:	b287      	uxth	r7, r0
 8007394:	5cd0      	ldrb	r0, [r2, r3]
 8007396:	464a      	mov	r2, r9
 8007398:	00c0      	lsls	r0, r0, #3
 800739a:	5cd1      	ldrb	r1, [r2, r3]
 800739c:	f7f8 ff44 	bl	8000228 <__divsi3>
 80073a0:	b280      	uxth	r0, r0
 80073a2:	2359      	movs	r3, #89	@ 0x59
 80073a4:	2201      	movs	r2, #1
 80073a6:	8760      	strh	r0, [r4, #58]	@ 0x3a
 80073a8:	87a7      	strh	r7, [r4, #60]	@ 0x3c
 80073aa:	602e      	str	r6, [r5, #0]
 80073ac:	54e2      	strb	r2, [r4, r3]
 80073ae:	2200      	movs	r2, #0
 80073b0:	2000      	movs	r0, #0
 80073b2:	3b01      	subs	r3, #1
 80073b4:	54e2      	strb	r2, [r4, r3]
 80073b6:	bce0      	pop	{r5, r6, r7}
 80073b8:	46ba      	mov	sl, r7
 80073ba:	46b1      	mov	r9, r6
 80073bc:	46a8      	mov	r8, r5
 80073be:	bdf0      	pop	{r4, r5, r6, r7, pc}
 80073c0:	2001      	movs	r0, #1
 80073c2:	2701      	movs	r7, #1
 80073c4:	e7ed      	b.n	80073a2 <HAL_USARTEx_SetTxFifoThreshold+0x6a>
 80073c6:	2002      	movs	r0, #2
 80073c8:	e7f5      	b.n	80073b6 <HAL_USARTEx_SetTxFifoThreshold+0x7e>
 80073ca:	46c0      	nop			@ (mov r8, r8)
 80073cc:	08009870 	.word	0x08009870
 80073d0:	08009868 	.word	0x08009868

080073d4 <HAL_USARTEx_SetRxFifoThreshold>:
 80073d4:	b5f0      	push	{r4, r5, r6, r7, lr}
 80073d6:	46d6      	mov	lr, sl
 80073d8:	464f      	mov	r7, r9
 80073da:	4646      	mov	r6, r8
 80073dc:	2358      	movs	r3, #88	@ 0x58
 80073de:	b5c0      	push	{r6, r7, lr}
 80073e0:	5cc3      	ldrb	r3, [r0, r3]
 80073e2:	0004      	movs	r4, r0
 80073e4:	000a      	movs	r2, r1
 80073e6:	2b01      	cmp	r3, #1
 80073e8:	d03b      	beq.n	8007462 <HAL_USARTEx_SetRxFifoThreshold+0x8e>
 80073ea:	2359      	movs	r3, #89	@ 0x59
 80073ec:	2102      	movs	r1, #2
 80073ee:	54c1      	strb	r1, [r0, r3]
 80073f0:	6805      	ldr	r5, [r0, #0]
 80073f2:	3901      	subs	r1, #1
 80073f4:	682e      	ldr	r6, [r5, #0]
 80073f6:	682b      	ldr	r3, [r5, #0]
 80073f8:	438b      	bics	r3, r1
 80073fa:	602b      	str	r3, [r5, #0]
 80073fc:	68a9      	ldr	r1, [r5, #8]
 80073fe:	4b1a      	ldr	r3, [pc, #104]	@ (8007468 <HAL_USARTEx_SetRxFifoThreshold+0x94>)
 8007400:	4019      	ands	r1, r3
 8007402:	6c43      	ldr	r3, [r0, #68]	@ 0x44
 8007404:	4311      	orrs	r1, r2
 8007406:	60a9      	str	r1, [r5, #8]
 8007408:	2b00      	cmp	r3, #0
 800740a:	d027      	beq.n	800745c <HAL_USARTEx_SetRxFifoThreshold+0x88>
 800740c:	68ab      	ldr	r3, [r5, #8]
 800740e:	4a17      	ldr	r2, [pc, #92]	@ (800746c <HAL_USARTEx_SetRxFifoThreshold+0x98>)
 8007410:	4698      	mov	r8, r3
 8007412:	4692      	mov	sl, r2
 8007414:	68ab      	ldr	r3, [r5, #8]
 8007416:	0f5b      	lsrs	r3, r3, #29
 8007418:	5cd0      	ldrb	r0, [r2, r3]
 800741a:	4a15      	ldr	r2, [pc, #84]	@ (8007470 <HAL_USARTEx_SetRxFifoThreshold+0x9c>)
 800741c:	00c0      	lsls	r0, r0, #3
 800741e:	5cd1      	ldrb	r1, [r2, r3]
 8007420:	4691      	mov	r9, r2
 8007422:	f7f8 ff01 	bl	8000228 <__divsi3>
 8007426:	4643      	mov	r3, r8
 8007428:	4652      	mov	r2, sl
 800742a:	011b      	lsls	r3, r3, #4
 800742c:	0f5b      	lsrs	r3, r3, #29
 800742e:	b287      	uxth	r7, r0
 8007430:	5cd0      	ldrb	r0, [r2, r3]
 8007432:	464a      	mov	r2, r9
 8007434:	00c0      	lsls	r0, r0, #3
 8007436:	5cd1      	ldrb	r1, [r2, r3]
 8007438:	f7f8 fef6 	bl	8000228 <__divsi3>
 800743c:	b280      	uxth	r0, r0
 800743e:	2359      	movs	r3, #89	@ 0x59
 8007440:	2201      	movs	r2, #1
 8007442:	8760      	strh	r0, [r4, #58]	@ 0x3a
 8007444:	87a7      	strh	r7, [r4, #60]	@ 0x3c
 8007446:	602e      	str	r6, [r5, #0]
 8007448:	54e2      	strb	r2, [r4, r3]
 800744a:	2200      	movs	r2, #0
 800744c:	2000      	movs	r0, #0
 800744e:	3b01      	subs	r3, #1
 8007450:	54e2      	strb	r2, [r4, r3]
 8007452:	bce0      	pop	{r5, r6, r7}
 8007454:	46ba      	mov	sl, r7
 8007456:	46b1      	mov	r9, r6
 8007458:	46a8      	mov	r8, r5
 800745a:	bdf0      	pop	{r4, r5, r6, r7, pc}
 800745c:	2001      	movs	r0, #1
 800745e:	2701      	movs	r7, #1
 8007460:	e7ed      	b.n	800743e <HAL_USARTEx_SetRxFifoThreshold+0x6a>
 8007462:	2002      	movs	r0, #2
 8007464:	e7f5      	b.n	8007452 <HAL_USARTEx_SetRxFifoThreshold+0x7e>
 8007466:	46c0      	nop			@ (mov r8, r8)
 8007468:	f1ffffff 	.word	0xf1ffffff
 800746c:	08009870 	.word	0x08009870
 8007470:	08009868 	.word	0x08009868

08007474 <USB_EnableGlobalInt>:
 8007474:	2300      	movs	r3, #0
 8007476:	6443      	str	r3, [r0, #68]	@ 0x44
 8007478:	4b01      	ldr	r3, [pc, #4]	@ (8007480 <USB_EnableGlobalInt+0xc>)
 800747a:	6403      	str	r3, [r0, #64]	@ 0x40
 800747c:	2000      	movs	r0, #0
 800747e:	4770      	bx	lr
 8007480:	0000bf80 	.word	0x0000bf80

08007484 <USB_DisableGlobalInt>:
 8007484:	6c03      	ldr	r3, [r0, #64]	@ 0x40
 8007486:	4a02      	ldr	r2, [pc, #8]	@ (8007490 <USB_DisableGlobalInt+0xc>)
 8007488:	4013      	ands	r3, r2
 800748a:	6403      	str	r3, [r0, #64]	@ 0x40
 800748c:	2000      	movs	r0, #0
 800748e:	4770      	bx	lr
 8007490:	ffff407f 	.word	0xffff407f

08007494 <USB_DevInit>:
 8007494:	b084      	sub	sp, #16
 8007496:	9202      	str	r2, [sp, #8]
 8007498:	2201      	movs	r2, #1
 800749a:	6402      	str	r2, [r0, #64]	@ 0x40
 800749c:	9303      	str	r3, [sp, #12]
 800749e:	6c03      	ldr	r3, [r0, #64]	@ 0x40
 80074a0:	9101      	str	r1, [sp, #4]
 80074a2:	4393      	bics	r3, r2
 80074a4:	6403      	str	r3, [r0, #64]	@ 0x40
 80074a6:	6c03      	ldr	r3, [r0, #64]	@ 0x40
 80074a8:	005b      	lsls	r3, r3, #1
 80074aa:	085b      	lsrs	r3, r3, #1
 80074ac:	6403      	str	r3, [r0, #64]	@ 0x40
 80074ae:	2300      	movs	r3, #0
 80074b0:	6443      	str	r3, [r0, #68]	@ 0x44
 80074b2:	2000      	movs	r0, #0
 80074b4:	b004      	add	sp, #16
 80074b6:	4770      	bx	lr

080074b8 <USB_ActivateEndpoint>:
 80074b8:	b5f0      	push	{r4, r5, r6, r7, lr}
 80074ba:	780c      	ldrb	r4, [r1, #0]
 80074bc:	78cd      	ldrb	r5, [r1, #3]
 80074be:	00a3      	lsls	r3, r4, #2
 80074c0:	18c3      	adds	r3, r0, r3
 80074c2:	681a      	ldr	r2, [r3, #0]
 80074c4:	4891      	ldr	r0, [pc, #580]	@ (800770c <USB_ActivateEndpoint+0x254>)
 80074c6:	4002      	ands	r2, r0
 80074c8:	2d02      	cmp	r5, #2
 80074ca:	d100      	bne.n	80074ce <USB_ActivateEndpoint+0x16>
 80074cc:	e08b      	b.n	80075e6 <USB_ActivateEndpoint+0x12e>
 80074ce:	d851      	bhi.n	8007574 <USB_ActivateEndpoint+0xbc>
 80074d0:	2d00      	cmp	r5, #0
 80074d2:	d100      	bne.n	80074d6 <USB_ActivateEndpoint+0x1e>
 80074d4:	e0e3      	b.n	800769e <USB_ActivateEndpoint+0x1e6>
 80074d6:	2080      	movs	r0, #128	@ 0x80
 80074d8:	00c0      	lsls	r0, r0, #3
 80074da:	4302      	orrs	r2, r0
 80074dc:	488c      	ldr	r0, [pc, #560]	@ (8007710 <USB_ActivateEndpoint+0x258>)
 80074de:	4e8d      	ldr	r6, [pc, #564]	@ (8007714 <USB_ActivateEndpoint+0x25c>)
 80074e0:	4302      	orrs	r2, r0
 80074e2:	601a      	str	r2, [r3, #0]
 80074e4:	681a      	ldr	r2, [r3, #0]
 80074e6:	4032      	ands	r2, r6
 80074e8:	4322      	orrs	r2, r4
 80074ea:	4310      	orrs	r0, r2
 80074ec:	6018      	str	r0, [r3, #0]
 80074ee:	7b0a      	ldrb	r2, [r1, #12]
 80074f0:	2000      	movs	r0, #0
 80074f2:	2a00      	cmp	r2, #0
 80074f4:	d100      	bne.n	80074f8 <USB_ActivateEndpoint+0x40>
 80074f6:	e082      	b.n	80075fe <USB_ActivateEndpoint+0x146>
 80074f8:	681e      	ldr	r6, [r3, #0]
 80074fa:	4a87      	ldr	r2, [pc, #540]	@ (8007718 <USB_ActivateEndpoint+0x260>)
 80074fc:	4016      	ands	r6, r2
 80074fe:	4a84      	ldr	r2, [pc, #528]	@ (8007710 <USB_ActivateEndpoint+0x258>)
 8007500:	4332      	orrs	r2, r6
 8007502:	601a      	str	r2, [r3, #0]
 8007504:	00e2      	lsls	r2, r4, #3
 8007506:	4c85      	ldr	r4, [pc, #532]	@ (800771c <USB_ActivateEndpoint+0x264>)
 8007508:	46a4      	mov	ip, r4
 800750a:	4462      	add	r2, ip
 800750c:	6814      	ldr	r4, [r2, #0]
 800750e:	0c24      	lsrs	r4, r4, #16
 8007510:	0424      	lsls	r4, r4, #16
 8007512:	6014      	str	r4, [r2, #0]
 8007514:	890c      	ldrh	r4, [r1, #8]
 8007516:	6816      	ldr	r6, [r2, #0]
 8007518:	08a4      	lsrs	r4, r4, #2
 800751a:	00a4      	lsls	r4, r4, #2
 800751c:	4334      	orrs	r4, r6
 800751e:	6014      	str	r4, [r2, #0]
 8007520:	6854      	ldr	r4, [r2, #4]
 8007522:	0c24      	lsrs	r4, r4, #16
 8007524:	0424      	lsls	r4, r4, #16
 8007526:	6054      	str	r4, [r2, #4]
 8007528:	894c      	ldrh	r4, [r1, #10]
 800752a:	6856      	ldr	r6, [r2, #4]
 800752c:	08a4      	lsrs	r4, r4, #2
 800752e:	00a4      	lsls	r4, r4, #2
 8007530:	4334      	orrs	r4, r6
 8007532:	6054      	str	r4, [r2, #4]
 8007534:	784a      	ldrb	r2, [r1, #1]
 8007536:	2a00      	cmp	r2, #0
 8007538:	d000      	beq.n	800753c <USB_ActivateEndpoint+0x84>
 800753a:	e08d      	b.n	8007658 <USB_ActivateEndpoint+0x1a0>
 800753c:	681a      	ldr	r2, [r3, #0]
 800753e:	0452      	lsls	r2, r2, #17
 8007540:	d505      	bpl.n	800754e <USB_ActivateEndpoint+0x96>
 8007542:	6819      	ldr	r1, [r3, #0]
 8007544:	4a73      	ldr	r2, [pc, #460]	@ (8007714 <USB_ActivateEndpoint+0x25c>)
 8007546:	4011      	ands	r1, r2
 8007548:	4a75      	ldr	r2, [pc, #468]	@ (8007720 <USB_ActivateEndpoint+0x268>)
 800754a:	430a      	orrs	r2, r1
 800754c:	601a      	str	r2, [r3, #0]
 800754e:	681a      	ldr	r2, [r3, #0]
 8007550:	0652      	lsls	r2, r2, #25
 8007552:	d500      	bpl.n	8007556 <USB_ActivateEndpoint+0x9e>
 8007554:	e0b5      	b.n	80076c2 <USB_ActivateEndpoint+0x20a>
 8007556:	6819      	ldr	r1, [r3, #0]
 8007558:	4a72      	ldr	r2, [pc, #456]	@ (8007724 <USB_ActivateEndpoint+0x26c>)
 800755a:	4c73      	ldr	r4, [pc, #460]	@ (8007728 <USB_ActivateEndpoint+0x270>)
 800755c:	4011      	ands	r1, r2
 800755e:	22c0      	movs	r2, #192	@ 0xc0
 8007560:	0192      	lsls	r2, r2, #6
 8007562:	404a      	eors	r2, r1
 8007564:	496a      	ldr	r1, [pc, #424]	@ (8007710 <USB_ActivateEndpoint+0x258>)
 8007566:	430a      	orrs	r2, r1
 8007568:	601a      	str	r2, [r3, #0]
 800756a:	681a      	ldr	r2, [r3, #0]
 800756c:	4022      	ands	r2, r4
 800756e:	4311      	orrs	r1, r2
 8007570:	6019      	str	r1, [r3, #0]
 8007572:	bdf0      	pop	{r4, r5, r6, r7, pc}
 8007574:	2d03      	cmp	r5, #3
 8007576:	d103      	bne.n	8007580 <USB_ActivateEndpoint+0xc8>
 8007578:	20c0      	movs	r0, #192	@ 0xc0
 800757a:	00c0      	lsls	r0, r0, #3
 800757c:	4302      	orrs	r2, r0
 800757e:	e7ad      	b.n	80074dc <USB_ActivateEndpoint+0x24>
 8007580:	4863      	ldr	r0, [pc, #396]	@ (8007710 <USB_ActivateEndpoint+0x258>)
 8007582:	4e64      	ldr	r6, [pc, #400]	@ (8007714 <USB_ActivateEndpoint+0x25c>)
 8007584:	4302      	orrs	r2, r0
 8007586:	601a      	str	r2, [r3, #0]
 8007588:	681a      	ldr	r2, [r3, #0]
 800758a:	4032      	ands	r2, r6
 800758c:	4322      	orrs	r2, r4
 800758e:	4310      	orrs	r0, r2
 8007590:	6018      	str	r0, [r3, #0]
 8007592:	7b0a      	ldrb	r2, [r1, #12]
 8007594:	2001      	movs	r0, #1
 8007596:	2a00      	cmp	r2, #0
 8007598:	d1ae      	bne.n	80074f8 <USB_ActivateEndpoint+0x40>
 800759a:	4e60      	ldr	r6, [pc, #384]	@ (800771c <USB_ActivateEndpoint+0x264>)
 800759c:	784f      	ldrb	r7, [r1, #1]
 800759e:	46b4      	mov	ip, r6
 80075a0:	88ce      	ldrh	r6, [r1, #6]
 80075a2:	00e2      	lsls	r2, r4, #3
 80075a4:	08b6      	lsrs	r6, r6, #2
 80075a6:	4462      	add	r2, ip
 80075a8:	00b6      	lsls	r6, r6, #2
 80075aa:	2f00      	cmp	r7, #0
 80075ac:	d029      	beq.n	8007602 <USB_ActivateEndpoint+0x14a>
 80075ae:	6811      	ldr	r1, [r2, #0]
 80075b0:	0c09      	lsrs	r1, r1, #16
 80075b2:	0409      	lsls	r1, r1, #16
 80075b4:	6011      	str	r1, [r2, #0]
 80075b6:	6811      	ldr	r1, [r2, #0]
 80075b8:	4331      	orrs	r1, r6
 80075ba:	6011      	str	r1, [r2, #0]
 80075bc:	681a      	ldr	r2, [r3, #0]
 80075be:	0652      	lsls	r2, r2, #25
 80075c0:	d505      	bpl.n	80075ce <USB_ActivateEndpoint+0x116>
 80075c2:	6819      	ldr	r1, [r3, #0]
 80075c4:	4a53      	ldr	r2, [pc, #332]	@ (8007714 <USB_ActivateEndpoint+0x25c>)
 80075c6:	4011      	ands	r1, r2
 80075c8:	4a58      	ldr	r2, [pc, #352]	@ (800772c <USB_ActivateEndpoint+0x274>)
 80075ca:	430a      	orrs	r2, r1
 80075cc:	601a      	str	r2, [r3, #0]
 80075ce:	2d01      	cmp	r5, #1
 80075d0:	d100      	bne.n	80075d4 <USB_ActivateEndpoint+0x11c>
 80075d2:	e08b      	b.n	80076ec <USB_ActivateEndpoint+0x234>
 80075d4:	681a      	ldr	r2, [r3, #0]
 80075d6:	4954      	ldr	r1, [pc, #336]	@ (8007728 <USB_ActivateEndpoint+0x270>)
 80075d8:	400a      	ands	r2, r1
 80075da:	2120      	movs	r1, #32
 80075dc:	404a      	eors	r2, r1
 80075de:	494c      	ldr	r1, [pc, #304]	@ (8007710 <USB_ActivateEndpoint+0x258>)
 80075e0:	430a      	orrs	r2, r1
 80075e2:	601a      	str	r2, [r3, #0]
 80075e4:	e7c5      	b.n	8007572 <USB_ActivateEndpoint+0xba>
 80075e6:	484a      	ldr	r0, [pc, #296]	@ (8007710 <USB_ActivateEndpoint+0x258>)
 80075e8:	4e4a      	ldr	r6, [pc, #296]	@ (8007714 <USB_ActivateEndpoint+0x25c>)
 80075ea:	4302      	orrs	r2, r0
 80075ec:	601a      	str	r2, [r3, #0]
 80075ee:	681a      	ldr	r2, [r3, #0]
 80075f0:	4032      	ands	r2, r6
 80075f2:	4322      	orrs	r2, r4
 80075f4:	4310      	orrs	r0, r2
 80075f6:	6018      	str	r0, [r3, #0]
 80075f8:	7b0a      	ldrb	r2, [r1, #12]
 80075fa:	2a00      	cmp	r2, #0
 80075fc:	d168      	bne.n	80076d0 <USB_ActivateEndpoint+0x218>
 80075fe:	2000      	movs	r0, #0
 8007600:	e7cb      	b.n	800759a <USB_ActivateEndpoint+0xe2>
 8007602:	6855      	ldr	r5, [r2, #4]
 8007604:	0c2d      	lsrs	r5, r5, #16
 8007606:	042d      	lsls	r5, r5, #16
 8007608:	6055      	str	r5, [r2, #4]
 800760a:	6855      	ldr	r5, [r2, #4]
 800760c:	4335      	orrs	r5, r6
 800760e:	6055      	str	r5, [r2, #4]
 8007610:	6855      	ldr	r5, [r2, #4]
 8007612:	01ad      	lsls	r5, r5, #6
 8007614:	09ad      	lsrs	r5, r5, #6
 8007616:	6055      	str	r5, [r2, #4]
 8007618:	690d      	ldr	r5, [r1, #16]
 800761a:	2d3e      	cmp	r5, #62	@ 0x3e
 800761c:	d843      	bhi.n	80076a6 <USB_ActivateEndpoint+0x1ee>
 800761e:	2d00      	cmp	r5, #0
 8007620:	d16b      	bne.n	80076fa <USB_ActivateEndpoint+0x242>
 8007622:	2180      	movs	r1, #128	@ 0x80
 8007624:	6855      	ldr	r5, [r2, #4]
 8007626:	0609      	lsls	r1, r1, #24
 8007628:	4329      	orrs	r1, r5
 800762a:	6051      	str	r1, [r2, #4]
 800762c:	681a      	ldr	r2, [r3, #0]
 800762e:	0452      	lsls	r2, r2, #17
 8007630:	d505      	bpl.n	800763e <USB_ActivateEndpoint+0x186>
 8007632:	6819      	ldr	r1, [r3, #0]
 8007634:	4a37      	ldr	r2, [pc, #220]	@ (8007714 <USB_ActivateEndpoint+0x25c>)
 8007636:	4011      	ands	r1, r2
 8007638:	4a39      	ldr	r2, [pc, #228]	@ (8007720 <USB_ActivateEndpoint+0x268>)
 800763a:	430a      	orrs	r2, r1
 800763c:	601a      	str	r2, [r3, #0]
 800763e:	4939      	ldr	r1, [pc, #228]	@ (8007724 <USB_ActivateEndpoint+0x26c>)
 8007640:	681a      	ldr	r2, [r3, #0]
 8007642:	400a      	ands	r2, r1
 8007644:	21c0      	movs	r1, #192	@ 0xc0
 8007646:	2c00      	cmp	r4, #0
 8007648:	d000      	beq.n	800764c <USB_ActivateEndpoint+0x194>
 800764a:	2180      	movs	r1, #128	@ 0x80
 800764c:	0189      	lsls	r1, r1, #6
 800764e:	4051      	eors	r1, r2
 8007650:	4a2f      	ldr	r2, [pc, #188]	@ (8007710 <USB_ActivateEndpoint+0x258>)
 8007652:	430a      	orrs	r2, r1
 8007654:	601a      	str	r2, [r3, #0]
 8007656:	e78c      	b.n	8007572 <USB_ActivateEndpoint+0xba>
 8007658:	681a      	ldr	r2, [r3, #0]
 800765a:	0452      	lsls	r2, r2, #17
 800765c:	d505      	bpl.n	800766a <USB_ActivateEndpoint+0x1b2>
 800765e:	6819      	ldr	r1, [r3, #0]
 8007660:	4a2c      	ldr	r2, [pc, #176]	@ (8007714 <USB_ActivateEndpoint+0x25c>)
 8007662:	4011      	ands	r1, r2
 8007664:	4a2e      	ldr	r2, [pc, #184]	@ (8007720 <USB_ActivateEndpoint+0x268>)
 8007666:	430a      	orrs	r2, r1
 8007668:	601a      	str	r2, [r3, #0]
 800766a:	681a      	ldr	r2, [r3, #0]
 800766c:	0652      	lsls	r2, r2, #25
 800766e:	d505      	bpl.n	800767c <USB_ActivateEndpoint+0x1c4>
 8007670:	6819      	ldr	r1, [r3, #0]
 8007672:	4a28      	ldr	r2, [pc, #160]	@ (8007714 <USB_ActivateEndpoint+0x25c>)
 8007674:	4011      	ands	r1, r2
 8007676:	4a2d      	ldr	r2, [pc, #180]	@ (800772c <USB_ActivateEndpoint+0x274>)
 8007678:	430a      	orrs	r2, r1
 800767a:	601a      	str	r2, [r3, #0]
 800767c:	2d01      	cmp	r5, #1
 800767e:	d02e      	beq.n	80076de <USB_ActivateEndpoint+0x226>
 8007680:	681a      	ldr	r2, [r3, #0]
 8007682:	4929      	ldr	r1, [pc, #164]	@ (8007728 <USB_ActivateEndpoint+0x270>)
 8007684:	400a      	ands	r2, r1
 8007686:	2120      	movs	r1, #32
 8007688:	404a      	eors	r2, r1
 800768a:	4921      	ldr	r1, [pc, #132]	@ (8007710 <USB_ActivateEndpoint+0x258>)
 800768c:	430a      	orrs	r2, r1
 800768e:	601a      	str	r2, [r3, #0]
 8007690:	6819      	ldr	r1, [r3, #0]
 8007692:	4a24      	ldr	r2, [pc, #144]	@ (8007724 <USB_ActivateEndpoint+0x26c>)
 8007694:	4011      	ands	r1, r2
 8007696:	4a1e      	ldr	r2, [pc, #120]	@ (8007710 <USB_ActivateEndpoint+0x258>)
 8007698:	430a      	orrs	r2, r1
 800769a:	601a      	str	r2, [r3, #0]
 800769c:	e769      	b.n	8007572 <USB_ActivateEndpoint+0xba>
 800769e:	2080      	movs	r0, #128	@ 0x80
 80076a0:	0080      	lsls	r0, r0, #2
 80076a2:	4302      	orrs	r2, r0
 80076a4:	e71a      	b.n	80074dc <USB_ActivateEndpoint+0x24>
 80076a6:	261f      	movs	r6, #31
 80076a8:	0969      	lsrs	r1, r5, #5
 80076aa:	4035      	ands	r5, r6
 80076ac:	426e      	negs	r6, r5
 80076ae:	4175      	adcs	r5, r6
 80076b0:	1b49      	subs	r1, r1, r5
 80076b2:	6855      	ldr	r5, [r2, #4]
 80076b4:	0689      	lsls	r1, r1, #26
 80076b6:	4329      	orrs	r1, r5
 80076b8:	2580      	movs	r5, #128	@ 0x80
 80076ba:	062d      	lsls	r5, r5, #24
 80076bc:	4329      	orrs	r1, r5
 80076be:	6051      	str	r1, [r2, #4]
 80076c0:	e7b4      	b.n	800762c <USB_ActivateEndpoint+0x174>
 80076c2:	6819      	ldr	r1, [r3, #0]
 80076c4:	4a13      	ldr	r2, [pc, #76]	@ (8007714 <USB_ActivateEndpoint+0x25c>)
 80076c6:	4011      	ands	r1, r2
 80076c8:	4a18      	ldr	r2, [pc, #96]	@ (800772c <USB_ActivateEndpoint+0x274>)
 80076ca:	430a      	orrs	r2, r1
 80076cc:	601a      	str	r2, [r3, #0]
 80076ce:	e742      	b.n	8007556 <USB_ActivateEndpoint+0x9e>
 80076d0:	6818      	ldr	r0, [r3, #0]
 80076d2:	4a17      	ldr	r2, [pc, #92]	@ (8007730 <USB_ActivateEndpoint+0x278>)
 80076d4:	4030      	ands	r0, r6
 80076d6:	4302      	orrs	r2, r0
 80076d8:	601a      	str	r2, [r3, #0]
 80076da:	2000      	movs	r0, #0
 80076dc:	e712      	b.n	8007504 <USB_ActivateEndpoint+0x4c>
 80076de:	6819      	ldr	r1, [r3, #0]
 80076e0:	4a11      	ldr	r2, [pc, #68]	@ (8007728 <USB_ActivateEndpoint+0x270>)
 80076e2:	4011      	ands	r1, r2
 80076e4:	4a0a      	ldr	r2, [pc, #40]	@ (8007710 <USB_ActivateEndpoint+0x258>)
 80076e6:	430a      	orrs	r2, r1
 80076e8:	601a      	str	r2, [r3, #0]
 80076ea:	e7d1      	b.n	8007690 <USB_ActivateEndpoint+0x1d8>
 80076ec:	6819      	ldr	r1, [r3, #0]
 80076ee:	4a0e      	ldr	r2, [pc, #56]	@ (8007728 <USB_ActivateEndpoint+0x270>)
 80076f0:	4011      	ands	r1, r2
 80076f2:	4a07      	ldr	r2, [pc, #28]	@ (8007710 <USB_ActivateEndpoint+0x258>)
 80076f4:	430a      	orrs	r2, r1
 80076f6:	601a      	str	r2, [r3, #0]
 80076f8:	e73b      	b.n	8007572 <USB_ActivateEndpoint+0xba>
 80076fa:	2601      	movs	r6, #1
 80076fc:	0869      	lsrs	r1, r5, #1
 80076fe:	4035      	ands	r5, r6
 8007700:	1949      	adds	r1, r1, r5
 8007702:	6855      	ldr	r5, [r2, #4]
 8007704:	0689      	lsls	r1, r1, #26
 8007706:	4329      	orrs	r1, r5
 8007708:	6051      	str	r1, [r2, #4]
 800770a:	e78f      	b.n	800762c <USB_ActivateEndpoint+0x174>
 800770c:	07ff898f 	.word	0x07ff898f
 8007710:	00008080 	.word	0x00008080
 8007714:	07ff8f8f 	.word	0x07ff8f8f
 8007718:	07ff8e8f 	.word	0x07ff8e8f
 800771c:	40009800 	.word	0x40009800
 8007720:	0000c080 	.word	0x0000c080
 8007724:	07ffbf8f 	.word	0x07ffbf8f
 8007728:	07ff8fbf 	.word	0x07ff8fbf
 800772c:	000080c0 	.word	0x000080c0
 8007730:	00008180 	.word	0x00008180

08007734 <USB_DeactivateEndpoint>:
 8007734:	780b      	ldrb	r3, [r1, #0]
 8007736:	784a      	ldrb	r2, [r1, #1]
 8007738:	009b      	lsls	r3, r3, #2
 800773a:	7b09      	ldrb	r1, [r1, #12]
 800773c:	18c0      	adds	r0, r0, r3
 800773e:	6803      	ldr	r3, [r0, #0]
 8007740:	2900      	cmp	r1, #0
 8007742:	d10b      	bne.n	800775c <USB_DeactivateEndpoint+0x28>
 8007744:	2a00      	cmp	r2, #0
 8007746:	d051      	beq.n	80077ec <USB_DeactivateEndpoint+0xb8>
 8007748:	065b      	lsls	r3, r3, #25
 800774a:	d45e      	bmi.n	800780a <USB_DeactivateEndpoint+0xd6>
 800774c:	6802      	ldr	r2, [r0, #0]
 800774e:	4b32      	ldr	r3, [pc, #200]	@ (8007818 <USB_DeactivateEndpoint+0xe4>)
 8007750:	401a      	ands	r2, r3
 8007752:	4b32      	ldr	r3, [pc, #200]	@ (800781c <USB_DeactivateEndpoint+0xe8>)
 8007754:	4313      	orrs	r3, r2
 8007756:	6003      	str	r3, [r0, #0]
 8007758:	2000      	movs	r0, #0
 800775a:	4770      	bx	lr
 800775c:	2a00      	cmp	r2, #0
 800775e:	d122      	bne.n	80077a6 <USB_DeactivateEndpoint+0x72>
 8007760:	045b      	lsls	r3, r3, #17
 8007762:	d505      	bpl.n	8007770 <USB_DeactivateEndpoint+0x3c>
 8007764:	6802      	ldr	r2, [r0, #0]
 8007766:	4b2e      	ldr	r3, [pc, #184]	@ (8007820 <USB_DeactivateEndpoint+0xec>)
 8007768:	401a      	ands	r2, r3
 800776a:	4b2e      	ldr	r3, [pc, #184]	@ (8007824 <USB_DeactivateEndpoint+0xf0>)
 800776c:	4313      	orrs	r3, r2
 800776e:	6003      	str	r3, [r0, #0]
 8007770:	6803      	ldr	r3, [r0, #0]
 8007772:	065b      	lsls	r3, r3, #25
 8007774:	d505      	bpl.n	8007782 <USB_DeactivateEndpoint+0x4e>
 8007776:	6802      	ldr	r2, [r0, #0]
 8007778:	4b29      	ldr	r3, [pc, #164]	@ (8007820 <USB_DeactivateEndpoint+0xec>)
 800777a:	401a      	ands	r2, r3
 800777c:	4b2a      	ldr	r3, [pc, #168]	@ (8007828 <USB_DeactivateEndpoint+0xf4>)
 800777e:	4313      	orrs	r3, r2
 8007780:	6003      	str	r3, [r0, #0]
 8007782:	6802      	ldr	r2, [r0, #0]
 8007784:	4b26      	ldr	r3, [pc, #152]	@ (8007820 <USB_DeactivateEndpoint+0xec>)
 8007786:	4924      	ldr	r1, [pc, #144]	@ (8007818 <USB_DeactivateEndpoint+0xe4>)
 8007788:	401a      	ands	r2, r3
 800778a:	4b27      	ldr	r3, [pc, #156]	@ (8007828 <USB_DeactivateEndpoint+0xf4>)
 800778c:	4313      	orrs	r3, r2
 800778e:	6003      	str	r3, [r0, #0]
 8007790:	6803      	ldr	r3, [r0, #0]
 8007792:	4a26      	ldr	r2, [pc, #152]	@ (800782c <USB_DeactivateEndpoint+0xf8>)
 8007794:	4013      	ands	r3, r2
 8007796:	4a21      	ldr	r2, [pc, #132]	@ (800781c <USB_DeactivateEndpoint+0xe8>)
 8007798:	4313      	orrs	r3, r2
 800779a:	6003      	str	r3, [r0, #0]
 800779c:	6803      	ldr	r3, [r0, #0]
 800779e:	400b      	ands	r3, r1
 80077a0:	431a      	orrs	r2, r3
 80077a2:	6002      	str	r2, [r0, #0]
 80077a4:	e7d8      	b.n	8007758 <USB_DeactivateEndpoint+0x24>
 80077a6:	045b      	lsls	r3, r3, #17
 80077a8:	d505      	bpl.n	80077b6 <USB_DeactivateEndpoint+0x82>
 80077aa:	6802      	ldr	r2, [r0, #0]
 80077ac:	4b1c      	ldr	r3, [pc, #112]	@ (8007820 <USB_DeactivateEndpoint+0xec>)
 80077ae:	401a      	ands	r2, r3
 80077b0:	4b1c      	ldr	r3, [pc, #112]	@ (8007824 <USB_DeactivateEndpoint+0xf0>)
 80077b2:	4313      	orrs	r3, r2
 80077b4:	6003      	str	r3, [r0, #0]
 80077b6:	6803      	ldr	r3, [r0, #0]
 80077b8:	065b      	lsls	r3, r3, #25
 80077ba:	d505      	bpl.n	80077c8 <USB_DeactivateEndpoint+0x94>
 80077bc:	6802      	ldr	r2, [r0, #0]
 80077be:	4b18      	ldr	r3, [pc, #96]	@ (8007820 <USB_DeactivateEndpoint+0xec>)
 80077c0:	401a      	ands	r2, r3
 80077c2:	4b19      	ldr	r3, [pc, #100]	@ (8007828 <USB_DeactivateEndpoint+0xf4>)
 80077c4:	4313      	orrs	r3, r2
 80077c6:	6003      	str	r3, [r0, #0]
 80077c8:	6802      	ldr	r2, [r0, #0]
 80077ca:	4b15      	ldr	r3, [pc, #84]	@ (8007820 <USB_DeactivateEndpoint+0xec>)
 80077cc:	4917      	ldr	r1, [pc, #92]	@ (800782c <USB_DeactivateEndpoint+0xf8>)
 80077ce:	401a      	ands	r2, r3
 80077d0:	4b14      	ldr	r3, [pc, #80]	@ (8007824 <USB_DeactivateEndpoint+0xf0>)
 80077d2:	4313      	orrs	r3, r2
 80077d4:	6003      	str	r3, [r0, #0]
 80077d6:	6803      	ldr	r3, [r0, #0]
 80077d8:	4a0f      	ldr	r2, [pc, #60]	@ (8007818 <USB_DeactivateEndpoint+0xe4>)
 80077da:	4013      	ands	r3, r2
 80077dc:	4a0f      	ldr	r2, [pc, #60]	@ (800781c <USB_DeactivateEndpoint+0xe8>)
 80077de:	4313      	orrs	r3, r2
 80077e0:	6003      	str	r3, [r0, #0]
 80077e2:	6803      	ldr	r3, [r0, #0]
 80077e4:	400b      	ands	r3, r1
 80077e6:	431a      	orrs	r2, r3
 80077e8:	6002      	str	r2, [r0, #0]
 80077ea:	e7b5      	b.n	8007758 <USB_DeactivateEndpoint+0x24>
 80077ec:	045b      	lsls	r3, r3, #17
 80077ee:	d505      	bpl.n	80077fc <USB_DeactivateEndpoint+0xc8>
 80077f0:	6802      	ldr	r2, [r0, #0]
 80077f2:	4b0b      	ldr	r3, [pc, #44]	@ (8007820 <USB_DeactivateEndpoint+0xec>)
 80077f4:	401a      	ands	r2, r3
 80077f6:	4b0b      	ldr	r3, [pc, #44]	@ (8007824 <USB_DeactivateEndpoint+0xf0>)
 80077f8:	4313      	orrs	r3, r2
 80077fa:	6003      	str	r3, [r0, #0]
 80077fc:	6802      	ldr	r2, [r0, #0]
 80077fe:	4b0b      	ldr	r3, [pc, #44]	@ (800782c <USB_DeactivateEndpoint+0xf8>)
 8007800:	401a      	ands	r2, r3
 8007802:	4b06      	ldr	r3, [pc, #24]	@ (800781c <USB_DeactivateEndpoint+0xe8>)
 8007804:	4313      	orrs	r3, r2
 8007806:	6003      	str	r3, [r0, #0]
 8007808:	e7a6      	b.n	8007758 <USB_DeactivateEndpoint+0x24>
 800780a:	6802      	ldr	r2, [r0, #0]
 800780c:	4b04      	ldr	r3, [pc, #16]	@ (8007820 <USB_DeactivateEndpoint+0xec>)
 800780e:	401a      	ands	r2, r3
 8007810:	4b05      	ldr	r3, [pc, #20]	@ (8007828 <USB_DeactivateEndpoint+0xf4>)
 8007812:	4313      	orrs	r3, r2
 8007814:	6003      	str	r3, [r0, #0]
 8007816:	e799      	b.n	800774c <USB_DeactivateEndpoint+0x18>
 8007818:	07ff8fbf 	.word	0x07ff8fbf
 800781c:	00008080 	.word	0x00008080
 8007820:	07ff8f8f 	.word	0x07ff8f8f
 8007824:	0000c080 	.word	0x0000c080
 8007828:	000080c0 	.word	0x000080c0
 800782c:	07ffbf8f 	.word	0x07ffbf8f

08007830 <USB_EPStartXfer>:
 8007830:	b5f0      	push	{r4, r5, r6, r7, lr}
 8007832:	46de      	mov	lr, fp
 8007834:	4657      	mov	r7, sl
 8007836:	464e      	mov	r6, r9
 8007838:	4645      	mov	r5, r8
 800783a:	b5e0      	push	{r5, r6, r7, lr}
 800783c:	b087      	sub	sp, #28
 800783e:	9001      	str	r0, [sp, #4]
 8007840:	784b      	ldrb	r3, [r1, #1]
 8007842:	7b0c      	ldrb	r4, [r1, #12]
 8007844:	2b01      	cmp	r3, #1
 8007846:	d05d      	beq.n	8007904 <USB_EPStartXfer+0xd4>
 8007848:	2c00      	cmp	r4, #0
 800784a:	d02c      	beq.n	80078a6 <USB_EPStartXfer+0x76>
 800784c:	78cc      	ldrb	r4, [r1, #3]
 800784e:	2c02      	cmp	r4, #2
 8007850:	d100      	bne.n	8007854 <USB_EPStartXfer+0x24>
 8007852:	e1da      	b.n	8007c0a <USB_EPStartXfer+0x3da>
 8007854:	2001      	movs	r0, #1
 8007856:	2c01      	cmp	r4, #1
 8007858:	d14d      	bne.n	80078f6 <USB_EPStartXfer+0xc6>
 800785a:	6988      	ldr	r0, [r1, #24]
 800785c:	690c      	ldr	r4, [r1, #16]
 800785e:	2500      	movs	r5, #0
 8007860:	42a0      	cmp	r0, r4
 8007862:	d901      	bls.n	8007868 <USB_EPStartXfer+0x38>
 8007864:	1b05      	subs	r5, r0, r4
 8007866:	0020      	movs	r0, r4
 8007868:	618d      	str	r5, [r1, #24]
 800786a:	780d      	ldrb	r5, [r1, #0]
 800786c:	2b00      	cmp	r3, #0
 800786e:	d135      	bne.n	80078dc <USB_EPStartXfer+0xac>
 8007870:	4b81      	ldr	r3, [pc, #516]	@ (8007a78 <USB_EPStartXfer+0x248>)
 8007872:	00e9      	lsls	r1, r5, #3
 8007874:	469c      	mov	ip, r3
 8007876:	4461      	add	r1, ip
 8007878:	680b      	ldr	r3, [r1, #0]
 800787a:	019b      	lsls	r3, r3, #6
 800787c:	099b      	lsrs	r3, r3, #6
 800787e:	600b      	str	r3, [r1, #0]
 8007880:	283e      	cmp	r0, #62	@ 0x3e
 8007882:	d900      	bls.n	8007886 <USB_EPStartXfer+0x56>
 8007884:	e263      	b.n	8007d4e <USB_EPStartXfer+0x51e>
 8007886:	2800      	cmp	r0, #0
 8007888:	d000      	beq.n	800788c <USB_EPStartXfer+0x5c>
 800788a:	e369      	b.n	8007f60 <USB_EPStartXfer+0x730>
 800788c:	2080      	movs	r0, #128	@ 0x80
 800788e:	680b      	ldr	r3, [r1, #0]
 8007890:	0600      	lsls	r0, r0, #24
 8007892:	4303      	orrs	r3, r0
 8007894:	600b      	str	r3, [r1, #0]
 8007896:	684b      	ldr	r3, [r1, #4]
 8007898:	019b      	lsls	r3, r3, #6
 800789a:	099b      	lsrs	r3, r3, #6
 800789c:	604b      	str	r3, [r1, #4]
 800789e:	684b      	ldr	r3, [r1, #4]
 80078a0:	4318      	orrs	r0, r3
 80078a2:	6048      	str	r0, [r1, #4]
 80078a4:	e01a      	b.n	80078dc <USB_EPStartXfer+0xac>
 80078a6:	6988      	ldr	r0, [r1, #24]
 80078a8:	690b      	ldr	r3, [r1, #16]
 80078aa:	4298      	cmp	r0, r3
 80078ac:	d901      	bls.n	80078b2 <USB_EPStartXfer+0x82>
 80078ae:	1ac4      	subs	r4, r0, r3
 80078b0:	0018      	movs	r0, r3
 80078b2:	4a71      	ldr	r2, [pc, #452]	@ (8007a78 <USB_EPStartXfer+0x248>)
 80078b4:	780d      	ldrb	r5, [r1, #0]
 80078b6:	4694      	mov	ip, r2
 80078b8:	00eb      	lsls	r3, r5, #3
 80078ba:	4463      	add	r3, ip
 80078bc:	618c      	str	r4, [r1, #24]
 80078be:	6859      	ldr	r1, [r3, #4]
 80078c0:	0189      	lsls	r1, r1, #6
 80078c2:	0989      	lsrs	r1, r1, #6
 80078c4:	6059      	str	r1, [r3, #4]
 80078c6:	283e      	cmp	r0, #62	@ 0x3e
 80078c8:	d900      	bls.n	80078cc <USB_EPStartXfer+0x9c>
 80078ca:	e0c6      	b.n	8007a5a <USB_EPStartXfer+0x22a>
 80078cc:	2800      	cmp	r0, #0
 80078ce:	d000      	beq.n	80078d2 <USB_EPStartXfer+0xa2>
 80078d0:	e1e2      	b.n	8007c98 <USB_EPStartXfer+0x468>
 80078d2:	2180      	movs	r1, #128	@ 0x80
 80078d4:	6858      	ldr	r0, [r3, #4]
 80078d6:	0609      	lsls	r1, r1, #24
 80078d8:	4301      	orrs	r1, r0
 80078da:	6059      	str	r1, [r3, #4]
 80078dc:	9b01      	ldr	r3, [sp, #4]
 80078de:	00ad      	lsls	r5, r5, #2
 80078e0:	195a      	adds	r2, r3, r5
 80078e2:	6813      	ldr	r3, [r2, #0]
 80078e4:	4965      	ldr	r1, [pc, #404]	@ (8007a7c <USB_EPStartXfer+0x24c>)
 80078e6:	2000      	movs	r0, #0
 80078e8:	400b      	ands	r3, r1
 80078ea:	21c0      	movs	r1, #192	@ 0xc0
 80078ec:	0189      	lsls	r1, r1, #6
 80078ee:	4059      	eors	r1, r3
 80078f0:	4b63      	ldr	r3, [pc, #396]	@ (8007a80 <USB_EPStartXfer+0x250>)
 80078f2:	430b      	orrs	r3, r1
 80078f4:	6013      	str	r3, [r2, #0]
 80078f6:	b007      	add	sp, #28
 80078f8:	bcf0      	pop	{r4, r5, r6, r7}
 80078fa:	46bb      	mov	fp, r7
 80078fc:	46b2      	mov	sl, r6
 80078fe:	46a9      	mov	r9, r5
 8007900:	46a0      	mov	r8, r4
 8007902:	bdf0      	pop	{r4, r5, r6, r7, pc}
 8007904:	690f      	ldr	r7, [r1, #16]
 8007906:	6988      	ldr	r0, [r1, #24]
 8007908:	42b8      	cmp	r0, r7
 800790a:	d85b      	bhi.n	80079c4 <USB_EPStartXfer+0x194>
 800790c:	694b      	ldr	r3, [r1, #20]
 800790e:	2c00      	cmp	r4, #0
 8007910:	d05c      	beq.n	80079cc <USB_EPStartXfer+0x19c>
 8007912:	6a0a      	ldr	r2, [r1, #32]
 8007914:	780d      	ldrb	r5, [r1, #0]
 8007916:	4694      	mov	ip, r2
 8007918:	4a57      	ldr	r2, [pc, #348]	@ (8007a78 <USB_EPStartXfer+0x248>)
 800791a:	00ec      	lsls	r4, r5, #3
 800791c:	4690      	mov	r8, r2
 800791e:	78ca      	ldrb	r2, [r1, #3]
 8007920:	00ae      	lsls	r6, r5, #2
 8007922:	4444      	add	r4, r8
 8007924:	2a02      	cmp	r2, #2
 8007926:	d100      	bne.n	800792a <USB_EPStartXfer+0xfa>
 8007928:	e0ae      	b.n	8007a88 <USB_EPStartXfer+0x258>
 800792a:	4662      	mov	r2, ip
 800792c:	1a17      	subs	r7, r2, r0
 800792e:	9a01      	ldr	r2, [sp, #4]
 8007930:	620f      	str	r7, [r1, #32]
 8007932:	4694      	mov	ip, r2
 8007934:	0402      	lsls	r2, r0, #16
 8007936:	4466      	add	r6, ip
 8007938:	6837      	ldr	r7, [r6, #0]
 800793a:	0c16      	lsrs	r6, r2, #16
 800793c:	3603      	adds	r6, #3
 800793e:	4690      	mov	r8, r2
 8007940:	08b2      	lsrs	r2, r6, #2
 8007942:	2603      	movs	r6, #3
 8007944:	4694      	mov	ip, r2
 8007946:	4006      	ands	r6, r0
 8007948:	067f      	lsls	r7, r7, #25
 800794a:	d400      	bmi.n	800794e <USB_EPStartXfer+0x11e>
 800794c:	e1ad      	b.n	8007caa <USB_EPStartXfer+0x47a>
 800794e:	4642      	mov	r2, r8
 8007950:	6860      	ldr	r0, [r4, #4]
 8007952:	0400      	lsls	r0, r0, #16
 8007954:	0c00      	lsrs	r0, r0, #16
 8007956:	6060      	str	r0, [r4, #4]
 8007958:	6860      	ldr	r0, [r4, #4]
 800795a:	4310      	orrs	r0, r2
 800795c:	4a46      	ldr	r2, [pc, #280]	@ (8007a78 <USB_EPStartXfer+0x248>)
 800795e:	6060      	str	r0, [r4, #4]
 8007960:	4690      	mov	r8, r2
 8007962:	894f      	ldrh	r7, [r1, #10]
 8007964:	4447      	add	r7, r8
 8007966:	2e00      	cmp	r6, #0
 8007968:	d000      	beq.n	800796c <USB_EPStartXfer+0x13c>
 800796a:	e1d0      	b.n	8007d0e <USB_EPStartXfer+0x4de>
 800796c:	4662      	mov	r2, ip
 800796e:	2a00      	cmp	r2, #0
 8007970:	d065      	beq.n	8007a3e <USB_EPStartXfer+0x20e>
 8007972:	4662      	mov	r2, ip
 8007974:	1afc      	subs	r4, r7, r3
 8007976:	0092      	lsls	r2, r2, #2
 8007978:	4688      	mov	r8, r1
 800797a:	4694      	mov	ip, r2
 800797c:	0021      	movs	r1, r4
 800797e:	189d      	adds	r5, r3, r2
 8007980:	7858      	ldrb	r0, [r3, #1]
 8007982:	781c      	ldrb	r4, [r3, #0]
 8007984:	0200      	lsls	r0, r0, #8
 8007986:	4320      	orrs	r0, r4
 8007988:	789c      	ldrb	r4, [r3, #2]
 800798a:	185a      	adds	r2, r3, r1
 800798c:	0424      	lsls	r4, r4, #16
 800798e:	4304      	orrs	r4, r0
 8007990:	78d8      	ldrb	r0, [r3, #3]
 8007992:	3304      	adds	r3, #4
 8007994:	0600      	lsls	r0, r0, #24
 8007996:	4320      	orrs	r0, r4
 8007998:	6010      	str	r0, [r2, #0]
 800799a:	42ab      	cmp	r3, r5
 800799c:	d1f0      	bne.n	8007980 <USB_EPStartXfer+0x150>
 800799e:	4662      	mov	r2, ip
 80079a0:	4641      	mov	r1, r8
 80079a2:	18bf      	adds	r7, r7, r2
 80079a4:	2e00      	cmp	r6, #0
 80079a6:	d00b      	beq.n	80079c0 <USB_EPStartXfer+0x190>
 80079a8:	782b      	ldrb	r3, [r5, #0]
 80079aa:	2e01      	cmp	r6, #1
 80079ac:	d007      	beq.n	80079be <USB_EPStartXfer+0x18e>
 80079ae:	7868      	ldrb	r0, [r5, #1]
 80079b0:	0200      	lsls	r0, r0, #8
 80079b2:	4303      	orrs	r3, r0
 80079b4:	2e02      	cmp	r6, #2
 80079b6:	d002      	beq.n	80079be <USB_EPStartXfer+0x18e>
 80079b8:	78a8      	ldrb	r0, [r5, #2]
 80079ba:	0400      	lsls	r0, r0, #16
 80079bc:	4303      	orrs	r3, r0
 80079be:	603b      	str	r3, [r7, #0]
 80079c0:	780d      	ldrb	r5, [r1, #0]
 80079c2:	e03c      	b.n	8007a3e <USB_EPStartXfer+0x20e>
 80079c4:	0038      	movs	r0, r7
 80079c6:	694b      	ldr	r3, [r1, #20]
 80079c8:	2c00      	cmp	r4, #0
 80079ca:	d1a2      	bne.n	8007912 <USB_EPStartXfer+0xe2>
 80079cc:	2603      	movs	r6, #3
 80079ce:	4f2a      	ldr	r7, [pc, #168]	@ (8007a78 <USB_EPStartXfer+0x248>)
 80079d0:	0402      	lsls	r2, r0, #16
 80079d2:	0c14      	lsrs	r4, r2, #16
 80079d4:	4694      	mov	ip, r2
 80079d6:	46b8      	mov	r8, r7
 80079d8:	0032      	movs	r2, r6
 80079da:	88cd      	ldrh	r5, [r1, #6]
 80079dc:	3403      	adds	r4, #3
 80079de:	08a4      	lsrs	r4, r4, #2
 80079e0:	4002      	ands	r2, r0
 80079e2:	4445      	add	r5, r8
 80079e4:	4206      	tst	r6, r0
 80079e6:	d000      	beq.n	80079ea <USB_EPStartXfer+0x1ba>
 80079e8:	e144      	b.n	8007c74 <USB_EPStartXfer+0x444>
 80079ea:	2c00      	cmp	r4, #0
 80079ec:	d01a      	beq.n	8007a24 <USB_EPStartXfer+0x1f4>
 80079ee:	1aee      	subs	r6, r5, r3
 80079f0:	4689      	mov	r9, r1
 80079f2:	4690      	mov	r8, r2
 80079f4:	0031      	movs	r1, r6
 80079f6:	00a4      	lsls	r4, r4, #2
 80079f8:	191f      	adds	r7, r3, r4
 80079fa:	7858      	ldrb	r0, [r3, #1]
 80079fc:	781e      	ldrb	r6, [r3, #0]
 80079fe:	0200      	lsls	r0, r0, #8
 8007a00:	4330      	orrs	r0, r6
 8007a02:	789e      	ldrb	r6, [r3, #2]
 8007a04:	185a      	adds	r2, r3, r1
 8007a06:	0436      	lsls	r6, r6, #16
 8007a08:	4306      	orrs	r6, r0
 8007a0a:	78d8      	ldrb	r0, [r3, #3]
 8007a0c:	3304      	adds	r3, #4
 8007a0e:	0600      	lsls	r0, r0, #24
 8007a10:	4330      	orrs	r0, r6
 8007a12:	6010      	str	r0, [r2, #0]
 8007a14:	429f      	cmp	r7, r3
 8007a16:	d1f0      	bne.n	80079fa <USB_EPStartXfer+0x1ca>
 8007a18:	4642      	mov	r2, r8
 8007a1a:	4649      	mov	r1, r9
 8007a1c:	192d      	adds	r5, r5, r4
 8007a1e:	2a00      	cmp	r2, #0
 8007a20:	d000      	beq.n	8007a24 <USB_EPStartXfer+0x1f4>
 8007a22:	e12c      	b.n	8007c7e <USB_EPStartXfer+0x44e>
 8007a24:	4a14      	ldr	r2, [pc, #80]	@ (8007a78 <USB_EPStartXfer+0x248>)
 8007a26:	4666      	mov	r6, ip
 8007a28:	4690      	mov	r8, r2
 8007a2a:	780d      	ldrb	r5, [r1, #0]
 8007a2c:	00eb      	lsls	r3, r5, #3
 8007a2e:	4443      	add	r3, r8
 8007a30:	6819      	ldr	r1, [r3, #0]
 8007a32:	0409      	lsls	r1, r1, #16
 8007a34:	0c09      	lsrs	r1, r1, #16
 8007a36:	6019      	str	r1, [r3, #0]
 8007a38:	6819      	ldr	r1, [r3, #0]
 8007a3a:	430e      	orrs	r6, r1
 8007a3c:	601e      	str	r6, [r3, #0]
 8007a3e:	9b01      	ldr	r3, [sp, #4]
 8007a40:	00ad      	lsls	r5, r5, #2
 8007a42:	469c      	mov	ip, r3
 8007a44:	4465      	add	r5, ip
 8007a46:	682b      	ldr	r3, [r5, #0]
 8007a48:	4a0e      	ldr	r2, [pc, #56]	@ (8007a84 <USB_EPStartXfer+0x254>)
 8007a4a:	2000      	movs	r0, #0
 8007a4c:	4013      	ands	r3, r2
 8007a4e:	2230      	movs	r2, #48	@ 0x30
 8007a50:	4053      	eors	r3, r2
 8007a52:	4a0b      	ldr	r2, [pc, #44]	@ (8007a80 <USB_EPStartXfer+0x250>)
 8007a54:	4313      	orrs	r3, r2
 8007a56:	602b      	str	r3, [r5, #0]
 8007a58:	e74d      	b.n	80078f6 <USB_EPStartXfer+0xc6>
 8007a5a:	241f      	movs	r4, #31
 8007a5c:	0941      	lsrs	r1, r0, #5
 8007a5e:	4020      	ands	r0, r4
 8007a60:	4244      	negs	r4, r0
 8007a62:	4160      	adcs	r0, r4
 8007a64:	1a09      	subs	r1, r1, r0
 8007a66:	6858      	ldr	r0, [r3, #4]
 8007a68:	0689      	lsls	r1, r1, #26
 8007a6a:	4301      	orrs	r1, r0
 8007a6c:	2080      	movs	r0, #128	@ 0x80
 8007a6e:	0600      	lsls	r0, r0, #24
 8007a70:	4301      	orrs	r1, r0
 8007a72:	6059      	str	r1, [r3, #4]
 8007a74:	e732      	b.n	80078dc <USB_EPStartXfer+0xac>
 8007a76:	46c0      	nop			@ (mov r8, r8)
 8007a78:	40009800 	.word	0x40009800
 8007a7c:	07ffbf8f 	.word	0x07ffbf8f
 8007a80:	00008080 	.word	0x00008080
 8007a84:	07ff8fbf 	.word	0x07ff8fbf
 8007a88:	46c2      	mov	sl, r8
 8007a8a:	890d      	ldrh	r5, [r1, #8]
 8007a8c:	9a01      	ldr	r2, [sp, #4]
 8007a8e:	44aa      	add	sl, r5
 8007a90:	4567      	cmp	r7, ip
 8007a92:	d300      	bcc.n	8007a96 <USB_EPStartXfer+0x266>
 8007a94:	e213      	b.n	8007ebe <USB_EPStartXfer+0x68e>
 8007a96:	4694      	mov	ip, r2
 8007a98:	4466      	add	r6, ip
 8007a9a:	6837      	ldr	r7, [r6, #0]
 8007a9c:	4db7      	ldr	r5, [pc, #732]	@ (8007d7c <USB_EPStartXfer+0x54c>)
 8007a9e:	402f      	ands	r7, r5
 8007aa0:	4db7      	ldr	r5, [pc, #732]	@ (8007d80 <USB_EPStartXfer+0x550>)
 8007aa2:	433d      	orrs	r5, r7
 8007aa4:	6035      	str	r5, [r6, #0]
 8007aa6:	6a0d      	ldr	r5, [r1, #32]
 8007aa8:	1a2d      	subs	r5, r5, r0
 8007aaa:	620d      	str	r5, [r1, #32]
 8007aac:	6832      	ldr	r2, [r6, #0]
 8007aae:	4690      	mov	r8, r2
 8007ab0:	2240      	movs	r2, #64	@ 0x40
 8007ab2:	4691      	mov	r9, r2
 8007ab4:	4642      	mov	r2, r8
 8007ab6:	464e      	mov	r6, r9
 8007ab8:	4032      	ands	r2, r6
 8007aba:	9203      	str	r2, [sp, #12]
 8007abc:	0402      	lsls	r2, r0, #16
 8007abe:	894e      	ldrh	r6, [r1, #10]
 8007ac0:	4693      	mov	fp, r2
 8007ac2:	4ab0      	ldr	r2, [pc, #704]	@ (8007d84 <USB_EPStartXfer+0x554>)
 8007ac4:	4694      	mov	ip, r2
 8007ac6:	0032      	movs	r2, r6
 8007ac8:	4462      	add	r2, ip
 8007aca:	9202      	str	r2, [sp, #8]
 8007acc:	465a      	mov	r2, fp
 8007ace:	0c17      	lsrs	r7, r2, #16
 8007ad0:	2203      	movs	r2, #3
 8007ad2:	4002      	ands	r2, r0
 8007ad4:	4694      	mov	ip, r2
 8007ad6:	4646      	mov	r6, r8
 8007ad8:	464a      	mov	r2, r9
 8007ada:	3703      	adds	r7, #3
 8007adc:	08bf      	lsrs	r7, r7, #2
 8007ade:	4232      	tst	r2, r6
 8007ae0:	d100      	bne.n	8007ae4 <USB_EPStartXfer+0x2b4>
 8007ae2:	e155      	b.n	8007d90 <USB_EPStartXfer+0x560>
 8007ae4:	465e      	mov	r6, fp
 8007ae6:	6862      	ldr	r2, [r4, #4]
 8007ae8:	0412      	lsls	r2, r2, #16
 8007aea:	0c12      	lsrs	r2, r2, #16
 8007aec:	6062      	str	r2, [r4, #4]
 8007aee:	6862      	ldr	r2, [r4, #4]
 8007af0:	4332      	orrs	r2, r6
 8007af2:	6062      	str	r2, [r4, #4]
 8007af4:	4662      	mov	r2, ip
 8007af6:	2a00      	cmp	r2, #0
 8007af8:	d000      	beq.n	8007afc <USB_EPStartXfer+0x2cc>
 8007afa:	e241      	b.n	8007f80 <USB_EPStartXfer+0x750>
 8007afc:	46b8      	mov	r8, r7
 8007afe:	2f00      	cmp	r7, #0
 8007b00:	d03b      	beq.n	8007b7a <USB_EPStartXfer+0x34a>
 8007b02:	4642      	mov	r2, r8
 8007b04:	0092      	lsls	r2, r2, #2
 8007b06:	4690      	mov	r8, r2
 8007b08:	001d      	movs	r5, r3
 8007b0a:	9204      	str	r2, [sp, #16]
 8007b0c:	9a02      	ldr	r2, [sp, #8]
 8007b0e:	4498      	add	r8, r3
 8007b10:	1ad2      	subs	r2, r2, r3
 8007b12:	4689      	mov	r9, r1
 8007b14:	4643      	mov	r3, r8
 8007b16:	0011      	movs	r1, r2
 8007b18:	46a8      	mov	r8, r5
 8007b1a:	9003      	str	r0, [sp, #12]
 8007b1c:	786a      	ldrb	r2, [r5, #1]
 8007b1e:	7828      	ldrb	r0, [r5, #0]
 8007b20:	0212      	lsls	r2, r2, #8
 8007b22:	4302      	orrs	r2, r0
 8007b24:	78a8      	ldrb	r0, [r5, #2]
 8007b26:	186e      	adds	r6, r5, r1
 8007b28:	0400      	lsls	r0, r0, #16
 8007b2a:	4310      	orrs	r0, r2
 8007b2c:	78ea      	ldrb	r2, [r5, #3]
 8007b2e:	3504      	adds	r5, #4
 8007b30:	0612      	lsls	r2, r2, #24
 8007b32:	4302      	orrs	r2, r0
 8007b34:	6032      	str	r2, [r6, #0]
 8007b36:	42ab      	cmp	r3, r5
 8007b38:	d1f0      	bne.n	8007b1c <USB_EPStartXfer+0x2ec>
 8007b3a:	4642      	mov	r2, r8
 8007b3c:	4698      	mov	r8, r3
 8007b3e:	0013      	movs	r3, r2
 8007b40:	4662      	mov	r2, ip
 8007b42:	4649      	mov	r1, r9
 8007b44:	9803      	ldr	r0, [sp, #12]
 8007b46:	2a00      	cmp	r2, #0
 8007b48:	d016      	beq.n	8007b78 <USB_EPStartXfer+0x348>
 8007b4a:	9a04      	ldr	r2, [sp, #16]
 8007b4c:	4691      	mov	r9, r2
 8007b4e:	9a02      	ldr	r2, [sp, #8]
 8007b50:	444a      	add	r2, r9
 8007b52:	9202      	str	r2, [sp, #8]
 8007b54:	4642      	mov	r2, r8
 8007b56:	7815      	ldrb	r5, [r2, #0]
 8007b58:	4662      	mov	r2, ip
 8007b5a:	2a01      	cmp	r2, #1
 8007b5c:	d00a      	beq.n	8007b74 <USB_EPStartXfer+0x344>
 8007b5e:	4642      	mov	r2, r8
 8007b60:	7852      	ldrb	r2, [r2, #1]
 8007b62:	0212      	lsls	r2, r2, #8
 8007b64:	4315      	orrs	r5, r2
 8007b66:	4662      	mov	r2, ip
 8007b68:	2a02      	cmp	r2, #2
 8007b6a:	d003      	beq.n	8007b74 <USB_EPStartXfer+0x344>
 8007b6c:	4642      	mov	r2, r8
 8007b6e:	7892      	ldrb	r2, [r2, #2]
 8007b70:	0412      	lsls	r2, r2, #16
 8007b72:	4315      	orrs	r5, r2
 8007b74:	9a02      	ldr	r2, [sp, #8]
 8007b76:	6015      	str	r5, [r2, #0]
 8007b78:	6a0d      	ldr	r5, [r1, #32]
 8007b7a:	690e      	ldr	r6, [r1, #16]
 8007b7c:	181b      	adds	r3, r3, r0
 8007b7e:	614b      	str	r3, [r1, #20]
 8007b80:	1a28      	subs	r0, r5, r0
 8007b82:	42ae      	cmp	r6, r5
 8007b84:	d308      	bcc.n	8007b98 <USB_EPStartXfer+0x368>
 8007b86:	2003      	movs	r0, #3
 8007b88:	042a      	lsls	r2, r5, #16
 8007b8a:	4028      	ands	r0, r5
 8007b8c:	4684      	mov	ip, r0
 8007b8e:	4693      	mov	fp, r2
 8007b90:	2000      	movs	r0, #0
 8007b92:	0c17      	lsrs	r7, r2, #16
 8007b94:	3703      	adds	r7, #3
 8007b96:	08bf      	lsrs	r7, r7, #2
 8007b98:	465a      	mov	r2, fp
 8007b9a:	6208      	str	r0, [r1, #32]
 8007b9c:	6820      	ldr	r0, [r4, #0]
 8007b9e:	0400      	lsls	r0, r0, #16
 8007ba0:	0c00      	lsrs	r0, r0, #16
 8007ba2:	6020      	str	r0, [r4, #0]
 8007ba4:	6820      	ldr	r0, [r4, #0]
 8007ba6:	4310      	orrs	r0, r2
 8007ba8:	4662      	mov	r2, ip
 8007baa:	6020      	str	r0, [r4, #0]
 8007bac:	2a00      	cmp	r2, #0
 8007bae:	d100      	bne.n	8007bb2 <USB_EPStartXfer+0x382>
 8007bb0:	e1fc      	b.n	8007fac <USB_EPStartXfer+0x77c>
 8007bb2:	3f01      	subs	r7, #1
 8007bb4:	2f00      	cmp	r7, #0
 8007bb6:	d100      	bne.n	8007bba <USB_EPStartXfer+0x38a>
 8007bb8:	e202      	b.n	8007fc0 <USB_EPStartXfer+0x790>
 8007bba:	4652      	mov	r2, sl
 8007bbc:	00bd      	lsls	r5, r7, #2
 8007bbe:	195e      	adds	r6, r3, r5
 8007bc0:	1ad7      	subs	r7, r2, r3
 8007bc2:	785a      	ldrb	r2, [r3, #1]
 8007bc4:	7818      	ldrb	r0, [r3, #0]
 8007bc6:	0212      	lsls	r2, r2, #8
 8007bc8:	4302      	orrs	r2, r0
 8007bca:	7898      	ldrb	r0, [r3, #2]
 8007bcc:	19dc      	adds	r4, r3, r7
 8007bce:	0400      	lsls	r0, r0, #16
 8007bd0:	4310      	orrs	r0, r2
 8007bd2:	78da      	ldrb	r2, [r3, #3]
 8007bd4:	3304      	adds	r3, #4
 8007bd6:	0612      	lsls	r2, r2, #24
 8007bd8:	4302      	orrs	r2, r0
 8007bda:	6022      	str	r2, [r4, #0]
 8007bdc:	42b3      	cmp	r3, r6
 8007bde:	d1f0      	bne.n	8007bc2 <USB_EPStartXfer+0x392>
 8007be0:	4663      	mov	r3, ip
 8007be2:	2b00      	cmp	r3, #0
 8007be4:	d100      	bne.n	8007be8 <USB_EPStartXfer+0x3b8>
 8007be6:	e6eb      	b.n	80079c0 <USB_EPStartXfer+0x190>
 8007be8:	44aa      	add	sl, r5
 8007bea:	4662      	mov	r2, ip
 8007bec:	7833      	ldrb	r3, [r6, #0]
 8007bee:	2a01      	cmp	r2, #1
 8007bf0:	d007      	beq.n	8007c02 <USB_EPStartXfer+0x3d2>
 8007bf2:	7870      	ldrb	r0, [r6, #1]
 8007bf4:	0200      	lsls	r0, r0, #8
 8007bf6:	4303      	orrs	r3, r0
 8007bf8:	2a02      	cmp	r2, #2
 8007bfa:	d002      	beq.n	8007c02 <USB_EPStartXfer+0x3d2>
 8007bfc:	78b0      	ldrb	r0, [r6, #2]
 8007bfe:	0400      	lsls	r0, r0, #16
 8007c00:	4303      	orrs	r3, r0
 8007c02:	4652      	mov	r2, sl
 8007c04:	6013      	str	r3, [r2, #0]
 8007c06:	780d      	ldrb	r5, [r1, #0]
 8007c08:	e719      	b.n	8007a3e <USB_EPStartXfer+0x20e>
 8007c0a:	780d      	ldrb	r5, [r1, #0]
 8007c0c:	2b00      	cmp	r3, #0
 8007c0e:	d119      	bne.n	8007c44 <USB_EPStartXfer+0x414>
 8007c10:	4b5c      	ldr	r3, [pc, #368]	@ (8007d84 <USB_EPStartXfer+0x554>)
 8007c12:	00ec      	lsls	r4, r5, #3
 8007c14:	469c      	mov	ip, r3
 8007c16:	4464      	add	r4, ip
 8007c18:	6823      	ldr	r3, [r4, #0]
 8007c1a:	6908      	ldr	r0, [r1, #16]
 8007c1c:	019b      	lsls	r3, r3, #6
 8007c1e:	099b      	lsrs	r3, r3, #6
 8007c20:	6023      	str	r3, [r4, #0]
 8007c22:	283e      	cmp	r0, #62	@ 0x3e
 8007c24:	d87d      	bhi.n	8007d22 <USB_EPStartXfer+0x4f2>
 8007c26:	2800      	cmp	r0, #0
 8007c28:	d000      	beq.n	8007c2c <USB_EPStartXfer+0x3fc>
 8007c2a:	e189      	b.n	8007f40 <USB_EPStartXfer+0x710>
 8007c2c:	2080      	movs	r0, #128	@ 0x80
 8007c2e:	6823      	ldr	r3, [r4, #0]
 8007c30:	0600      	lsls	r0, r0, #24
 8007c32:	4303      	orrs	r3, r0
 8007c34:	6023      	str	r3, [r4, #0]
 8007c36:	6863      	ldr	r3, [r4, #4]
 8007c38:	019b      	lsls	r3, r3, #6
 8007c3a:	099b      	lsrs	r3, r3, #6
 8007c3c:	6063      	str	r3, [r4, #4]
 8007c3e:	6863      	ldr	r3, [r4, #4]
 8007c40:	4318      	orrs	r0, r3
 8007c42:	6060      	str	r0, [r4, #4]
 8007c44:	69cb      	ldr	r3, [r1, #28]
 8007c46:	2b00      	cmp	r3, #0
 8007c48:	d100      	bne.n	8007c4c <USB_EPStartXfer+0x41c>
 8007c4a:	e647      	b.n	80078dc <USB_EPStartXfer+0xac>
 8007c4c:	9a01      	ldr	r2, [sp, #4]
 8007c4e:	00ab      	lsls	r3, r5, #2
 8007c50:	4694      	mov	ip, r2
 8007c52:	4463      	add	r3, ip
 8007c54:	6818      	ldr	r0, [r3, #0]
 8007c56:	4c4c      	ldr	r4, [pc, #304]	@ (8007d88 <USB_EPStartXfer+0x558>)
 8007c58:	4020      	ands	r0, r4
 8007c5a:	42a0      	cmp	r0, r4
 8007c5c:	d002      	beq.n	8007c64 <USB_EPStartXfer+0x434>
 8007c5e:	2800      	cmp	r0, #0
 8007c60:	d000      	beq.n	8007c64 <USB_EPStartXfer+0x434>
 8007c62:	e63b      	b.n	80078dc <USB_EPStartXfer+0xac>
 8007c64:	681c      	ldr	r4, [r3, #0]
 8007c66:	4845      	ldr	r0, [pc, #276]	@ (8007d7c <USB_EPStartXfer+0x54c>)
 8007c68:	4004      	ands	r4, r0
 8007c6a:	4848      	ldr	r0, [pc, #288]	@ (8007d8c <USB_EPStartXfer+0x55c>)
 8007c6c:	4320      	orrs	r0, r4
 8007c6e:	6018      	str	r0, [r3, #0]
 8007c70:	780d      	ldrb	r5, [r1, #0]
 8007c72:	e633      	b.n	80078dc <USB_EPStartXfer+0xac>
 8007c74:	3c01      	subs	r4, #1
 8007c76:	2c00      	cmp	r4, #0
 8007c78:	d000      	beq.n	8007c7c <USB_EPStartXfer+0x44c>
 8007c7a:	e6b8      	b.n	80079ee <USB_EPStartXfer+0x1be>
 8007c7c:	001f      	movs	r7, r3
 8007c7e:	783b      	ldrb	r3, [r7, #0]
 8007c80:	2a01      	cmp	r2, #1
 8007c82:	d007      	beq.n	8007c94 <USB_EPStartXfer+0x464>
 8007c84:	7878      	ldrb	r0, [r7, #1]
 8007c86:	0200      	lsls	r0, r0, #8
 8007c88:	4303      	orrs	r3, r0
 8007c8a:	2a02      	cmp	r2, #2
 8007c8c:	d002      	beq.n	8007c94 <USB_EPStartXfer+0x464>
 8007c8e:	78b8      	ldrb	r0, [r7, #2]
 8007c90:	0400      	lsls	r0, r0, #16
 8007c92:	4303      	orrs	r3, r0
 8007c94:	602b      	str	r3, [r5, #0]
 8007c96:	e6c5      	b.n	8007a24 <USB_EPStartXfer+0x1f4>
 8007c98:	2401      	movs	r4, #1
 8007c9a:	0841      	lsrs	r1, r0, #1
 8007c9c:	4020      	ands	r0, r4
 8007c9e:	1809      	adds	r1, r1, r0
 8007ca0:	6858      	ldr	r0, [r3, #4]
 8007ca2:	0689      	lsls	r1, r1, #26
 8007ca4:	4301      	orrs	r1, r0
 8007ca6:	6059      	str	r1, [r3, #4]
 8007ca8:	e618      	b.n	80078dc <USB_EPStartXfer+0xac>
 8007caa:	4642      	mov	r2, r8
 8007cac:	6820      	ldr	r0, [r4, #0]
 8007cae:	0400      	lsls	r0, r0, #16
 8007cb0:	0c00      	lsrs	r0, r0, #16
 8007cb2:	6020      	str	r0, [r4, #0]
 8007cb4:	6820      	ldr	r0, [r4, #0]
 8007cb6:	4310      	orrs	r0, r2
 8007cb8:	4a32      	ldr	r2, [pc, #200]	@ (8007d84 <USB_EPStartXfer+0x554>)
 8007cba:	6020      	str	r0, [r4, #0]
 8007cbc:	4690      	mov	r8, r2
 8007cbe:	890f      	ldrh	r7, [r1, #8]
 8007cc0:	4447      	add	r7, r8
 8007cc2:	2e00      	cmp	r6, #0
 8007cc4:	d11a      	bne.n	8007cfc <USB_EPStartXfer+0x4cc>
 8007cc6:	4662      	mov	r2, ip
 8007cc8:	2a00      	cmp	r2, #0
 8007cca:	d100      	bne.n	8007cce <USB_EPStartXfer+0x49e>
 8007ccc:	e6b7      	b.n	8007a3e <USB_EPStartXfer+0x20e>
 8007cce:	4662      	mov	r2, ip
 8007cd0:	1afc      	subs	r4, r7, r3
 8007cd2:	0092      	lsls	r2, r2, #2
 8007cd4:	4688      	mov	r8, r1
 8007cd6:	4694      	mov	ip, r2
 8007cd8:	0021      	movs	r1, r4
 8007cda:	189d      	adds	r5, r3, r2
 8007cdc:	7858      	ldrb	r0, [r3, #1]
 8007cde:	781c      	ldrb	r4, [r3, #0]
 8007ce0:	0200      	lsls	r0, r0, #8
 8007ce2:	4320      	orrs	r0, r4
 8007ce4:	789c      	ldrb	r4, [r3, #2]
 8007ce6:	185a      	adds	r2, r3, r1
 8007ce8:	0424      	lsls	r4, r4, #16
 8007cea:	4304      	orrs	r4, r0
 8007cec:	78d8      	ldrb	r0, [r3, #3]
 8007cee:	3304      	adds	r3, #4
 8007cf0:	0600      	lsls	r0, r0, #24
 8007cf2:	4320      	orrs	r0, r4
 8007cf4:	6010      	str	r0, [r2, #0]
 8007cf6:	429d      	cmp	r5, r3
 8007cf8:	d1f0      	bne.n	8007cdc <USB_EPStartXfer+0x4ac>
 8007cfa:	e650      	b.n	800799e <USB_EPStartXfer+0x16e>
 8007cfc:	2201      	movs	r2, #1
 8007cfe:	4252      	negs	r2, r2
 8007d00:	4690      	mov	r8, r2
 8007d02:	44c4      	add	ip, r8
 8007d04:	4662      	mov	r2, ip
 8007d06:	2a00      	cmp	r2, #0
 8007d08:	d1e1      	bne.n	8007cce <USB_EPStartXfer+0x49e>
 8007d0a:	001d      	movs	r5, r3
 8007d0c:	e64c      	b.n	80079a8 <USB_EPStartXfer+0x178>
 8007d0e:	2201      	movs	r2, #1
 8007d10:	4252      	negs	r2, r2
 8007d12:	4690      	mov	r8, r2
 8007d14:	44c4      	add	ip, r8
 8007d16:	4662      	mov	r2, ip
 8007d18:	2a00      	cmp	r2, #0
 8007d1a:	d000      	beq.n	8007d1e <USB_EPStartXfer+0x4ee>
 8007d1c:	e629      	b.n	8007972 <USB_EPStartXfer+0x142>
 8007d1e:	001d      	movs	r5, r3
 8007d20:	e642      	b.n	80079a8 <USB_EPStartXfer+0x178>
 8007d22:	261f      	movs	r6, #31
 8007d24:	0943      	lsrs	r3, r0, #5
 8007d26:	4030      	ands	r0, r6
 8007d28:	4246      	negs	r6, r0
 8007d2a:	4170      	adcs	r0, r6
 8007d2c:	2680      	movs	r6, #128	@ 0x80
 8007d2e:	1a1b      	subs	r3, r3, r0
 8007d30:	6820      	ldr	r0, [r4, #0]
 8007d32:	069b      	lsls	r3, r3, #26
 8007d34:	4318      	orrs	r0, r3
 8007d36:	0636      	lsls	r6, r6, #24
 8007d38:	4330      	orrs	r0, r6
 8007d3a:	6020      	str	r0, [r4, #0]
 8007d3c:	6860      	ldr	r0, [r4, #4]
 8007d3e:	0180      	lsls	r0, r0, #6
 8007d40:	0980      	lsrs	r0, r0, #6
 8007d42:	6060      	str	r0, [r4, #4]
 8007d44:	6860      	ldr	r0, [r4, #4]
 8007d46:	4303      	orrs	r3, r0
 8007d48:	431e      	orrs	r6, r3
 8007d4a:	6066      	str	r6, [r4, #4]
 8007d4c:	e77a      	b.n	8007c44 <USB_EPStartXfer+0x414>
 8007d4e:	241f      	movs	r4, #31
 8007d50:	0943      	lsrs	r3, r0, #5
 8007d52:	4020      	ands	r0, r4
 8007d54:	4244      	negs	r4, r0
 8007d56:	4160      	adcs	r0, r4
 8007d58:	2480      	movs	r4, #128	@ 0x80
 8007d5a:	1a1b      	subs	r3, r3, r0
 8007d5c:	6808      	ldr	r0, [r1, #0]
 8007d5e:	069b      	lsls	r3, r3, #26
 8007d60:	4318      	orrs	r0, r3
 8007d62:	0624      	lsls	r4, r4, #24
 8007d64:	4320      	orrs	r0, r4
 8007d66:	6008      	str	r0, [r1, #0]
 8007d68:	6848      	ldr	r0, [r1, #4]
 8007d6a:	0180      	lsls	r0, r0, #6
 8007d6c:	0980      	lsrs	r0, r0, #6
 8007d6e:	6048      	str	r0, [r1, #4]
 8007d70:	6848      	ldr	r0, [r1, #4]
 8007d72:	4303      	orrs	r3, r0
 8007d74:	431c      	orrs	r4, r3
 8007d76:	604c      	str	r4, [r1, #4]
 8007d78:	e5b0      	b.n	80078dc <USB_EPStartXfer+0xac>
 8007d7a:	46c0      	nop			@ (mov r8, r8)
 8007d7c:	07ff8f8f 	.word	0x07ff8f8f
 8007d80:	00008180 	.word	0x00008180
 8007d84:	40009800 	.word	0x40009800
 8007d88:	00004040 	.word	0x00004040
 8007d8c:	000080c0 	.word	0x000080c0
 8007d90:	465e      	mov	r6, fp
 8007d92:	6822      	ldr	r2, [r4, #0]
 8007d94:	0412      	lsls	r2, r2, #16
 8007d96:	0c12      	lsrs	r2, r2, #16
 8007d98:	6022      	str	r2, [r4, #0]
 8007d9a:	6822      	ldr	r2, [r4, #0]
 8007d9c:	4332      	orrs	r2, r6
 8007d9e:	6022      	str	r2, [r4, #0]
 8007da0:	4662      	mov	r2, ip
 8007da2:	2a00      	cmp	r2, #0
 8007da4:	d000      	beq.n	8007da8 <USB_EPStartXfer+0x578>
 8007da6:	e0f5      	b.n	8007f94 <USB_EPStartXfer+0x764>
 8007da8:	46b8      	mov	r8, r7
 8007daa:	2f00      	cmp	r7, #0
 8007dac:	d038      	beq.n	8007e20 <USB_EPStartXfer+0x5f0>
 8007dae:	4642      	mov	r2, r8
 8007db0:	0092      	lsls	r2, r2, #2
 8007db2:	4691      	mov	r9, r2
 8007db4:	9205      	str	r2, [sp, #20]
 8007db6:	4652      	mov	r2, sl
 8007db8:	4499      	add	r9, r3
 8007dba:	1ad2      	subs	r2, r2, r3
 8007dbc:	001d      	movs	r5, r3
 8007dbe:	4698      	mov	r8, r3
 8007dc0:	464b      	mov	r3, r9
 8007dc2:	4689      	mov	r9, r1
 8007dc4:	0011      	movs	r1, r2
 8007dc6:	9004      	str	r0, [sp, #16]
 8007dc8:	786a      	ldrb	r2, [r5, #1]
 8007dca:	7828      	ldrb	r0, [r5, #0]
 8007dcc:	0212      	lsls	r2, r2, #8
 8007dce:	4302      	orrs	r2, r0
 8007dd0:	78a8      	ldrb	r0, [r5, #2]
 8007dd2:	186e      	adds	r6, r5, r1
 8007dd4:	0400      	lsls	r0, r0, #16
 8007dd6:	4310      	orrs	r0, r2
 8007dd8:	78ea      	ldrb	r2, [r5, #3]
 8007dda:	3504      	adds	r5, #4
 8007ddc:	0612      	lsls	r2, r2, #24
 8007dde:	4302      	orrs	r2, r0
 8007de0:	6032      	str	r2, [r6, #0]
 8007de2:	42ab      	cmp	r3, r5
 8007de4:	d1f0      	bne.n	8007dc8 <USB_EPStartXfer+0x598>
 8007de6:	4662      	mov	r2, ip
 8007de8:	4649      	mov	r1, r9
 8007dea:	9804      	ldr	r0, [sp, #16]
 8007dec:	4699      	mov	r9, r3
 8007dee:	4643      	mov	r3, r8
 8007df0:	2a00      	cmp	r2, #0
 8007df2:	d014      	beq.n	8007e1e <USB_EPStartXfer+0x5ee>
 8007df4:	9a05      	ldr	r2, [sp, #20]
 8007df6:	4690      	mov	r8, r2
 8007df8:	44c2      	add	sl, r8
 8007dfa:	464a      	mov	r2, r9
 8007dfc:	7815      	ldrb	r5, [r2, #0]
 8007dfe:	4662      	mov	r2, ip
 8007e00:	2a01      	cmp	r2, #1
 8007e02:	d00a      	beq.n	8007e1a <USB_EPStartXfer+0x5ea>
 8007e04:	464a      	mov	r2, r9
 8007e06:	7852      	ldrb	r2, [r2, #1]
 8007e08:	0212      	lsls	r2, r2, #8
 8007e0a:	4315      	orrs	r5, r2
 8007e0c:	4662      	mov	r2, ip
 8007e0e:	2a02      	cmp	r2, #2
 8007e10:	d003      	beq.n	8007e1a <USB_EPStartXfer+0x5ea>
 8007e12:	464a      	mov	r2, r9
 8007e14:	7892      	ldrb	r2, [r2, #2]
 8007e16:	0412      	lsls	r2, r2, #16
 8007e18:	4315      	orrs	r5, r2
 8007e1a:	4652      	mov	r2, sl
 8007e1c:	6015      	str	r5, [r2, #0]
 8007e1e:	6a0d      	ldr	r5, [r1, #32]
 8007e20:	690a      	ldr	r2, [r1, #16]
 8007e22:	181b      	adds	r3, r3, r0
 8007e24:	614b      	str	r3, [r1, #20]
 8007e26:	42aa      	cmp	r2, r5
 8007e28:	d200      	bcs.n	8007e2c <USB_EPStartXfer+0x5fc>
 8007e2a:	e0b0      	b.n	8007f8e <USB_EPStartXfer+0x75e>
 8007e2c:	2003      	movs	r0, #3
 8007e2e:	042a      	lsls	r2, r5, #16
 8007e30:	4028      	ands	r0, r5
 8007e32:	4693      	mov	fp, r2
 8007e34:	4684      	mov	ip, r0
 8007e36:	0c17      	lsrs	r7, r2, #16
 8007e38:	3703      	adds	r7, #3
 8007e3a:	08bf      	lsrs	r7, r7, #2
 8007e3c:	9a03      	ldr	r2, [sp, #12]
 8007e3e:	6860      	ldr	r0, [r4, #4]
 8007e40:	620a      	str	r2, [r1, #32]
 8007e42:	465a      	mov	r2, fp
 8007e44:	0400      	lsls	r0, r0, #16
 8007e46:	0c00      	lsrs	r0, r0, #16
 8007e48:	6060      	str	r0, [r4, #4]
 8007e4a:	6860      	ldr	r0, [r4, #4]
 8007e4c:	4310      	orrs	r0, r2
 8007e4e:	4662      	mov	r2, ip
 8007e50:	6060      	str	r0, [r4, #4]
 8007e52:	2a00      	cmp	r2, #0
 8007e54:	d100      	bne.n	8007e58 <USB_EPStartXfer+0x628>
 8007e56:	e0ae      	b.n	8007fb6 <USB_EPStartXfer+0x786>
 8007e58:	3f01      	subs	r7, #1
 8007e5a:	2f00      	cmp	r7, #0
 8007e5c:	d100      	bne.n	8007e60 <USB_EPStartXfer+0x630>
 8007e5e:	e0b1      	b.n	8007fc4 <USB_EPStartXfer+0x794>
 8007e60:	9e02      	ldr	r6, [sp, #8]
 8007e62:	4688      	mov	r8, r1
 8007e64:	1af2      	subs	r2, r6, r3
 8007e66:	0011      	movs	r1, r2
 8007e68:	00bd      	lsls	r5, r7, #2
 8007e6a:	195f      	adds	r7, r3, r5
 8007e6c:	785a      	ldrb	r2, [r3, #1]
 8007e6e:	7818      	ldrb	r0, [r3, #0]
 8007e70:	0212      	lsls	r2, r2, #8
 8007e72:	4302      	orrs	r2, r0
 8007e74:	7898      	ldrb	r0, [r3, #2]
 8007e76:	185c      	adds	r4, r3, r1
 8007e78:	0400      	lsls	r0, r0, #16
 8007e7a:	4310      	orrs	r0, r2
 8007e7c:	78da      	ldrb	r2, [r3, #3]
 8007e7e:	3304      	adds	r3, #4
 8007e80:	0612      	lsls	r2, r2, #24
 8007e82:	4302      	orrs	r2, r0
 8007e84:	6022      	str	r2, [r4, #0]
 8007e86:	429f      	cmp	r7, r3
 8007e88:	d1f0      	bne.n	8007e6c <USB_EPStartXfer+0x63c>
 8007e8a:	4663      	mov	r3, ip
 8007e8c:	4641      	mov	r1, r8
 8007e8e:	9602      	str	r6, [sp, #8]
 8007e90:	2b00      	cmp	r3, #0
 8007e92:	d100      	bne.n	8007e96 <USB_EPStartXfer+0x666>
 8007e94:	e594      	b.n	80079c0 <USB_EPStartXfer+0x190>
 8007e96:	46b0      	mov	r8, r6
 8007e98:	44a8      	add	r8, r5
 8007e9a:	4643      	mov	r3, r8
 8007e9c:	9302      	str	r3, [sp, #8]
 8007e9e:	4662      	mov	r2, ip
 8007ea0:	783b      	ldrb	r3, [r7, #0]
 8007ea2:	2a01      	cmp	r2, #1
 8007ea4:	d007      	beq.n	8007eb6 <USB_EPStartXfer+0x686>
 8007ea6:	7878      	ldrb	r0, [r7, #1]
 8007ea8:	0200      	lsls	r0, r0, #8
 8007eaa:	4303      	orrs	r3, r0
 8007eac:	2a02      	cmp	r2, #2
 8007eae:	d002      	beq.n	8007eb6 <USB_EPStartXfer+0x686>
 8007eb0:	78b8      	ldrb	r0, [r7, #2]
 8007eb2:	0400      	lsls	r0, r0, #16
 8007eb4:	4303      	orrs	r3, r0
 8007eb6:	9a02      	ldr	r2, [sp, #8]
 8007eb8:	6013      	str	r3, [r2, #0]
 8007eba:	780d      	ldrb	r5, [r1, #0]
 8007ebc:	e5bf      	b.n	8007a3e <USB_EPStartXfer+0x20e>
 8007ebe:	4690      	mov	r8, r2
 8007ec0:	4662      	mov	r2, ip
 8007ec2:	4446      	add	r6, r8
 8007ec4:	6835      	ldr	r5, [r6, #0]
 8007ec6:	4840      	ldr	r0, [pc, #256]	@ (8007fc8 <USB_EPStartXfer+0x798>)
 8007ec8:	4667      	mov	r7, ip
 8007eca:	4005      	ands	r5, r0
 8007ecc:	483f      	ldr	r0, [pc, #252]	@ (8007fcc <USB_EPStartXfer+0x79c>)
 8007ece:	4328      	orrs	r0, r5
 8007ed0:	6030      	str	r0, [r6, #0]
 8007ed2:	6820      	ldr	r0, [r4, #0]
 8007ed4:	0400      	lsls	r0, r0, #16
 8007ed6:	0c00      	lsrs	r0, r0, #16
 8007ed8:	6020      	str	r0, [r4, #0]
 8007eda:	6825      	ldr	r5, [r4, #0]
 8007edc:	0410      	lsls	r0, r2, #16
 8007ede:	4305      	orrs	r5, r0
 8007ee0:	6025      	str	r5, [r4, #0]
 8007ee2:	0c05      	lsrs	r5, r0, #16
 8007ee4:	2003      	movs	r0, #3
 8007ee6:	3503      	adds	r5, #3
 8007ee8:	08ad      	lsrs	r5, r5, #2
 8007eea:	4007      	ands	r7, r0
 8007eec:	4210      	tst	r0, r2
 8007eee:	d158      	bne.n	8007fa2 <USB_EPStartXfer+0x772>
 8007ef0:	2d00      	cmp	r5, #0
 8007ef2:	d100      	bne.n	8007ef6 <USB_EPStartXfer+0x6c6>
 8007ef4:	e564      	b.n	80079c0 <USB_EPStartXfer+0x190>
 8007ef6:	4652      	mov	r2, sl
 8007ef8:	1ad2      	subs	r2, r2, r3
 8007efa:	468c      	mov	ip, r1
 8007efc:	0011      	movs	r1, r2
 8007efe:	00ad      	lsls	r5, r5, #2
 8007f00:	195e      	adds	r6, r3, r5
 8007f02:	785a      	ldrb	r2, [r3, #1]
 8007f04:	7818      	ldrb	r0, [r3, #0]
 8007f06:	0212      	lsls	r2, r2, #8
 8007f08:	4302      	orrs	r2, r0
 8007f0a:	7898      	ldrb	r0, [r3, #2]
 8007f0c:	185c      	adds	r4, r3, r1
 8007f0e:	0400      	lsls	r0, r0, #16
 8007f10:	4310      	orrs	r0, r2
 8007f12:	78da      	ldrb	r2, [r3, #3]
 8007f14:	3304      	adds	r3, #4
 8007f16:	0612      	lsls	r2, r2, #24
 8007f18:	4302      	orrs	r2, r0
 8007f1a:	6022      	str	r2, [r4, #0]
 8007f1c:	42b3      	cmp	r3, r6
 8007f1e:	d1f0      	bne.n	8007f02 <USB_EPStartXfer+0x6d2>
 8007f20:	4661      	mov	r1, ip
 8007f22:	2f00      	cmp	r7, #0
 8007f24:	d100      	bne.n	8007f28 <USB_EPStartXfer+0x6f8>
 8007f26:	e54b      	b.n	80079c0 <USB_EPStartXfer+0x190>
 8007f28:	44aa      	add	sl, r5
 8007f2a:	7833      	ldrb	r3, [r6, #0]
 8007f2c:	2f01      	cmp	r7, #1
 8007f2e:	d100      	bne.n	8007f32 <USB_EPStartXfer+0x702>
 8007f30:	e667      	b.n	8007c02 <USB_EPStartXfer+0x3d2>
 8007f32:	7870      	ldrb	r0, [r6, #1]
 8007f34:	0200      	lsls	r0, r0, #8
 8007f36:	4303      	orrs	r3, r0
 8007f38:	2f02      	cmp	r7, #2
 8007f3a:	d000      	beq.n	8007f3e <USB_EPStartXfer+0x70e>
 8007f3c:	e65e      	b.n	8007bfc <USB_EPStartXfer+0x3cc>
 8007f3e:	e660      	b.n	8007c02 <USB_EPStartXfer+0x3d2>
 8007f40:	2601      	movs	r6, #1
 8007f42:	0843      	lsrs	r3, r0, #1
 8007f44:	4030      	ands	r0, r6
 8007f46:	181b      	adds	r3, r3, r0
 8007f48:	6820      	ldr	r0, [r4, #0]
 8007f4a:	069b      	lsls	r3, r3, #26
 8007f4c:	4318      	orrs	r0, r3
 8007f4e:	6020      	str	r0, [r4, #0]
 8007f50:	6860      	ldr	r0, [r4, #4]
 8007f52:	0180      	lsls	r0, r0, #6
 8007f54:	0980      	lsrs	r0, r0, #6
 8007f56:	6060      	str	r0, [r4, #4]
 8007f58:	6860      	ldr	r0, [r4, #4]
 8007f5a:	4303      	orrs	r3, r0
 8007f5c:	6063      	str	r3, [r4, #4]
 8007f5e:	e671      	b.n	8007c44 <USB_EPStartXfer+0x414>
 8007f60:	2401      	movs	r4, #1
 8007f62:	0843      	lsrs	r3, r0, #1
 8007f64:	4020      	ands	r0, r4
 8007f66:	181b      	adds	r3, r3, r0
 8007f68:	6808      	ldr	r0, [r1, #0]
 8007f6a:	069b      	lsls	r3, r3, #26
 8007f6c:	4318      	orrs	r0, r3
 8007f6e:	6008      	str	r0, [r1, #0]
 8007f70:	6848      	ldr	r0, [r1, #4]
 8007f72:	0180      	lsls	r0, r0, #6
 8007f74:	0980      	lsrs	r0, r0, #6
 8007f76:	6048      	str	r0, [r1, #4]
 8007f78:	6848      	ldr	r0, [r1, #4]
 8007f7a:	4303      	orrs	r3, r0
 8007f7c:	604b      	str	r3, [r1, #4]
 8007f7e:	e4ad      	b.n	80078dc <USB_EPStartXfer+0xac>
 8007f80:	1e7a      	subs	r2, r7, #1
 8007f82:	4690      	mov	r8, r2
 8007f84:	2f01      	cmp	r7, #1
 8007f86:	d000      	beq.n	8007f8a <USB_EPStartXfer+0x75a>
 8007f88:	e5bb      	b.n	8007b02 <USB_EPStartXfer+0x2d2>
 8007f8a:	4698      	mov	r8, r3
 8007f8c:	e5e2      	b.n	8007b54 <USB_EPStartXfer+0x324>
 8007f8e:	1a2a      	subs	r2, r5, r0
 8007f90:	9203      	str	r2, [sp, #12]
 8007f92:	e753      	b.n	8007e3c <USB_EPStartXfer+0x60c>
 8007f94:	1e7a      	subs	r2, r7, #1
 8007f96:	4690      	mov	r8, r2
 8007f98:	2f01      	cmp	r7, #1
 8007f9a:	d000      	beq.n	8007f9e <USB_EPStartXfer+0x76e>
 8007f9c:	e707      	b.n	8007dae <USB_EPStartXfer+0x57e>
 8007f9e:	4699      	mov	r9, r3
 8007fa0:	e72b      	b.n	8007dfa <USB_EPStartXfer+0x5ca>
 8007fa2:	3d01      	subs	r5, #1
 8007fa4:	2d00      	cmp	r5, #0
 8007fa6:	d1a6      	bne.n	8007ef6 <USB_EPStartXfer+0x6c6>
 8007fa8:	001e      	movs	r6, r3
 8007faa:	e7be      	b.n	8007f2a <USB_EPStartXfer+0x6fa>
 8007fac:	2f00      	cmp	r7, #0
 8007fae:	d000      	beq.n	8007fb2 <USB_EPStartXfer+0x782>
 8007fb0:	e603      	b.n	8007bba <USB_EPStartXfer+0x38a>
 8007fb2:	780d      	ldrb	r5, [r1, #0]
 8007fb4:	e543      	b.n	8007a3e <USB_EPStartXfer+0x20e>
 8007fb6:	2f00      	cmp	r7, #0
 8007fb8:	d000      	beq.n	8007fbc <USB_EPStartXfer+0x78c>
 8007fba:	e751      	b.n	8007e60 <USB_EPStartXfer+0x630>
 8007fbc:	780d      	ldrb	r5, [r1, #0]
 8007fbe:	e53e      	b.n	8007a3e <USB_EPStartXfer+0x20e>
 8007fc0:	001e      	movs	r6, r3
 8007fc2:	e612      	b.n	8007bea <USB_EPStartXfer+0x3ba>
 8007fc4:	001f      	movs	r7, r3
 8007fc6:	e76a      	b.n	8007e9e <USB_EPStartXfer+0x66e>
 8007fc8:	07ff8e8f 	.word	0x07ff8e8f
 8007fcc:	00008080 	.word	0x00008080

08007fd0 <USB_EPSetStall>:
 8007fd0:	780b      	ldrb	r3, [r1, #0]
 8007fd2:	784a      	ldrb	r2, [r1, #1]
 8007fd4:	009b      	lsls	r3, r3, #2
 8007fd6:	18c0      	adds	r0, r0, r3
 8007fd8:	6803      	ldr	r3, [r0, #0]
 8007fda:	2a00      	cmp	r2, #0
 8007fdc:	d008      	beq.n	8007ff0 <USB_EPSetStall+0x20>
 8007fde:	4a09      	ldr	r2, [pc, #36]	@ (8008004 <USB_EPSetStall+0x34>)
 8007fe0:	4013      	ands	r3, r2
 8007fe2:	2210      	movs	r2, #16
 8007fe4:	4053      	eors	r3, r2
 8007fe6:	4a08      	ldr	r2, [pc, #32]	@ (8008008 <USB_EPSetStall+0x38>)
 8007fe8:	4313      	orrs	r3, r2
 8007fea:	6003      	str	r3, [r0, #0]
 8007fec:	2000      	movs	r0, #0
 8007fee:	4770      	bx	lr
 8007ff0:	4a06      	ldr	r2, [pc, #24]	@ (800800c <USB_EPSetStall+0x3c>)
 8007ff2:	4013      	ands	r3, r2
 8007ff4:	2280      	movs	r2, #128	@ 0x80
 8007ff6:	0152      	lsls	r2, r2, #5
 8007ff8:	405a      	eors	r2, r3
 8007ffa:	4b03      	ldr	r3, [pc, #12]	@ (8008008 <USB_EPSetStall+0x38>)
 8007ffc:	4313      	orrs	r3, r2
 8007ffe:	6003      	str	r3, [r0, #0]
 8008000:	e7f4      	b.n	8007fec <USB_EPSetStall+0x1c>
 8008002:	46c0      	nop			@ (mov r8, r8)
 8008004:	07ff8fbf 	.word	0x07ff8fbf
 8008008:	00008080 	.word	0x00008080
 800800c:	07ffbf8f 	.word	0x07ffbf8f

08008010 <USB_EPClearStall>:
 8008010:	7b0b      	ldrb	r3, [r1, #12]
 8008012:	2b00      	cmp	r3, #0
 8008014:	d119      	bne.n	800804a <USB_EPClearStall+0x3a>
 8008016:	780b      	ldrb	r3, [r1, #0]
 8008018:	784a      	ldrb	r2, [r1, #1]
 800801a:	009b      	lsls	r3, r3, #2
 800801c:	18c0      	adds	r0, r0, r3
 800801e:	6803      	ldr	r3, [r0, #0]
 8008020:	2a00      	cmp	r2, #0
 8008022:	d014      	beq.n	800804e <USB_EPClearStall+0x3e>
 8008024:	065b      	lsls	r3, r3, #25
 8008026:	d505      	bpl.n	8008034 <USB_EPClearStall+0x24>
 8008028:	6802      	ldr	r2, [r0, #0]
 800802a:	4b12      	ldr	r3, [pc, #72]	@ (8008074 <USB_EPClearStall+0x64>)
 800802c:	401a      	ands	r2, r3
 800802e:	4b12      	ldr	r3, [pc, #72]	@ (8008078 <USB_EPClearStall+0x68>)
 8008030:	4313      	orrs	r3, r2
 8008032:	6003      	str	r3, [r0, #0]
 8008034:	78cb      	ldrb	r3, [r1, #3]
 8008036:	2b01      	cmp	r3, #1
 8008038:	d007      	beq.n	800804a <USB_EPClearStall+0x3a>
 800803a:	6803      	ldr	r3, [r0, #0]
 800803c:	4a0f      	ldr	r2, [pc, #60]	@ (800807c <USB_EPClearStall+0x6c>)
 800803e:	4013      	ands	r3, r2
 8008040:	2220      	movs	r2, #32
 8008042:	4053      	eors	r3, r2
 8008044:	4a0e      	ldr	r2, [pc, #56]	@ (8008080 <USB_EPClearStall+0x70>)
 8008046:	4313      	orrs	r3, r2
 8008048:	6003      	str	r3, [r0, #0]
 800804a:	2000      	movs	r0, #0
 800804c:	4770      	bx	lr
 800804e:	045b      	lsls	r3, r3, #17
 8008050:	d505      	bpl.n	800805e <USB_EPClearStall+0x4e>
 8008052:	6802      	ldr	r2, [r0, #0]
 8008054:	4b07      	ldr	r3, [pc, #28]	@ (8008074 <USB_EPClearStall+0x64>)
 8008056:	401a      	ands	r2, r3
 8008058:	4b0a      	ldr	r3, [pc, #40]	@ (8008084 <USB_EPClearStall+0x74>)
 800805a:	4313      	orrs	r3, r2
 800805c:	6003      	str	r3, [r0, #0]
 800805e:	6803      	ldr	r3, [r0, #0]
 8008060:	4a09      	ldr	r2, [pc, #36]	@ (8008088 <USB_EPClearStall+0x78>)
 8008062:	4013      	ands	r3, r2
 8008064:	22c0      	movs	r2, #192	@ 0xc0
 8008066:	0192      	lsls	r2, r2, #6
 8008068:	405a      	eors	r2, r3
 800806a:	4b05      	ldr	r3, [pc, #20]	@ (8008080 <USB_EPClearStall+0x70>)
 800806c:	4313      	orrs	r3, r2
 800806e:	6003      	str	r3, [r0, #0]
 8008070:	e7eb      	b.n	800804a <USB_EPClearStall+0x3a>
 8008072:	46c0      	nop			@ (mov r8, r8)
 8008074:	07ff8f8f 	.word	0x07ff8f8f
 8008078:	000080c0 	.word	0x000080c0
 800807c:	07ff8fbf 	.word	0x07ff8fbf
 8008080:	00008080 	.word	0x00008080
 8008084:	0000c080 	.word	0x0000c080
 8008088:	07ffbf8f 	.word	0x07ffbf8f

0800808c <USB_SetDevAddress>:
 800808c:	2900      	cmp	r1, #0
 800808e:	d101      	bne.n	8008094 <USB_SetDevAddress+0x8>
 8008090:	2380      	movs	r3, #128	@ 0x80
 8008092:	64c3      	str	r3, [r0, #76]	@ 0x4c
 8008094:	2000      	movs	r0, #0
 8008096:	4770      	bx	lr

08008098 <USB_DevConnect>:
 8008098:	2380      	movs	r3, #128	@ 0x80
 800809a:	6d82      	ldr	r2, [r0, #88]	@ 0x58
 800809c:	021b      	lsls	r3, r3, #8
 800809e:	4313      	orrs	r3, r2
 80080a0:	6583      	str	r3, [r0, #88]	@ 0x58
 80080a2:	2000      	movs	r0, #0
 80080a4:	4770      	bx	lr
 80080a6:	46c0      	nop			@ (mov r8, r8)

080080a8 <USB_ReadInterrupts>:
 80080a8:	6c40      	ldr	r0, [r0, #68]	@ 0x44
 80080aa:	4770      	bx	lr

080080ac <USB_WritePMA>:
 80080ac:	2003      	movs	r0, #3
 80080ae:	b5f0      	push	{r4, r5, r6, r7, lr}
 80080b0:	0007      	movs	r7, r0
 80080b2:	4c18      	ldr	r4, [pc, #96]	@ (8008114 <USB_WritePMA+0x68>)
 80080b4:	1cdd      	adds	r5, r3, #3
 80080b6:	08ad      	lsrs	r5, r5, #2
 80080b8:	401f      	ands	r7, r3
 80080ba:	1916      	adds	r6, r2, r4
 80080bc:	4218      	tst	r0, r3
 80080be:	d118      	bne.n	80080f2 <USB_WritePMA+0x46>
 80080c0:	2d00      	cmp	r5, #0
 80080c2:	d015      	beq.n	80080f0 <USB_WritePMA+0x44>
 80080c4:	00ab      	lsls	r3, r5, #2
 80080c6:	469c      	mov	ip, r3
 80080c8:	18cc      	adds	r4, r1, r3
 80080ca:	1a75      	subs	r5, r6, r1
 80080cc:	784b      	ldrb	r3, [r1, #1]
 80080ce:	7808      	ldrb	r0, [r1, #0]
 80080d0:	021b      	lsls	r3, r3, #8
 80080d2:	4303      	orrs	r3, r0
 80080d4:	7888      	ldrb	r0, [r1, #2]
 80080d6:	194a      	adds	r2, r1, r5
 80080d8:	0400      	lsls	r0, r0, #16
 80080da:	4318      	orrs	r0, r3
 80080dc:	78cb      	ldrb	r3, [r1, #3]
 80080de:	3104      	adds	r1, #4
 80080e0:	061b      	lsls	r3, r3, #24
 80080e2:	4303      	orrs	r3, r0
 80080e4:	6013      	str	r3, [r2, #0]
 80080e6:	42a1      	cmp	r1, r4
 80080e8:	d1f0      	bne.n	80080cc <USB_WritePMA+0x20>
 80080ea:	4466      	add	r6, ip
 80080ec:	2f00      	cmp	r7, #0
 80080ee:	d104      	bne.n	80080fa <USB_WritePMA+0x4e>
 80080f0:	bdf0      	pop	{r4, r5, r6, r7, pc}
 80080f2:	3d01      	subs	r5, #1
 80080f4:	2d00      	cmp	r5, #0
 80080f6:	d1e5      	bne.n	80080c4 <USB_WritePMA+0x18>
 80080f8:	000c      	movs	r4, r1
 80080fa:	7823      	ldrb	r3, [r4, #0]
 80080fc:	2f01      	cmp	r7, #1
 80080fe:	d007      	beq.n	8008110 <USB_WritePMA+0x64>
 8008100:	7862      	ldrb	r2, [r4, #1]
 8008102:	0212      	lsls	r2, r2, #8
 8008104:	4313      	orrs	r3, r2
 8008106:	2f02      	cmp	r7, #2
 8008108:	d002      	beq.n	8008110 <USB_WritePMA+0x64>
 800810a:	78a2      	ldrb	r2, [r4, #2]
 800810c:	0412      	lsls	r2, r2, #16
 800810e:	4313      	orrs	r3, r2
 8008110:	6033      	str	r3, [r6, #0]
 8008112:	e7ed      	b.n	80080f0 <USB_WritePMA+0x44>
 8008114:	40009800 	.word	0x40009800

08008118 <USB_ReadPMA>:
 8008118:	b5f0      	push	{r4, r5, r6, r7, lr}
 800811a:	2403      	movs	r4, #3
 800811c:	0027      	movs	r7, r4
 800811e:	4d15      	ldr	r5, [pc, #84]	@ (8008174 <USB_ReadPMA+0x5c>)
 8008120:	1cd8      	adds	r0, r3, #3
 8008122:	0880      	lsrs	r0, r0, #2
 8008124:	401f      	ands	r7, r3
 8008126:	1956      	adds	r6, r2, r5
 8008128:	421c      	tst	r4, r3
 800812a:	d114      	bne.n	8008156 <USB_ReadPMA+0x3e>
 800812c:	2800      	cmp	r0, #0
 800812e:	d011      	beq.n	8008154 <USB_ReadPMA+0x3c>
 8008130:	0085      	lsls	r5, r0, #2
 8008132:	194a      	adds	r2, r1, r5
 8008134:	1a74      	subs	r4, r6, r1
 8008136:	190b      	adds	r3, r1, r4
 8008138:	681b      	ldr	r3, [r3, #0]
 800813a:	0a18      	lsrs	r0, r3, #8
 800813c:	700b      	strb	r3, [r1, #0]
 800813e:	7048      	strb	r0, [r1, #1]
 8008140:	0c18      	lsrs	r0, r3, #16
 8008142:	0e1b      	lsrs	r3, r3, #24
 8008144:	7088      	strb	r0, [r1, #2]
 8008146:	70cb      	strb	r3, [r1, #3]
 8008148:	3104      	adds	r1, #4
 800814a:	428a      	cmp	r2, r1
 800814c:	d1f3      	bne.n	8008136 <USB_ReadPMA+0x1e>
 800814e:	1976      	adds	r6, r6, r5
 8008150:	2f00      	cmp	r7, #0
 8008152:	d104      	bne.n	800815e <USB_ReadPMA+0x46>
 8008154:	bdf0      	pop	{r4, r5, r6, r7, pc}
 8008156:	3801      	subs	r0, #1
 8008158:	2800      	cmp	r0, #0
 800815a:	d1e9      	bne.n	8008130 <USB_ReadPMA+0x18>
 800815c:	000a      	movs	r2, r1
 800815e:	6833      	ldr	r3, [r6, #0]
 8008160:	7013      	strb	r3, [r2, #0]
 8008162:	2f01      	cmp	r7, #1
 8008164:	d0f6      	beq.n	8008154 <USB_ReadPMA+0x3c>
 8008166:	0a19      	lsrs	r1, r3, #8
 8008168:	7051      	strb	r1, [r2, #1]
 800816a:	2f02      	cmp	r7, #2
 800816c:	d0f2      	beq.n	8008154 <USB_ReadPMA+0x3c>
 800816e:	0c1b      	lsrs	r3, r3, #16
 8008170:	7093      	strb	r3, [r2, #2]
 8008172:	e7ef      	b.n	8008154 <USB_ReadPMA+0x3c>
 8008174:	40009800 	.word	0x40009800

08008178 <USBD_CDC_EP0_RxReady>:
 8008178:	23b5      	movs	r3, #181	@ 0xb5
 800817a:	009b      	lsls	r3, r3, #2
 800817c:	58c3      	ldr	r3, [r0, r3]
 800817e:	b570      	push	{r4, r5, r6, lr}
 8008180:	009b      	lsls	r3, r3, #2
 8008182:	18c0      	adds	r0, r0, r3
 8008184:	23b0      	movs	r3, #176	@ 0xb0
 8008186:	009b      	lsls	r3, r3, #2
 8008188:	58c4      	ldr	r4, [r0, r3]
 800818a:	2c00      	cmp	r4, #0
 800818c:	d011      	beq.n	80081b2 <USBD_CDC_EP0_RxReady+0x3a>
 800818e:	3304      	adds	r3, #4
 8008190:	58c3      	ldr	r3, [r0, r3]
 8008192:	2b00      	cmp	r3, #0
 8008194:	d00b      	beq.n	80081ae <USBD_CDC_EP0_RxReady+0x36>
 8008196:	2580      	movs	r5, #128	@ 0x80
 8008198:	00ad      	lsls	r5, r5, #2
 800819a:	5d60      	ldrb	r0, [r4, r5]
 800819c:	28ff      	cmp	r0, #255	@ 0xff
 800819e:	d006      	beq.n	80081ae <USBD_CDC_EP0_RxReady+0x36>
 80081a0:	4a05      	ldr	r2, [pc, #20]	@ (80081b8 <USBD_CDC_EP0_RxReady+0x40>)
 80081a2:	689b      	ldr	r3, [r3, #8]
 80081a4:	0021      	movs	r1, r4
 80081a6:	5ca2      	ldrb	r2, [r4, r2]
 80081a8:	4798      	blx	r3
 80081aa:	23ff      	movs	r3, #255	@ 0xff
 80081ac:	5563      	strb	r3, [r4, r5]
 80081ae:	2000      	movs	r0, #0
 80081b0:	bd70      	pop	{r4, r5, r6, pc}
 80081b2:	2003      	movs	r0, #3
 80081b4:	e7fc      	b.n	80081b0 <USBD_CDC_EP0_RxReady+0x38>
 80081b6:	46c0      	nop			@ (mov r8, r8)
 80081b8:	00000201 	.word	0x00000201

080081bc <USBD_CDC_GetDeviceQualifierDescriptor>:
 80081bc:	230a      	movs	r3, #10
 80081be:	8003      	strh	r3, [r0, #0]
 80081c0:	4800      	ldr	r0, [pc, #0]	@ (80081c4 <USBD_CDC_GetDeviceQualifierDescriptor+0x8>)
 80081c2:	4770      	bx	lr
 80081c4:	200001c8 	.word	0x200001c8

080081c8 <USBD_CDC_GetFSCfgDesc>:
 80081c8:	b5f8      	push	{r3, r4, r5, r6, r7, lr}
 80081ca:	4d12      	ldr	r5, [pc, #72]	@ (8008214 <USBD_CDC_GetFSCfgDesc+0x4c>)
 80081cc:	2182      	movs	r1, #130	@ 0x82
 80081ce:	0007      	movs	r7, r0
 80081d0:	0028      	movs	r0, r5
 80081d2:	f000 fc0b 	bl	80089ec <USBD_GetEpDesc>
 80081d6:	2101      	movs	r1, #1
 80081d8:	0006      	movs	r6, r0
 80081da:	0028      	movs	r0, r5
 80081dc:	f000 fc06 	bl	80089ec <USBD_GetEpDesc>
 80081e0:	2181      	movs	r1, #129	@ 0x81
 80081e2:	0004      	movs	r4, r0
 80081e4:	0028      	movs	r0, r5
 80081e6:	f000 fc01 	bl	80089ec <USBD_GetEpDesc>
 80081ea:	2e00      	cmp	r6, #0
 80081ec:	d001      	beq.n	80081f2 <USBD_CDC_GetFSCfgDesc+0x2a>
 80081ee:	2210      	movs	r2, #16
 80081f0:	71b2      	strb	r2, [r6, #6]
 80081f2:	2c00      	cmp	r4, #0
 80081f4:	d003      	beq.n	80081fe <USBD_CDC_GetFSCfgDesc+0x36>
 80081f6:	2240      	movs	r2, #64	@ 0x40
 80081f8:	7122      	strb	r2, [r4, #4]
 80081fa:	2200      	movs	r2, #0
 80081fc:	7162      	strb	r2, [r4, #5]
 80081fe:	2800      	cmp	r0, #0
 8008200:	d003      	beq.n	800820a <USBD_CDC_GetFSCfgDesc+0x42>
 8008202:	2240      	movs	r2, #64	@ 0x40
 8008204:	7102      	strb	r2, [r0, #4]
 8008206:	2200      	movs	r2, #0
 8008208:	7142      	strb	r2, [r0, #5]
 800820a:	2343      	movs	r3, #67	@ 0x43
 800820c:	0028      	movs	r0, r5
 800820e:	803b      	strh	r3, [r7, #0]
 8008210:	bdf8      	pop	{r3, r4, r5, r6, r7, pc}
 8008212:	46c0      	nop			@ (mov r8, r8)
 8008214:	2000014c 	.word	0x2000014c

08008218 <USBD_CDC_GetHSCfgDesc>:
 8008218:	b5f8      	push	{r3, r4, r5, r6, r7, lr}
 800821a:	4d12      	ldr	r5, [pc, #72]	@ (8008264 <USBD_CDC_GetHSCfgDesc+0x4c>)
 800821c:	2182      	movs	r1, #130	@ 0x82
 800821e:	0007      	movs	r7, r0
 8008220:	0028      	movs	r0, r5
 8008222:	f000 fbe3 	bl	80089ec <USBD_GetEpDesc>
 8008226:	2101      	movs	r1, #1
 8008228:	0006      	movs	r6, r0
 800822a:	0028      	movs	r0, r5
 800822c:	f000 fbde 	bl	80089ec <USBD_GetEpDesc>
 8008230:	2181      	movs	r1, #129	@ 0x81
 8008232:	0004      	movs	r4, r0
 8008234:	0028      	movs	r0, r5
 8008236:	f000 fbd9 	bl	80089ec <USBD_GetEpDesc>
 800823a:	2e00      	cmp	r6, #0
 800823c:	d001      	beq.n	8008242 <USBD_CDC_GetHSCfgDesc+0x2a>
 800823e:	2210      	movs	r2, #16
 8008240:	71b2      	strb	r2, [r6, #6]
 8008242:	2c00      	cmp	r4, #0
 8008244:	d003      	beq.n	800824e <USBD_CDC_GetHSCfgDesc+0x36>
 8008246:	2200      	movs	r2, #0
 8008248:	7122      	strb	r2, [r4, #4]
 800824a:	3202      	adds	r2, #2
 800824c:	7162      	strb	r2, [r4, #5]
 800824e:	2800      	cmp	r0, #0
 8008250:	d003      	beq.n	800825a <USBD_CDC_GetHSCfgDesc+0x42>
 8008252:	2200      	movs	r2, #0
 8008254:	7102      	strb	r2, [r0, #4]
 8008256:	3202      	adds	r2, #2
 8008258:	7142      	strb	r2, [r0, #5]
 800825a:	2343      	movs	r3, #67	@ 0x43
 800825c:	0028      	movs	r0, r5
 800825e:	803b      	strh	r3, [r7, #0]
 8008260:	bdf8      	pop	{r3, r4, r5, r6, r7, pc}
 8008262:	46c0      	nop			@ (mov r8, r8)
 8008264:	2000014c 	.word	0x2000014c

08008268 <USBD_CDC_DataOut>:
 8008268:	b570      	push	{r4, r5, r6, lr}
 800826a:	26b5      	movs	r6, #181	@ 0xb5
 800826c:	00b6      	lsls	r6, r6, #2
 800826e:	5983      	ldr	r3, [r0, r6]
 8008270:	0004      	movs	r4, r0
 8008272:	33b0      	adds	r3, #176	@ 0xb0
 8008274:	009b      	lsls	r3, r3, #2
 8008276:	581d      	ldr	r5, [r3, r0]
 8008278:	2d00      	cmp	r5, #0
 800827a:	d010      	beq.n	800829e <USBD_CDC_DataOut+0x36>
 800827c:	f001 fa28 	bl	80096d0 <USBD_LL_GetRxDataSize>
 8008280:	2383      	movs	r3, #131	@ 0x83
 8008282:	009b      	lsls	r3, r3, #2
 8008284:	50e8      	str	r0, [r5, r3]
 8008286:	18e9      	adds	r1, r5, r3
 8008288:	3b08      	subs	r3, #8
 800828a:	58e8      	ldr	r0, [r5, r3]
 800828c:	59a3      	ldr	r3, [r4, r6]
 800828e:	33b0      	adds	r3, #176	@ 0xb0
 8008290:	009b      	lsls	r3, r3, #2
 8008292:	18e4      	adds	r4, r4, r3
 8008294:	6863      	ldr	r3, [r4, #4]
 8008296:	68db      	ldr	r3, [r3, #12]
 8008298:	4798      	blx	r3
 800829a:	2000      	movs	r0, #0
 800829c:	bd70      	pop	{r4, r5, r6, pc}
 800829e:	2003      	movs	r0, #3
 80082a0:	e7fc      	b.n	800829c <USBD_CDC_DataOut+0x34>
 80082a2:	46c0      	nop			@ (mov r8, r8)

080082a4 <USBD_CDC_DataIn>:
 80082a4:	23b2      	movs	r3, #178	@ 0xb2
 80082a6:	b5f0      	push	{r4, r5, r6, r7, lr}
 80082a8:	46c6      	mov	lr, r8
 80082aa:	009b      	lsls	r3, r3, #2
 80082ac:	000e      	movs	r6, r1
 80082ae:	58c1      	ldr	r1, [r0, r3]
 80082b0:	330c      	adds	r3, #12
 80082b2:	58c5      	ldr	r5, [r0, r3]
 80082b4:	3b14      	subs	r3, #20
 80082b6:	00ad      	lsls	r5, r5, #2
 80082b8:	1945      	adds	r5, r0, r5
 80082ba:	58ef      	ldr	r7, [r5, r3]
 80082bc:	0004      	movs	r4, r0
 80082be:	b500      	push	{lr}
 80082c0:	2f00      	cmp	r7, #0
 80082c2:	d02e      	beq.n	8008322 <USBD_CDC_DataIn+0x7e>
 80082c4:	220f      	movs	r2, #15
 80082c6:	4032      	ands	r2, r6
 80082c8:	0093      	lsls	r3, r2, #2
 80082ca:	189b      	adds	r3, r3, r2
 80082cc:	009a      	lsls	r2, r3, #2
 80082ce:	4690      	mov	r8, r2
 80082d0:	4480      	add	r8, r0
 80082d2:	4642      	mov	r2, r8
 80082d4:	6990      	ldr	r0, [r2, #24]
 80082d6:	2800      	cmp	r0, #0
 80082d8:	d113      	bne.n	8008302 <USBD_CDC_DataIn+0x5e>
 80082da:	2385      	movs	r3, #133	@ 0x85
 80082dc:	2200      	movs	r2, #0
 80082de:	009b      	lsls	r3, r3, #2
 80082e0:	50fa      	str	r2, [r7, r3]
 80082e2:	33b0      	adds	r3, #176	@ 0xb0
 80082e4:	58eb      	ldr	r3, [r5, r3]
 80082e6:	691b      	ldr	r3, [r3, #16]
 80082e8:	2b00      	cmp	r3, #0
 80082ea:	d006      	beq.n	80082fa <USBD_CDC_DataIn+0x56>
 80082ec:	2284      	movs	r2, #132	@ 0x84
 80082ee:	0092      	lsls	r2, r2, #2
 80082f0:	18b9      	adds	r1, r7, r2
 80082f2:	3a08      	subs	r2, #8
 80082f4:	58b8      	ldr	r0, [r7, r2]
 80082f6:	0032      	movs	r2, r6
 80082f8:	4798      	blx	r3
 80082fa:	2000      	movs	r0, #0
 80082fc:	bc80      	pop	{r7}
 80082fe:	46b8      	mov	r8, r7
 8008300:	bdf0      	pop	{r4, r5, r6, r7, pc}
 8008302:	00db      	lsls	r3, r3, #3
 8008304:	18c9      	adds	r1, r1, r3
 8008306:	6a49      	ldr	r1, [r1, #36]	@ 0x24
 8008308:	f7f7 ff8a 	bl	8000220 <__aeabi_uidivmod>
 800830c:	2900      	cmp	r1, #0
 800830e:	d1e4      	bne.n	80082da <USBD_CDC_DataIn+0x36>
 8008310:	4643      	mov	r3, r8
 8008312:	2200      	movs	r2, #0
 8008314:	6199      	str	r1, [r3, #24]
 8008316:	0020      	movs	r0, r4
 8008318:	2300      	movs	r3, #0
 800831a:	0031      	movs	r1, r6
 800831c:	f001 f9b8 	bl	8009690 <USBD_LL_Transmit>
 8008320:	e7eb      	b.n	80082fa <USBD_CDC_DataIn+0x56>
 8008322:	2003      	movs	r0, #3
 8008324:	e7ea      	b.n	80082fc <USBD_CDC_DataIn+0x58>
 8008326:	46c0      	nop			@ (mov r8, r8)

08008328 <USBD_CDC_Setup>:
 8008328:	b5f0      	push	{r4, r5, r6, r7, lr}
 800832a:	46c6      	mov	lr, r8
 800832c:	23b5      	movs	r3, #181	@ 0xb5
 800832e:	22b0      	movs	r2, #176	@ 0xb0
 8008330:	b500      	push	{lr}
 8008332:	009b      	lsls	r3, r3, #2
 8008334:	58c3      	ldr	r3, [r0, r3]
 8008336:	b082      	sub	sp, #8
 8008338:	009b      	lsls	r3, r3, #2
 800833a:	18c3      	adds	r3, r0, r3
 800833c:	0092      	lsls	r2, r2, #2
 800833e:	589f      	ldr	r7, [r3, r2]
 8008340:	466a      	mov	r2, sp
 8008342:	3205      	adds	r2, #5
 8008344:	4690      	mov	r8, r2
 8008346:	000d      	movs	r5, r1
 8008348:	2200      	movs	r2, #0
 800834a:	4641      	mov	r1, r8
 800834c:	700a      	strb	r2, [r1, #0]
 800834e:	4669      	mov	r1, sp
 8008350:	0004      	movs	r4, r0
 8008352:	1d88      	adds	r0, r1, #6
 8008354:	8002      	strh	r2, [r0, #0]
 8008356:	2f00      	cmp	r7, #0
 8008358:	d00b      	beq.n	8008372 <USBD_CDC_Setup+0x4a>
 800835a:	3260      	adds	r2, #96	@ 0x60
 800835c:	0011      	movs	r1, r2
 800835e:	782e      	ldrb	r6, [r5, #0]
 8008360:	4031      	ands	r1, r6
 8008362:	4232      	tst	r2, r6
 8008364:	d022      	beq.n	80083ac <USBD_CDC_Setup+0x84>
 8008366:	2920      	cmp	r1, #32
 8008368:	d008      	beq.n	800837c <USBD_CDC_Setup+0x54>
 800836a:	0029      	movs	r1, r5
 800836c:	0020      	movs	r0, r4
 800836e:	f000 fe21 	bl	8008fb4 <USBD_CtlError>
 8008372:	2003      	movs	r0, #3
 8008374:	b002      	add	sp, #8
 8008376:	bc80      	pop	{r7}
 8008378:	46b8      	mov	r8, r7
 800837a:	bdf0      	pop	{r4, r5, r6, r7, pc}
 800837c:	88ea      	ldrh	r2, [r5, #6]
 800837e:	7868      	ldrb	r0, [r5, #1]
 8008380:	2a00      	cmp	r2, #0
 8008382:	d01d      	beq.n	80083c0 <USBD_CDC_Setup+0x98>
 8008384:	b276      	sxtb	r6, r6
 8008386:	2e00      	cmp	r6, #0
 8008388:	da2c      	bge.n	80083e4 <USBD_CDC_Setup+0xbc>
 800838a:	21b1      	movs	r1, #177	@ 0xb1
 800838c:	0089      	lsls	r1, r1, #2
 800838e:	585b      	ldr	r3, [r3, r1]
 8008390:	0039      	movs	r1, r7
 8008392:	689b      	ldr	r3, [r3, #8]
 8008394:	4798      	blx	r3
 8008396:	88eb      	ldrh	r3, [r5, #6]
 8008398:	1c1a      	adds	r2, r3, #0
 800839a:	2b07      	cmp	r3, #7
 800839c:	d849      	bhi.n	8008432 <USBD_CDC_Setup+0x10a>
 800839e:	0039      	movs	r1, r7
 80083a0:	0020      	movs	r0, r4
 80083a2:	b292      	uxth	r2, r2
 80083a4:	f000 fe38 	bl	8009018 <USBD_CtlSendData>
 80083a8:	2000      	movs	r0, #0
 80083aa:	e7e3      	b.n	8008374 <USBD_CDC_Setup+0x4c>
 80083ac:	786b      	ldrb	r3, [r5, #1]
 80083ae:	2b0a      	cmp	r3, #10
 80083b0:	d033      	beq.n	800841a <USBD_CDC_Setup+0xf2>
 80083b2:	d80e      	bhi.n	80083d2 <USBD_CDC_Setup+0xaa>
 80083b4:	2b00      	cmp	r3, #0
 80083b6:	d024      	beq.n	8008402 <USBD_CDC_Setup+0xda>
 80083b8:	2b01      	cmp	r3, #1
 80083ba:	d1d6      	bne.n	800836a <USBD_CDC_Setup+0x42>
 80083bc:	2000      	movs	r0, #0
 80083be:	e7d9      	b.n	8008374 <USBD_CDC_Setup+0x4c>
 80083c0:	22b1      	movs	r2, #177	@ 0xb1
 80083c2:	0092      	lsls	r2, r2, #2
 80083c4:	589b      	ldr	r3, [r3, r2]
 80083c6:	0029      	movs	r1, r5
 80083c8:	2200      	movs	r2, #0
 80083ca:	689b      	ldr	r3, [r3, #8]
 80083cc:	4798      	blx	r3
 80083ce:	2000      	movs	r0, #0
 80083d0:	e7d0      	b.n	8008374 <USBD_CDC_Setup+0x4c>
 80083d2:	2b0b      	cmp	r3, #11
 80083d4:	d1c9      	bne.n	800836a <USBD_CDC_Setup+0x42>
 80083d6:	23a7      	movs	r3, #167	@ 0xa7
 80083d8:	009b      	lsls	r3, r3, #2
 80083da:	5ce3      	ldrb	r3, [r4, r3]
 80083dc:	2b03      	cmp	r3, #3
 80083de:	d1c4      	bne.n	800836a <USBD_CDC_Setup+0x42>
 80083e0:	2000      	movs	r0, #0
 80083e2:	e7c7      	b.n	8008374 <USBD_CDC_Setup+0x4c>
 80083e4:	2380      	movs	r3, #128	@ 0x80
 80083e6:	009b      	lsls	r3, r3, #2
 80083e8:	54f8      	strb	r0, [r7, r3]
 80083ea:	1c13      	adds	r3, r2, #0
 80083ec:	2a40      	cmp	r2, #64	@ 0x40
 80083ee:	d822      	bhi.n	8008436 <USBD_CDC_Setup+0x10e>
 80083f0:	b29a      	uxth	r2, r3
 80083f2:	4b12      	ldr	r3, [pc, #72]	@ (800843c <USBD_CDC_Setup+0x114>)
 80083f4:	0039      	movs	r1, r7
 80083f6:	0020      	movs	r0, r4
 80083f8:	54fa      	strb	r2, [r7, r3]
 80083fa:	f000 fe23 	bl	8009044 <USBD_CtlPrepareRx>
 80083fe:	2000      	movs	r0, #0
 8008400:	e7b8      	b.n	8008374 <USBD_CDC_Setup+0x4c>
 8008402:	23a7      	movs	r3, #167	@ 0xa7
 8008404:	009b      	lsls	r3, r3, #2
 8008406:	5ce3      	ldrb	r3, [r4, r3]
 8008408:	2b03      	cmp	r3, #3
 800840a:	d1ae      	bne.n	800836a <USBD_CDC_Setup+0x42>
 800840c:	0001      	movs	r1, r0
 800840e:	2202      	movs	r2, #2
 8008410:	0020      	movs	r0, r4
 8008412:	f000 fe01 	bl	8009018 <USBD_CtlSendData>
 8008416:	2000      	movs	r0, #0
 8008418:	e7ac      	b.n	8008374 <USBD_CDC_Setup+0x4c>
 800841a:	23a7      	movs	r3, #167	@ 0xa7
 800841c:	009b      	lsls	r3, r3, #2
 800841e:	5ce3      	ldrb	r3, [r4, r3]
 8008420:	2b03      	cmp	r3, #3
 8008422:	d1a2      	bne.n	800836a <USBD_CDC_Setup+0x42>
 8008424:	2201      	movs	r2, #1
 8008426:	4641      	mov	r1, r8
 8008428:	0020      	movs	r0, r4
 800842a:	f000 fdf5 	bl	8009018 <USBD_CtlSendData>
 800842e:	2000      	movs	r0, #0
 8008430:	e7a0      	b.n	8008374 <USBD_CDC_Setup+0x4c>
 8008432:	2207      	movs	r2, #7
 8008434:	e7b3      	b.n	800839e <USBD_CDC_Setup+0x76>
 8008436:	2340      	movs	r3, #64	@ 0x40
 8008438:	e7da      	b.n	80083f0 <USBD_CDC_Setup+0xc8>
 800843a:	46c0      	nop			@ (mov r8, r8)
 800843c:	00000201 	.word	0x00000201

08008440 <USBD_CDC_DeInit>:
 8008440:	b570      	push	{r4, r5, r6, lr}
 8008442:	0004      	movs	r4, r0
 8008444:	2500      	movs	r5, #0
 8008446:	2181      	movs	r1, #129	@ 0x81
 8008448:	f001 f8cc 	bl	80095e4 <USBD_LL_CloseEP>
 800844c:	2101      	movs	r1, #1
 800844e:	0020      	movs	r0, r4
 8008450:	8725      	strh	r5, [r4, #56]	@ 0x38
 8008452:	f001 f8c7 	bl	80095e4 <USBD_LL_CloseEP>
 8008456:	23bc      	movs	r3, #188	@ 0xbc
 8008458:	26b5      	movs	r6, #181	@ 0xb5
 800845a:	005b      	lsls	r3, r3, #1
 800845c:	52e5      	strh	r5, [r4, r3]
 800845e:	2182      	movs	r1, #130	@ 0x82
 8008460:	0020      	movs	r0, r4
 8008462:	f001 f8bf 	bl	80095e4 <USBD_LL_CloseEP>
 8008466:	22b0      	movs	r2, #176	@ 0xb0
 8008468:	00b6      	lsls	r6, r6, #2
 800846a:	59a3      	ldr	r3, [r4, r6]
 800846c:	64e5      	str	r5, [r4, #76]	@ 0x4c
 800846e:	009b      	lsls	r3, r3, #2
 8008470:	18e3      	adds	r3, r4, r3
 8008472:	0092      	lsls	r2, r2, #2
 8008474:	589a      	ldr	r2, [r3, r2]
 8008476:	2a00      	cmp	r2, #0
 8008478:	d011      	beq.n	800849e <USBD_CDC_DeInit+0x5e>
 800847a:	22b1      	movs	r2, #177	@ 0xb1
 800847c:	0092      	lsls	r2, r2, #2
 800847e:	589b      	ldr	r3, [r3, r2]
 8008480:	685b      	ldr	r3, [r3, #4]
 8008482:	4798      	blx	r3
 8008484:	59a3      	ldr	r3, [r4, r6]
 8008486:	33b0      	adds	r3, #176	@ 0xb0
 8008488:	009b      	lsls	r3, r3, #2
 800848a:	5918      	ldr	r0, [r3, r4]
 800848c:	f001 f954 	bl	8009738 <USBD_static_free>
 8008490:	59a3      	ldr	r3, [r4, r6]
 8008492:	33b0      	adds	r3, #176	@ 0xb0
 8008494:	009b      	lsls	r3, r3, #2
 8008496:	511d      	str	r5, [r3, r4]
 8008498:	23af      	movs	r3, #175	@ 0xaf
 800849a:	009b      	lsls	r3, r3, #2
 800849c:	50e5      	str	r5, [r4, r3]
 800849e:	2000      	movs	r0, #0
 80084a0:	bd70      	pop	{r4, r5, r6, pc}
 80084a2:	46c0      	nop			@ (mov r8, r8)

080084a4 <USBD_CDC_Init>:
 80084a4:	b5f8      	push	{r3, r4, r5, r6, r7, lr}
 80084a6:	0004      	movs	r4, r0
 80084a8:	2087      	movs	r0, #135	@ 0x87
 80084aa:	0080      	lsls	r0, r0, #2
 80084ac:	f001 f940 	bl	8009730 <USBD_static_malloc>
 80084b0:	1e05      	subs	r5, r0, #0
 80084b2:	d065      	beq.n	8008580 <USBD_CDC_Init+0xdc>
 80084b4:	2287      	movs	r2, #135	@ 0x87
 80084b6:	2100      	movs	r1, #0
 80084b8:	0092      	lsls	r2, r2, #2
 80084ba:	f001 f93f 	bl	800973c <memset>
 80084be:	23b5      	movs	r3, #181	@ 0xb5
 80084c0:	009b      	lsls	r3, r3, #2
 80084c2:	58e3      	ldr	r3, [r4, r3]
 80084c4:	33b0      	adds	r3, #176	@ 0xb0
 80084c6:	009b      	lsls	r3, r3, #2
 80084c8:	511d      	str	r5, [r3, r4]
 80084ca:	23af      	movs	r3, #175	@ 0xaf
 80084cc:	009b      	lsls	r3, r3, #2
 80084ce:	50e5      	str	r5, [r4, r3]
 80084d0:	7c23      	ldrb	r3, [r4, #16]
 80084d2:	2b00      	cmp	r3, #0
 80084d4:	d03d      	beq.n	8008552 <USBD_CDC_Init+0xae>
 80084d6:	2340      	movs	r3, #64	@ 0x40
 80084d8:	2202      	movs	r2, #2
 80084da:	2181      	movs	r1, #129	@ 0x81
 80084dc:	0020      	movs	r0, r4
 80084de:	f001 f86d 	bl	80095bc <USBD_LL_OpenEP>
 80084e2:	2301      	movs	r3, #1
 80084e4:	2202      	movs	r2, #2
 80084e6:	8723      	strh	r3, [r4, #56]	@ 0x38
 80084e8:	2101      	movs	r1, #1
 80084ea:	0020      	movs	r0, r4
 80084ec:	333f      	adds	r3, #63	@ 0x3f
 80084ee:	f001 f865 	bl	80095bc <USBD_LL_OpenEP>
 80084f2:	23bc      	movs	r3, #188	@ 0xbc
 80084f4:	2601      	movs	r6, #1
 80084f6:	2210      	movs	r2, #16
 80084f8:	005b      	lsls	r3, r3, #1
 80084fa:	52e6      	strh	r6, [r4, r3]
 80084fc:	3b2b      	subs	r3, #43	@ 0x2b
 80084fe:	3bff      	subs	r3, #255	@ 0xff
 8008500:	52e2      	strh	r2, [r4, r3]
 8008502:	2182      	movs	r1, #130	@ 0x82
 8008504:	3a0d      	subs	r2, #13
 8008506:	3b46      	subs	r3, #70	@ 0x46
 8008508:	0020      	movs	r0, r4
 800850a:	f001 f857 	bl	80095bc <USBD_LL_OpenEP>
 800850e:	234c      	movs	r3, #76	@ 0x4c
 8008510:	52e6      	strh	r6, [r4, r3]
 8008512:	23b5      	movs	r3, #181	@ 0xb5
 8008514:	2781      	movs	r7, #129	@ 0x81
 8008516:	2600      	movs	r6, #0
 8008518:	009b      	lsls	r3, r3, #2
 800851a:	58e3      	ldr	r3, [r4, r3]
 800851c:	00bf      	lsls	r7, r7, #2
 800851e:	33b0      	adds	r3, #176	@ 0xb0
 8008520:	009b      	lsls	r3, r3, #2
 8008522:	18e3      	adds	r3, r4, r3
 8008524:	685b      	ldr	r3, [r3, #4]
 8008526:	51ee      	str	r6, [r5, r7]
 8008528:	681b      	ldr	r3, [r3, #0]
 800852a:	4798      	blx	r3
 800852c:	2385      	movs	r3, #133	@ 0x85
 800852e:	59ea      	ldr	r2, [r5, r7]
 8008530:	009b      	lsls	r3, r3, #2
 8008532:	50ee      	str	r6, [r5, r3]
 8008534:	3304      	adds	r3, #4
 8008536:	50ee      	str	r6, [r5, r3]
 8008538:	2a00      	cmp	r2, #0
 800853a:	d027      	beq.n	800858c <USBD_CDC_Init+0xe8>
 800853c:	7c23      	ldrb	r3, [r4, #16]
 800853e:	2b00      	cmp	r3, #0
 8008540:	d118      	bne.n	8008574 <USBD_CDC_Init+0xd0>
 8008542:	2380      	movs	r3, #128	@ 0x80
 8008544:	2101      	movs	r1, #1
 8008546:	0020      	movs	r0, r4
 8008548:	009b      	lsls	r3, r3, #2
 800854a:	f001 f8b1 	bl	80096b0 <USBD_LL_PrepareReceive>
 800854e:	2000      	movs	r0, #0
 8008550:	bdf8      	pop	{r3, r4, r5, r6, r7, pc}
 8008552:	2380      	movs	r3, #128	@ 0x80
 8008554:	2202      	movs	r2, #2
 8008556:	2181      	movs	r1, #129	@ 0x81
 8008558:	0020      	movs	r0, r4
 800855a:	009b      	lsls	r3, r3, #2
 800855c:	f001 f82e 	bl	80095bc <USBD_LL_OpenEP>
 8008560:	2301      	movs	r3, #1
 8008562:	8723      	strh	r3, [r4, #56]	@ 0x38
 8008564:	2380      	movs	r3, #128	@ 0x80
 8008566:	2202      	movs	r2, #2
 8008568:	2101      	movs	r1, #1
 800856a:	0020      	movs	r0, r4
 800856c:	009b      	lsls	r3, r3, #2
 800856e:	f001 f825 	bl	80095bc <USBD_LL_OpenEP>
 8008572:	e7be      	b.n	80084f2 <USBD_CDC_Init+0x4e>
 8008574:	2340      	movs	r3, #64	@ 0x40
 8008576:	2101      	movs	r1, #1
 8008578:	0020      	movs	r0, r4
 800857a:	f001 f899 	bl	80096b0 <USBD_LL_PrepareReceive>
 800857e:	e7e6      	b.n	800854e <USBD_CDC_Init+0xaa>
 8008580:	23b5      	movs	r3, #181	@ 0xb5
 8008582:	009b      	lsls	r3, r3, #2
 8008584:	58e3      	ldr	r3, [r4, r3]
 8008586:	33b0      	adds	r3, #176	@ 0xb0
 8008588:	009b      	lsls	r3, r3, #2
 800858a:	5118      	str	r0, [r3, r4]
 800858c:	2002      	movs	r0, #2
 800858e:	e7df      	b.n	8008550 <USBD_CDC_Init+0xac>

08008590 <USBD_CDC_GetOtherSpeedCfgDesc>:
 8008590:	b5f8      	push	{r3, r4, r5, r6, r7, lr}
 8008592:	4d12      	ldr	r5, [pc, #72]	@ (80085dc <USBD_CDC_GetOtherSpeedCfgDesc+0x4c>)
 8008594:	2182      	movs	r1, #130	@ 0x82
 8008596:	0007      	movs	r7, r0
 8008598:	0028      	movs	r0, r5
 800859a:	f000 fa27 	bl	80089ec <USBD_GetEpDesc>
 800859e:	2101      	movs	r1, #1
 80085a0:	0006      	movs	r6, r0
 80085a2:	0028      	movs	r0, r5
 80085a4:	f000 fa22 	bl	80089ec <USBD_GetEpDesc>
 80085a8:	2181      	movs	r1, #129	@ 0x81
 80085aa:	0004      	movs	r4, r0
 80085ac:	0028      	movs	r0, r5
 80085ae:	f000 fa1d 	bl	80089ec <USBD_GetEpDesc>
 80085b2:	2e00      	cmp	r6, #0
 80085b4:	d001      	beq.n	80085ba <USBD_CDC_GetOtherSpeedCfgDesc+0x2a>
 80085b6:	2210      	movs	r2, #16
 80085b8:	71b2      	strb	r2, [r6, #6]
 80085ba:	2c00      	cmp	r4, #0
 80085bc:	d003      	beq.n	80085c6 <USBD_CDC_GetOtherSpeedCfgDesc+0x36>
 80085be:	2240      	movs	r2, #64	@ 0x40
 80085c0:	7122      	strb	r2, [r4, #4]
 80085c2:	2200      	movs	r2, #0
 80085c4:	7162      	strb	r2, [r4, #5]
 80085c6:	2800      	cmp	r0, #0
 80085c8:	d003      	beq.n	80085d2 <USBD_CDC_GetOtherSpeedCfgDesc+0x42>
 80085ca:	2240      	movs	r2, #64	@ 0x40
 80085cc:	7102      	strb	r2, [r0, #4]
 80085ce:	2200      	movs	r2, #0
 80085d0:	7142      	strb	r2, [r0, #5]
 80085d2:	2343      	movs	r3, #67	@ 0x43
 80085d4:	0028      	movs	r0, r5
 80085d6:	803b      	strh	r3, [r7, #0]
 80085d8:	bdf8      	pop	{r3, r4, r5, r6, r7, pc}
 80085da:	46c0      	nop			@ (mov r8, r8)
 80085dc:	2000014c 	.word	0x2000014c

080085e0 <USBD_CDC_RegisterInterface>:
 80085e0:	2900      	cmp	r1, #0
 80085e2:	d008      	beq.n	80085f6 <USBD_CDC_RegisterInterface+0x16>
 80085e4:	23b5      	movs	r3, #181	@ 0xb5
 80085e6:	009b      	lsls	r3, r3, #2
 80085e8:	58c3      	ldr	r3, [r0, r3]
 80085ea:	33b0      	adds	r3, #176	@ 0xb0
 80085ec:	009b      	lsls	r3, r3, #2
 80085ee:	18c0      	adds	r0, r0, r3
 80085f0:	6041      	str	r1, [r0, #4]
 80085f2:	2000      	movs	r0, #0
 80085f4:	4770      	bx	lr
 80085f6:	2003      	movs	r0, #3
 80085f8:	e7fc      	b.n	80085f4 <USBD_CDC_RegisterInterface+0x14>
 80085fa:	46c0      	nop			@ (mov r8, r8)

080085fc <USBD_CDC_SetTxBuffer>:
 80085fc:	23b5      	movs	r3, #181	@ 0xb5
 80085fe:	009b      	lsls	r3, r3, #2
 8008600:	58c3      	ldr	r3, [r0, r3]
 8008602:	33b0      	adds	r3, #176	@ 0xb0
 8008604:	009b      	lsls	r3, r3, #2
 8008606:	581b      	ldr	r3, [r3, r0]
 8008608:	2b00      	cmp	r3, #0
 800860a:	d007      	beq.n	800861c <USBD_CDC_SetTxBuffer+0x20>
 800860c:	2082      	movs	r0, #130	@ 0x82
 800860e:	0080      	lsls	r0, r0, #2
 8008610:	5019      	str	r1, [r3, r0]
 8008612:	2184      	movs	r1, #132	@ 0x84
 8008614:	2000      	movs	r0, #0
 8008616:	0089      	lsls	r1, r1, #2
 8008618:	505a      	str	r2, [r3, r1]
 800861a:	4770      	bx	lr
 800861c:	2003      	movs	r0, #3
 800861e:	e7fc      	b.n	800861a <USBD_CDC_SetTxBuffer+0x1e>

08008620 <USBD_CDC_SetRxBuffer>:
 8008620:	23b5      	movs	r3, #181	@ 0xb5
 8008622:	009b      	lsls	r3, r3, #2
 8008624:	58c3      	ldr	r3, [r0, r3]
 8008626:	33b0      	adds	r3, #176	@ 0xb0
 8008628:	009b      	lsls	r3, r3, #2
 800862a:	581b      	ldr	r3, [r3, r0]
 800862c:	2b00      	cmp	r3, #0
 800862e:	d004      	beq.n	800863a <USBD_CDC_SetRxBuffer+0x1a>
 8008630:	2281      	movs	r2, #129	@ 0x81
 8008632:	2000      	movs	r0, #0
 8008634:	0092      	lsls	r2, r2, #2
 8008636:	5099      	str	r1, [r3, r2]
 8008638:	4770      	bx	lr
 800863a:	2003      	movs	r0, #3
 800863c:	e7fc      	b.n	8008638 <USBD_CDC_SetRxBuffer+0x18>
 800863e:	46c0      	nop			@ (mov r8, r8)

08008640 <USBD_CDC_TransmitPacket>:
 8008640:	23b5      	movs	r3, #181	@ 0xb5
 8008642:	009b      	lsls	r3, r3, #2
 8008644:	58c3      	ldr	r3, [r0, r3]
 8008646:	b510      	push	{r4, lr}
 8008648:	33b0      	adds	r3, #176	@ 0xb0
 800864a:	009b      	lsls	r3, r3, #2
 800864c:	581a      	ldr	r2, [r3, r0]
 800864e:	0004      	movs	r4, r0
 8008650:	2a00      	cmp	r2, #0
 8008652:	d014      	beq.n	800867e <USBD_CDC_TransmitPacket+0x3e>
 8008654:	2385      	movs	r3, #133	@ 0x85
 8008656:	009b      	lsls	r3, r3, #2
 8008658:	58d1      	ldr	r1, [r2, r3]
 800865a:	2001      	movs	r0, #1
 800865c:	2900      	cmp	r1, #0
 800865e:	d000      	beq.n	8008662 <USBD_CDC_TransmitPacket+0x22>
 8008660:	bd10      	pop	{r4, pc}
 8008662:	2182      	movs	r1, #130	@ 0x82
 8008664:	50d0      	str	r0, [r2, r3]
 8008666:	3b04      	subs	r3, #4
 8008668:	58d3      	ldr	r3, [r2, r3]
 800866a:	0089      	lsls	r1, r1, #2
 800866c:	5852      	ldr	r2, [r2, r1]
 800866e:	3988      	subs	r1, #136	@ 0x88
 8008670:	0020      	movs	r0, r4
 8008672:	62e3      	str	r3, [r4, #44]	@ 0x2c
 8008674:	39ff      	subs	r1, #255	@ 0xff
 8008676:	f001 f80b 	bl	8009690 <USBD_LL_Transmit>
 800867a:	2000      	movs	r0, #0
 800867c:	e7f0      	b.n	8008660 <USBD_CDC_TransmitPacket+0x20>
 800867e:	2003      	movs	r0, #3
 8008680:	e7ee      	b.n	8008660 <USBD_CDC_TransmitPacket+0x20>
 8008682:	46c0      	nop			@ (mov r8, r8)

08008684 <USBD_CDC_ReceivePacket>:
 8008684:	23b5      	movs	r3, #181	@ 0xb5
 8008686:	009b      	lsls	r3, r3, #2
 8008688:	58c3      	ldr	r3, [r0, r3]
 800868a:	b510      	push	{r4, lr}
 800868c:	33b0      	adds	r3, #176	@ 0xb0
 800868e:	009b      	lsls	r3, r3, #2
 8008690:	581b      	ldr	r3, [r3, r0]
 8008692:	2b00      	cmp	r3, #0
 8008694:	d011      	beq.n	80086ba <USBD_CDC_ReceivePacket+0x36>
 8008696:	2281      	movs	r2, #129	@ 0x81
 8008698:	0092      	lsls	r2, r2, #2
 800869a:	589a      	ldr	r2, [r3, r2]
 800869c:	7c03      	ldrb	r3, [r0, #16]
 800869e:	2b00      	cmp	r3, #0
 80086a0:	d106      	bne.n	80086b0 <USBD_CDC_ReceivePacket+0x2c>
 80086a2:	2380      	movs	r3, #128	@ 0x80
 80086a4:	2101      	movs	r1, #1
 80086a6:	009b      	lsls	r3, r3, #2
 80086a8:	f001 f802 	bl	80096b0 <USBD_LL_PrepareReceive>
 80086ac:	2000      	movs	r0, #0
 80086ae:	bd10      	pop	{r4, pc}
 80086b0:	2340      	movs	r3, #64	@ 0x40
 80086b2:	2101      	movs	r1, #1
 80086b4:	f000 fffc 	bl	80096b0 <USBD_LL_PrepareReceive>
 80086b8:	e7f8      	b.n	80086ac <USBD_CDC_ReceivePacket+0x28>
 80086ba:	2003      	movs	r0, #3
 80086bc:	e7f7      	b.n	80086ae <USBD_CDC_ReceivePacket+0x2a>
 80086be:	46c0      	nop			@ (mov r8, r8)

080086c0 <USBD_Init>:
 80086c0:	b510      	push	{r4, lr}
 80086c2:	2800      	cmp	r0, #0
 80086c4:	d014      	beq.n	80086f0 <USBD_Init+0x30>
 80086c6:	24ae      	movs	r4, #174	@ 0xae
 80086c8:	2300      	movs	r3, #0
 80086ca:	00a4      	lsls	r4, r4, #2
 80086cc:	5103      	str	r3, [r0, r4]
 80086ce:	340c      	adds	r4, #12
 80086d0:	5103      	str	r3, [r0, r4]
 80086d2:	340c      	adds	r4, #12
 80086d4:	5103      	str	r3, [r0, r4]
 80086d6:	2900      	cmp	r1, #0
 80086d8:	d002      	beq.n	80086e0 <USBD_Init+0x20>
 80086da:	23ad      	movs	r3, #173	@ 0xad
 80086dc:	009b      	lsls	r3, r3, #2
 80086de:	50c1      	str	r1, [r0, r3]
 80086e0:	23a7      	movs	r3, #167	@ 0xa7
 80086e2:	2101      	movs	r1, #1
 80086e4:	009b      	lsls	r3, r3, #2
 80086e6:	54c1      	strb	r1, [r0, r3]
 80086e8:	7002      	strb	r2, [r0, #0]
 80086ea:	f000 ff13 	bl	8009514 <USBD_LL_Init>
 80086ee:	bd10      	pop	{r4, pc}
 80086f0:	2003      	movs	r0, #3
 80086f2:	e7fc      	b.n	80086ee <USBD_Init+0x2e>

080086f4 <USBD_RegisterClass>:
 80086f4:	b510      	push	{r4, lr}
 80086f6:	b082      	sub	sp, #8
 80086f8:	466b      	mov	r3, sp
 80086fa:	0004      	movs	r4, r0
 80086fc:	1d98      	adds	r0, r3, #6
 80086fe:	2300      	movs	r3, #0
 8008700:	8003      	strh	r3, [r0, #0]
 8008702:	2900      	cmp	r1, #0
 8008704:	d011      	beq.n	800872a <USBD_RegisterClass+0x36>
 8008706:	23ae      	movs	r3, #174	@ 0xae
 8008708:	009b      	lsls	r3, r3, #2
 800870a:	50e1      	str	r1, [r4, r3]
 800870c:	6acb      	ldr	r3, [r1, #44]	@ 0x2c
 800870e:	2b00      	cmp	r3, #0
 8008710:	d003      	beq.n	800871a <USBD_RegisterClass+0x26>
 8008712:	4798      	blx	r3
 8008714:	23b4      	movs	r3, #180	@ 0xb4
 8008716:	009b      	lsls	r3, r3, #2
 8008718:	50e0      	str	r0, [r4, r3]
 800871a:	22b6      	movs	r2, #182	@ 0xb6
 800871c:	2000      	movs	r0, #0
 800871e:	0092      	lsls	r2, r2, #2
 8008720:	58a3      	ldr	r3, [r4, r2]
 8008722:	3301      	adds	r3, #1
 8008724:	50a3      	str	r3, [r4, r2]
 8008726:	b002      	add	sp, #8
 8008728:	bd10      	pop	{r4, pc}
 800872a:	2003      	movs	r0, #3
 800872c:	e7fb      	b.n	8008726 <USBD_RegisterClass+0x32>
 800872e:	46c0      	nop			@ (mov r8, r8)

08008730 <USBD_Start>:
 8008730:	b510      	push	{r4, lr}
 8008732:	f000 ff33 	bl	800959c <USBD_LL_Start>
 8008736:	bd10      	pop	{r4, pc}

08008738 <USBD_SetClassConfig>:
 8008738:	23ae      	movs	r3, #174	@ 0xae
 800873a:	009b      	lsls	r3, r3, #2
 800873c:	58c3      	ldr	r3, [r0, r3]
 800873e:	b510      	push	{r4, lr}
 8008740:	2b00      	cmp	r3, #0
 8008742:	d002      	beq.n	800874a <USBD_SetClassConfig+0x12>
 8008744:	681b      	ldr	r3, [r3, #0]
 8008746:	4798      	blx	r3
 8008748:	bd10      	pop	{r4, pc}
 800874a:	2000      	movs	r0, #0
 800874c:	e7fc      	b.n	8008748 <USBD_SetClassConfig+0x10>
 800874e:	46c0      	nop			@ (mov r8, r8)

08008750 <USBD_ClrClassConfig>:
 8008750:	23ae      	movs	r3, #174	@ 0xae
 8008752:	009b      	lsls	r3, r3, #2
 8008754:	58c3      	ldr	r3, [r0, r3]
 8008756:	b510      	push	{r4, lr}
 8008758:	685b      	ldr	r3, [r3, #4]
 800875a:	4798      	blx	r3
 800875c:	2800      	cmp	r0, #0
 800875e:	d000      	beq.n	8008762 <USBD_ClrClassConfig+0x12>
 8008760:	2003      	movs	r0, #3
 8008762:	bd10      	pop	{r4, pc}

08008764 <USBD_LL_SetupStage>:
 8008764:	4b16      	ldr	r3, [pc, #88]	@ (80087c0 <USBD_LL_SetupStage+0x5c>)
 8008766:	b570      	push	{r4, r5, r6, lr}
 8008768:	18c5      	adds	r5, r0, r3
 800876a:	0004      	movs	r4, r0
 800876c:	0028      	movs	r0, r5
 800876e:	f000 fc0d 	bl	8008f8c <USBD_ParseSetupRequest>
 8008772:	23a5      	movs	r3, #165	@ 0xa5
 8008774:	2201      	movs	r2, #1
 8008776:	009b      	lsls	r3, r3, #2
 8008778:	50e2      	str	r2, [r4, r3]
 800877a:	331c      	adds	r3, #28
 800877c:	5ae2      	ldrh	r2, [r4, r3]
 800877e:	3b18      	subs	r3, #24
 8008780:	50e2      	str	r2, [r4, r3]
 8008782:	4b0f      	ldr	r3, [pc, #60]	@ (80087c0 <USBD_LL_SetupStage+0x5c>)
 8008784:	5ce1      	ldrb	r1, [r4, r3]
 8008786:	231f      	movs	r3, #31
 8008788:	400b      	ands	r3, r1
 800878a:	2b01      	cmp	r3, #1
 800878c:	d00d      	beq.n	80087aa <USBD_LL_SetupStage+0x46>
 800878e:	2b02      	cmp	r3, #2
 8008790:	d006      	beq.n	80087a0 <USBD_LL_SetupStage+0x3c>
 8008792:	2b00      	cmp	r3, #0
 8008794:	d10e      	bne.n	80087b4 <USBD_LL_SetupStage+0x50>
 8008796:	0029      	movs	r1, r5
 8008798:	0020      	movs	r0, r4
 800879a:	f000 f941 	bl	8008a20 <USBD_StdDevReq>
 800879e:	bd70      	pop	{r4, r5, r6, pc}
 80087a0:	0029      	movs	r1, r5
 80087a2:	0020      	movs	r0, r4
 80087a4:	f000 fb32 	bl	8008e0c <USBD_StdEPReq>
 80087a8:	e7f9      	b.n	800879e <USBD_LL_SetupStage+0x3a>
 80087aa:	0029      	movs	r1, r5
 80087ac:	0020      	movs	r0, r4
 80087ae:	f000 faf3 	bl	8008d98 <USBD_StdItfReq>
 80087b2:	e7f4      	b.n	800879e <USBD_LL_SetupStage+0x3a>
 80087b4:	237f      	movs	r3, #127	@ 0x7f
 80087b6:	0020      	movs	r0, r4
 80087b8:	4399      	bics	r1, r3
 80087ba:	f000 ff23 	bl	8009604 <USBD_LL_StallEP>
 80087be:	e7ee      	b.n	800879e <USBD_LL_SetupStage+0x3a>
 80087c0:	000002aa 	.word	0x000002aa

080087c4 <USBD_LL_DataOutStage>:
 80087c4:	b570      	push	{r4, r5, r6, lr}
 80087c6:	0013      	movs	r3, r2
 80087c8:	0004      	movs	r4, r0
 80087ca:	2900      	cmp	r1, #0
 80087cc:	d106      	bne.n	80087dc <USBD_LL_DataOutStage+0x18>
 80087ce:	22a5      	movs	r2, #165	@ 0xa5
 80087d0:	0092      	lsls	r2, r2, #2
 80087d2:	5882      	ldr	r2, [r0, r2]
 80087d4:	2a03      	cmp	r2, #3
 80087d6:	d013      	beq.n	8008800 <USBD_LL_DataOutStage+0x3c>
 80087d8:	2000      	movs	r0, #0
 80087da:	bd70      	pop	{r4, r5, r6, pc}
 80087dc:	23a7      	movs	r3, #167	@ 0xa7
 80087de:	009b      	lsls	r3, r3, #2
 80087e0:	5cc3      	ldrb	r3, [r0, r3]
 80087e2:	2b03      	cmp	r3, #3
 80087e4:	d1f8      	bne.n	80087d8 <USBD_LL_DataOutStage+0x14>
 80087e6:	23ae      	movs	r3, #174	@ 0xae
 80087e8:	009b      	lsls	r3, r3, #2
 80087ea:	58c3      	ldr	r3, [r0, r3]
 80087ec:	699b      	ldr	r3, [r3, #24]
 80087ee:	2b00      	cmp	r3, #0
 80087f0:	d0f2      	beq.n	80087d8 <USBD_LL_DataOutStage+0x14>
 80087f2:	22b5      	movs	r2, #181	@ 0xb5
 80087f4:	2000      	movs	r0, #0
 80087f6:	0092      	lsls	r2, r2, #2
 80087f8:	50a0      	str	r0, [r4, r2]
 80087fa:	0020      	movs	r0, r4
 80087fc:	4798      	blx	r3
 80087fe:	e7ec      	b.n	80087da <USBD_LL_DataOutStage+0x16>
 8008800:	0005      	movs	r5, r0
 8008802:	3555      	adds	r5, #85	@ 0x55
 8008804:	35ff      	adds	r5, #255	@ 0xff
 8008806:	68a8      	ldr	r0, [r5, #8]
 8008808:	68ea      	ldr	r2, [r5, #12]
 800880a:	4290      	cmp	r0, r2
 800880c:	d808      	bhi.n	8008820 <USBD_LL_DataOutStage+0x5c>
 800880e:	23a7      	movs	r3, #167	@ 0xa7
 8008810:	009b      	lsls	r3, r3, #2
 8008812:	5ce3      	ldrb	r3, [r4, r3]
 8008814:	2b03      	cmp	r3, #3
 8008816:	d00e      	beq.n	8008836 <USBD_LL_DataOutStage+0x72>
 8008818:	0020      	movs	r0, r4
 800881a:	f000 fc2d 	bl	8009078 <USBD_CtlSendStatus>
 800881e:	e7db      	b.n	80087d8 <USBD_LL_DataOutStage+0x14>
 8008820:	1a80      	subs	r0, r0, r2
 8008822:	60a8      	str	r0, [r5, #8]
 8008824:	4282      	cmp	r2, r0
 8008826:	d804      	bhi.n	8008832 <USBD_LL_DataOutStage+0x6e>
 8008828:	0019      	movs	r1, r3
 800882a:	0020      	movs	r0, r4
 800882c:	f000 fc1c 	bl	8009068 <USBD_CtlContinueRx>
 8008830:	e7d2      	b.n	80087d8 <USBD_LL_DataOutStage+0x14>
 8008832:	0002      	movs	r2, r0
 8008834:	e7f8      	b.n	8008828 <USBD_LL_DataOutStage+0x64>
 8008836:	23ae      	movs	r3, #174	@ 0xae
 8008838:	009b      	lsls	r3, r3, #2
 800883a:	58e3      	ldr	r3, [r4, r3]
 800883c:	691b      	ldr	r3, [r3, #16]
 800883e:	2b00      	cmp	r3, #0
 8008840:	d0ea      	beq.n	8008818 <USBD_LL_DataOutStage+0x54>
 8008842:	22b5      	movs	r2, #181	@ 0xb5
 8008844:	0092      	lsls	r2, r2, #2
 8008846:	0020      	movs	r0, r4
 8008848:	50a1      	str	r1, [r4, r2]
 800884a:	4798      	blx	r3
 800884c:	e7e4      	b.n	8008818 <USBD_LL_DataOutStage+0x54>
 800884e:	46c0      	nop			@ (mov r8, r8)

08008850 <USBD_LL_DataInStage>:
 8008850:	b570      	push	{r4, r5, r6, lr}
 8008852:	000d      	movs	r5, r1
 8008854:	0004      	movs	r4, r0
 8008856:	0011      	movs	r1, r2
 8008858:	2d00      	cmp	r5, #0
 800885a:	d10b      	bne.n	8008874 <USBD_LL_DataInStage+0x24>
 800885c:	23a5      	movs	r3, #165	@ 0xa5
 800885e:	009b      	lsls	r3, r3, #2
 8008860:	58c3      	ldr	r3, [r0, r3]
 8008862:	2b02      	cmp	r3, #2
 8008864:	d01b      	beq.n	800889e <USBD_LL_DataInStage+0x4e>
 8008866:	23a8      	movs	r3, #168	@ 0xa8
 8008868:	009b      	lsls	r3, r3, #2
 800886a:	5ce2      	ldrb	r2, [r4, r3]
 800886c:	2a00      	cmp	r2, #0
 800886e:	d113      	bne.n	8008898 <USBD_LL_DataInStage+0x48>
 8008870:	2000      	movs	r0, #0
 8008872:	bd70      	pop	{r4, r5, r6, pc}
 8008874:	23a7      	movs	r3, #167	@ 0xa7
 8008876:	009b      	lsls	r3, r3, #2
 8008878:	5cc3      	ldrb	r3, [r0, r3]
 800887a:	2b03      	cmp	r3, #3
 800887c:	d1f8      	bne.n	8008870 <USBD_LL_DataInStage+0x20>
 800887e:	23ae      	movs	r3, #174	@ 0xae
 8008880:	009b      	lsls	r3, r3, #2
 8008882:	58c3      	ldr	r3, [r0, r3]
 8008884:	695b      	ldr	r3, [r3, #20]
 8008886:	2b00      	cmp	r3, #0
 8008888:	d0f2      	beq.n	8008870 <USBD_LL_DataInStage+0x20>
 800888a:	22b5      	movs	r2, #181	@ 0xb5
 800888c:	2100      	movs	r1, #0
 800888e:	0092      	lsls	r2, r2, #2
 8008890:	5081      	str	r1, [r0, r2]
 8008892:	0029      	movs	r1, r5
 8008894:	4798      	blx	r3
 8008896:	e7ec      	b.n	8008872 <USBD_LL_DataInStage+0x22>
 8008898:	2200      	movs	r2, #0
 800889a:	54e2      	strb	r2, [r4, r3]
 800889c:	e7e8      	b.n	8008870 <USBD_LL_DataInStage+0x20>
 800889e:	69c2      	ldr	r2, [r0, #28]
 80088a0:	6a03      	ldr	r3, [r0, #32]
 80088a2:	429a      	cmp	r2, r3
 80088a4:	d812      	bhi.n	80088cc <USBD_LL_DataInStage+0x7c>
 80088a6:	d01c      	beq.n	80088e2 <USBD_LL_DataInStage+0x92>
 80088a8:	23a7      	movs	r3, #167	@ 0xa7
 80088aa:	009b      	lsls	r3, r3, #2
 80088ac:	5ce3      	ldrb	r3, [r4, r3]
 80088ae:	2b03      	cmp	r3, #3
 80088b0:	d025      	beq.n	80088fe <USBD_LL_DataInStage+0xae>
 80088b2:	2180      	movs	r1, #128	@ 0x80
 80088b4:	0020      	movs	r0, r4
 80088b6:	f000 fea5 	bl	8009604 <USBD_LL_StallEP>
 80088ba:	0020      	movs	r0, r4
 80088bc:	f000 fbe8 	bl	8009090 <USBD_CtlReceiveStatus>
 80088c0:	23a8      	movs	r3, #168	@ 0xa8
 80088c2:	009b      	lsls	r3, r3, #2
 80088c4:	5ce2      	ldrb	r2, [r4, r3]
 80088c6:	2a00      	cmp	r2, #0
 80088c8:	d0d2      	beq.n	8008870 <USBD_LL_DataInStage+0x20>
 80088ca:	e7e5      	b.n	8008898 <USBD_LL_DataInStage+0x48>
 80088cc:	1ad2      	subs	r2, r2, r3
 80088ce:	61c2      	str	r2, [r0, #28]
 80088d0:	f000 fbb0 	bl	8009034 <USBD_CtlContinueSendData>
 80088d4:	2300      	movs	r3, #0
 80088d6:	2200      	movs	r2, #0
 80088d8:	2100      	movs	r1, #0
 80088da:	0020      	movs	r0, r4
 80088dc:	f000 fee8 	bl	80096b0 <USBD_LL_PrepareReceive>
 80088e0:	e7c1      	b.n	8008866 <USBD_LL_DataInStage+0x16>
 80088e2:	6983      	ldr	r3, [r0, #24]
 80088e4:	429a      	cmp	r2, r3
 80088e6:	d8df      	bhi.n	80088a8 <USBD_LL_DataInStage+0x58>
 80088e8:	26a6      	movs	r6, #166	@ 0xa6
 80088ea:	00b6      	lsls	r6, r6, #2
 80088ec:	5982      	ldr	r2, [r0, r6]
 80088ee:	4293      	cmp	r3, r2
 80088f0:	d2da      	bcs.n	80088a8 <USBD_LL_DataInStage+0x58>
 80088f2:	2200      	movs	r2, #0
 80088f4:	2100      	movs	r1, #0
 80088f6:	f000 fb9d 	bl	8009034 <USBD_CtlContinueSendData>
 80088fa:	51a5      	str	r5, [r4, r6]
 80088fc:	e7ea      	b.n	80088d4 <USBD_LL_DataInStage+0x84>
 80088fe:	23ae      	movs	r3, #174	@ 0xae
 8008900:	009b      	lsls	r3, r3, #2
 8008902:	58e3      	ldr	r3, [r4, r3]
 8008904:	68db      	ldr	r3, [r3, #12]
 8008906:	2b00      	cmp	r3, #0
 8008908:	d0d3      	beq.n	80088b2 <USBD_LL_DataInStage+0x62>
 800890a:	22b5      	movs	r2, #181	@ 0xb5
 800890c:	2100      	movs	r1, #0
 800890e:	0092      	lsls	r2, r2, #2
 8008910:	0020      	movs	r0, r4
 8008912:	50a1      	str	r1, [r4, r2]
 8008914:	4798      	blx	r3
 8008916:	e7cc      	b.n	80088b2 <USBD_LL_DataInStage+0x62>

08008918 <USBD_LL_Reset>:
 8008918:	b5f8      	push	{r3, r4, r5, r6, r7, lr}
 800891a:	23a7      	movs	r3, #167	@ 0xa7
 800891c:	2201      	movs	r2, #1
 800891e:	009b      	lsls	r3, r3, #2
 8008920:	54c2      	strb	r2, [r0, r3]
 8008922:	22a5      	movs	r2, #165	@ 0xa5
 8008924:	2300      	movs	r3, #0
 8008926:	0092      	lsls	r2, r2, #2
 8008928:	5083      	str	r3, [r0, r2]
 800892a:	3210      	adds	r2, #16
 800892c:	6043      	str	r3, [r0, #4]
 800892e:	5083      	str	r3, [r0, r2]
 8008930:	3a04      	subs	r2, #4
 8008932:	5483      	strb	r3, [r0, r2]
 8008934:	23ae      	movs	r3, #174	@ 0xae
 8008936:	009b      	lsls	r3, r3, #2
 8008938:	58c3      	ldr	r3, [r0, r3]
 800893a:	0004      	movs	r4, r0
 800893c:	2b00      	cmp	r3, #0
 800893e:	d006      	beq.n	800894e <USBD_LL_Reset+0x36>
 8008940:	685b      	ldr	r3, [r3, #4]
 8008942:	2b00      	cmp	r3, #0
 8008944:	d003      	beq.n	800894e <USBD_LL_Reset+0x36>
 8008946:	2100      	movs	r1, #0
 8008948:	4798      	blx	r3
 800894a:	2800      	cmp	r0, #0
 800894c:	d118      	bne.n	8008980 <USBD_LL_Reset+0x68>
 800894e:	2700      	movs	r7, #0
 8008950:	2340      	movs	r3, #64	@ 0x40
 8008952:	2200      	movs	r2, #0
 8008954:	2100      	movs	r1, #0
 8008956:	0020      	movs	r0, r4
 8008958:	f000 fe30 	bl	80095bc <USBD_LL_OpenEP>
 800895c:	23b2      	movs	r3, #178	@ 0xb2
 800895e:	2601      	movs	r6, #1
 8008960:	2540      	movs	r5, #64	@ 0x40
 8008962:	005b      	lsls	r3, r3, #1
 8008964:	52e6      	strh	r6, [r4, r3]
 8008966:	3b04      	subs	r3, #4
 8008968:	50e5      	str	r5, [r4, r3]
 800896a:	3b21      	subs	r3, #33	@ 0x21
 800896c:	2200      	movs	r2, #0
 800896e:	2180      	movs	r1, #128	@ 0x80
 8008970:	0020      	movs	r0, r4
 8008972:	3bff      	subs	r3, #255	@ 0xff
 8008974:	f000 fe22 	bl	80095bc <USBD_LL_OpenEP>
 8008978:	0038      	movs	r0, r7
 800897a:	84a6      	strh	r6, [r4, #36]	@ 0x24
 800897c:	6225      	str	r5, [r4, #32]
 800897e:	bdf8      	pop	{r3, r4, r5, r6, r7, pc}
 8008980:	2703      	movs	r7, #3
 8008982:	e7e5      	b.n	8008950 <USBD_LL_Reset+0x38>

08008984 <USBD_LL_SetSpeed>:
 8008984:	7401      	strb	r1, [r0, #16]
 8008986:	2000      	movs	r0, #0
 8008988:	4770      	bx	lr
 800898a:	46c0      	nop			@ (mov r8, r8)

0800898c <USBD_LL_Suspend>:
 800898c:	22a7      	movs	r2, #167	@ 0xa7
 800898e:	0092      	lsls	r2, r2, #2
 8008990:	5c83      	ldrb	r3, [r0, r2]
 8008992:	4903      	ldr	r1, [pc, #12]	@ (80089a0 <USBD_LL_Suspend+0x14>)
 8008994:	b2db      	uxtb	r3, r3
 8008996:	5443      	strb	r3, [r0, r1]
 8008998:	2304      	movs	r3, #4
 800899a:	5483      	strb	r3, [r0, r2]
 800899c:	2000      	movs	r0, #0
 800899e:	4770      	bx	lr
 80089a0:	0000029d 	.word	0x0000029d

080089a4 <USBD_LL_Resume>:
 80089a4:	23a7      	movs	r3, #167	@ 0xa7
 80089a6:	009b      	lsls	r3, r3, #2
 80089a8:	5cc2      	ldrb	r2, [r0, r3]
 80089aa:	2a04      	cmp	r2, #4
 80089ac:	d103      	bne.n	80089b6 <USBD_LL_Resume+0x12>
 80089ae:	4a03      	ldr	r2, [pc, #12]	@ (80089bc <USBD_LL_Resume+0x18>)
 80089b0:	5c82      	ldrb	r2, [r0, r2]
 80089b2:	b2d2      	uxtb	r2, r2
 80089b4:	54c2      	strb	r2, [r0, r3]
 80089b6:	2000      	movs	r0, #0
 80089b8:	4770      	bx	lr
 80089ba:	46c0      	nop			@ (mov r8, r8)
 80089bc:	0000029d 	.word	0x0000029d

080089c0 <USBD_LL_SOF>:
 80089c0:	23a7      	movs	r3, #167	@ 0xa7
 80089c2:	b510      	push	{r4, lr}
 80089c4:	009b      	lsls	r3, r3, #2
 80089c6:	5cc3      	ldrb	r3, [r0, r3]
 80089c8:	2b03      	cmp	r3, #3
 80089ca:	d001      	beq.n	80089d0 <USBD_LL_SOF+0x10>
 80089cc:	2000      	movs	r0, #0
 80089ce:	bd10      	pop	{r4, pc}
 80089d0:	23ae      	movs	r3, #174	@ 0xae
 80089d2:	009b      	lsls	r3, r3, #2
 80089d4:	58c3      	ldr	r3, [r0, r3]
 80089d6:	2b00      	cmp	r3, #0
 80089d8:	d0f8      	beq.n	80089cc <USBD_LL_SOF+0xc>
 80089da:	69db      	ldr	r3, [r3, #28]
 80089dc:	2b00      	cmp	r3, #0
 80089de:	d0f5      	beq.n	80089cc <USBD_LL_SOF+0xc>
 80089e0:	4798      	blx	r3
 80089e2:	e7f3      	b.n	80089cc <USBD_LL_SOF+0xc>

080089e4 <USBD_CoreFindIF>:
 80089e4:	2000      	movs	r0, #0
 80089e6:	4770      	bx	lr

080089e8 <USBD_CoreFindEP>:
 80089e8:	2000      	movs	r0, #0
 80089ea:	4770      	bx	lr

080089ec <USBD_GetEpDesc>:
 80089ec:	b510      	push	{r4, lr}
 80089ee:	78c4      	ldrb	r4, [r0, #3]
 80089f0:	7883      	ldrb	r3, [r0, #2]
 80089f2:	7802      	ldrb	r2, [r0, #0]
 80089f4:	0224      	lsls	r4, r4, #8
 80089f6:	431c      	orrs	r4, r3
 80089f8:	0013      	movs	r3, r2
 80089fa:	4294      	cmp	r4, r2
 80089fc:	d803      	bhi.n	8008a06 <USBD_GetEpDesc+0x1a>
 80089fe:	e00c      	b.n	8008a1a <USBD_GetEpDesc+0x2e>
 8008a00:	429c      	cmp	r4, r3
 8008a02:	d90a      	bls.n	8008a1a <USBD_GetEpDesc+0x2e>
 8008a04:	7802      	ldrb	r2, [r0, #0]
 8008a06:	1880      	adds	r0, r0, r2
 8008a08:	18d3      	adds	r3, r2, r3
 8008a0a:	7842      	ldrb	r2, [r0, #1]
 8008a0c:	b29b      	uxth	r3, r3
 8008a0e:	2a05      	cmp	r2, #5
 8008a10:	d1f6      	bne.n	8008a00 <USBD_GetEpDesc+0x14>
 8008a12:	7882      	ldrb	r2, [r0, #2]
 8008a14:	428a      	cmp	r2, r1
 8008a16:	d1f3      	bne.n	8008a00 <USBD_GetEpDesc+0x14>
 8008a18:	bd10      	pop	{r4, pc}
 8008a1a:	2000      	movs	r0, #0
 8008a1c:	e7fc      	b.n	8008a18 <USBD_GetEpDesc+0x2c>
 8008a1e:	46c0      	nop			@ (mov r8, r8)

08008a20 <USBD_StdDevReq>:
 8008a20:	2360      	movs	r3, #96	@ 0x60
 8008a22:	780a      	ldrb	r2, [r1, #0]
 8008a24:	b5f0      	push	{r4, r5, r6, r7, lr}
 8008a26:	4013      	ands	r3, r2
 8008a28:	000d      	movs	r5, r1
 8008a2a:	0019      	movs	r1, r3
 8008a2c:	22c0      	movs	r2, #192	@ 0xc0
 8008a2e:	3920      	subs	r1, #32
 8008a30:	0004      	movs	r4, r0
 8008a32:	b083      	sub	sp, #12
 8008a34:	4211      	tst	r1, r2
 8008a36:	d019      	beq.n	8008a6c <USBD_StdDevReq+0x4c>
 8008a38:	2b00      	cmp	r3, #0
 8008a3a:	d10d      	bne.n	8008a58 <USBD_StdDevReq+0x38>
 8008a3c:	786b      	ldrb	r3, [r5, #1]
 8008a3e:	2b09      	cmp	r3, #9
 8008a40:	d80a      	bhi.n	8008a58 <USBD_StdDevReq+0x38>
 8008a42:	4ac4      	ldr	r2, [pc, #784]	@ (8008d54 <USBD_StdDevReq+0x334>)
 8008a44:	009b      	lsls	r3, r3, #2
 8008a46:	58d3      	ldr	r3, [r2, r3]
 8008a48:	469f      	mov	pc, r3
 8008a4a:	23ad      	movs	r3, #173	@ 0xad
 8008a4c:	009b      	lsls	r3, r3, #2
 8008a4e:	58c3      	ldr	r3, [r0, r3]
 8008a50:	685b      	ldr	r3, [r3, #4]
 8008a52:	2b00      	cmp	r3, #0
 8008a54:	d000      	beq.n	8008a58 <USBD_StdDevReq+0x38>
 8008a56:	e0b6      	b.n	8008bc6 <USBD_StdDevReq+0x1a6>
 8008a58:	2180      	movs	r1, #128	@ 0x80
 8008a5a:	0020      	movs	r0, r4
 8008a5c:	f000 fdd2 	bl	8009604 <USBD_LL_StallEP>
 8008a60:	2100      	movs	r1, #0
 8008a62:	0020      	movs	r0, r4
 8008a64:	f000 fdce 	bl	8009604 <USBD_LL_StallEP>
 8008a68:	2500      	movs	r5, #0
 8008a6a:	e009      	b.n	8008a80 <USBD_StdDevReq+0x60>
 8008a6c:	23b5      	movs	r3, #181	@ 0xb5
 8008a6e:	009b      	lsls	r3, r3, #2
 8008a70:	58c3      	ldr	r3, [r0, r3]
 8008a72:	0029      	movs	r1, r5
 8008a74:	33ae      	adds	r3, #174	@ 0xae
 8008a76:	009b      	lsls	r3, r3, #2
 8008a78:	581b      	ldr	r3, [r3, r0]
 8008a7a:	689b      	ldr	r3, [r3, #8]
 8008a7c:	4798      	blx	r3
 8008a7e:	0005      	movs	r5, r0
 8008a80:	0028      	movs	r0, r5
 8008a82:	b003      	add	sp, #12
 8008a84:	bdf0      	pop	{r4, r5, r6, r7, pc}
 8008a86:	23a7      	movs	r3, #167	@ 0xa7
 8008a88:	009b      	lsls	r3, r3, #2
 8008a8a:	5cc3      	ldrb	r3, [r0, r3]
 8008a8c:	3b01      	subs	r3, #1
 8008a8e:	2b02      	cmp	r3, #2
 8008a90:	d8e2      	bhi.n	8008a58 <USBD_StdDevReq+0x38>
 8008a92:	88eb      	ldrh	r3, [r5, #6]
 8008a94:	2b02      	cmp	r3, #2
 8008a96:	d1df      	bne.n	8008a58 <USBD_StdDevReq+0x38>
 8008a98:	23a9      	movs	r3, #169	@ 0xa9
 8008a9a:	009b      	lsls	r3, r3, #2
 8008a9c:	58c3      	ldr	r3, [r0, r3]
 8008a9e:	0001      	movs	r1, r0
 8008aa0:	425a      	negs	r2, r3
 8008aa2:	4153      	adcs	r3, r2
 8008aa4:	2201      	movs	r2, #1
 8008aa6:	425b      	negs	r3, r3
 8008aa8:	4393      	bics	r3, r2
 8008aaa:	3303      	adds	r3, #3
 8008aac:	60c3      	str	r3, [r0, #12]
 8008aae:	310c      	adds	r1, #12
 8008ab0:	3201      	adds	r2, #1
 8008ab2:	f000 fab1 	bl	8009018 <USBD_CtlSendData>
 8008ab6:	2500      	movs	r5, #0
 8008ab8:	e7e2      	b.n	8008a80 <USBD_StdDevReq+0x60>
 8008aba:	23a7      	movs	r3, #167	@ 0xa7
 8008abc:	009b      	lsls	r3, r3, #2
 8008abe:	5cc3      	ldrb	r3, [r0, r3]
 8008ac0:	3b01      	subs	r3, #1
 8008ac2:	2b02      	cmp	r3, #2
 8008ac4:	d8c8      	bhi.n	8008a58 <USBD_StdDevReq+0x38>
 8008ac6:	886b      	ldrh	r3, [r5, #2]
 8008ac8:	2b01      	cmp	r3, #1
 8008aca:	d1cd      	bne.n	8008a68 <USBD_StdDevReq+0x48>
 8008acc:	23a9      	movs	r3, #169	@ 0xa9
 8008ace:	2200      	movs	r2, #0
 8008ad0:	009b      	lsls	r3, r3, #2
 8008ad2:	50c2      	str	r2, [r0, r3]
 8008ad4:	0020      	movs	r0, r4
 8008ad6:	f000 facf 	bl	8009078 <USBD_CtlSendStatus>
 8008ada:	2500      	movs	r5, #0
 8008adc:	e7d0      	b.n	8008a80 <USBD_StdDevReq+0x60>
 8008ade:	886b      	ldrh	r3, [r5, #2]
 8008ae0:	2b01      	cmp	r3, #1
 8008ae2:	d100      	bne.n	8008ae6 <USBD_StdDevReq+0xc6>
 8008ae4:	e126      	b.n	8008d34 <USBD_StdDevReq+0x314>
 8008ae6:	2b02      	cmp	r3, #2
 8008ae8:	d1b6      	bne.n	8008a58 <USBD_StdDevReq+0x38>
 8008aea:	22a8      	movs	r2, #168	@ 0xa8
 8008aec:	88ab      	ldrh	r3, [r5, #4]
 8008aee:	0092      	lsls	r2, r2, #2
 8008af0:	0a1b      	lsrs	r3, r3, #8
 8008af2:	5483      	strb	r3, [r0, r2]
 8008af4:	f000 fac0 	bl	8009078 <USBD_CtlSendStatus>
 8008af8:	2500      	movs	r5, #0
 8008afa:	e7c1      	b.n	8008a80 <USBD_StdDevReq+0x60>
 8008afc:	88ab      	ldrh	r3, [r5, #4]
 8008afe:	2b00      	cmp	r3, #0
 8008b00:	d1aa      	bne.n	8008a58 <USBD_StdDevReq+0x38>
 8008b02:	88eb      	ldrh	r3, [r5, #6]
 8008b04:	2b00      	cmp	r3, #0
 8008b06:	d1a7      	bne.n	8008a58 <USBD_StdDevReq+0x38>
 8008b08:	886d      	ldrh	r5, [r5, #2]
 8008b0a:	2d7f      	cmp	r5, #127	@ 0x7f
 8008b0c:	d8a4      	bhi.n	8008a58 <USBD_StdDevReq+0x38>
 8008b0e:	26a7      	movs	r6, #167	@ 0xa7
 8008b10:	00b6      	lsls	r6, r6, #2
 8008b12:	5d82      	ldrb	r2, [r0, r6]
 8008b14:	2a03      	cmp	r2, #3
 8008b16:	d09f      	beq.n	8008a58 <USBD_StdDevReq+0x38>
 8008b18:	4b8f      	ldr	r3, [pc, #572]	@ (8008d58 <USBD_StdDevReq+0x338>)
 8008b1a:	b2ed      	uxtb	r5, r5
 8008b1c:	0029      	movs	r1, r5
 8008b1e:	54c5      	strb	r5, [r0, r3]
 8008b20:	f000 fda6 	bl	8009670 <USBD_LL_SetUSBAddress>
 8008b24:	0020      	movs	r0, r4
 8008b26:	f000 faa7 	bl	8009078 <USBD_CtlSendStatus>
 8008b2a:	2d00      	cmp	r5, #0
 8008b2c:	d100      	bne.n	8008b30 <USBD_StdDevReq+0x110>
 8008b2e:	e12f      	b.n	8008d90 <USBD_StdDevReq+0x370>
 8008b30:	2302      	movs	r3, #2
 8008b32:	2500      	movs	r5, #0
 8008b34:	55a3      	strb	r3, [r4, r6]
 8008b36:	e7a3      	b.n	8008a80 <USBD_StdDevReq+0x60>
 8008b38:	88eb      	ldrh	r3, [r5, #6]
 8008b3a:	2b01      	cmp	r3, #1
 8008b3c:	d000      	beq.n	8008b40 <USBD_StdDevReq+0x120>
 8008b3e:	e78b      	b.n	8008a58 <USBD_StdDevReq+0x38>
 8008b40:	23a7      	movs	r3, #167	@ 0xa7
 8008b42:	009b      	lsls	r3, r3, #2
 8008b44:	5cc3      	ldrb	r3, [r0, r3]
 8008b46:	b2da      	uxtb	r2, r3
 8008b48:	2b02      	cmp	r3, #2
 8008b4a:	d900      	bls.n	8008b4e <USBD_StdDevReq+0x12e>
 8008b4c:	e0e9      	b.n	8008d22 <USBD_StdDevReq+0x302>
 8008b4e:	2a00      	cmp	r2, #0
 8008b50:	d100      	bne.n	8008b54 <USBD_StdDevReq+0x134>
 8008b52:	e781      	b.n	8008a58 <USBD_StdDevReq+0x38>
 8008b54:	2300      	movs	r3, #0
 8008b56:	0001      	movs	r1, r0
 8008b58:	2201      	movs	r2, #1
 8008b5a:	6083      	str	r3, [r0, #8]
 8008b5c:	3108      	adds	r1, #8
 8008b5e:	f000 fa5b 	bl	8009018 <USBD_CtlSendData>
 8008b62:	2500      	movs	r5, #0
 8008b64:	e78c      	b.n	8008a80 <USBD_StdDevReq+0x60>
 8008b66:	2300      	movs	r3, #0
 8008b68:	466a      	mov	r2, sp
 8008b6a:	80d3      	strh	r3, [r2, #6]
 8008b6c:	886a      	ldrh	r2, [r5, #2]
 8008b6e:	0a13      	lsrs	r3, r2, #8
 8008b70:	2b0f      	cmp	r3, #15
 8008b72:	d900      	bls.n	8008b76 <USBD_StdDevReq+0x156>
 8008b74:	e770      	b.n	8008a58 <USBD_StdDevReq+0x38>
 8008b76:	4979      	ldr	r1, [pc, #484]	@ (8008d5c <USBD_StdDevReq+0x33c>)
 8008b78:	009b      	lsls	r3, r3, #2
 8008b7a:	58cb      	ldr	r3, [r1, r3]
 8008b7c:	469f      	mov	pc, r3
 8008b7e:	78ab      	ldrb	r3, [r5, #2]
 8008b80:	4d77      	ldr	r5, [pc, #476]	@ (8008d60 <USBD_StdDevReq+0x340>)
 8008b82:	702b      	strb	r3, [r5, #0]
 8008b84:	2b01      	cmp	r3, #1
 8008b86:	d900      	bls.n	8008b8a <USBD_StdDevReq+0x16a>
 8008b88:	e0db      	b.n	8008d42 <USBD_StdDevReq+0x322>
 8008b8a:	26a7      	movs	r6, #167	@ 0xa7
 8008b8c:	00b6      	lsls	r6, r6, #2
 8008b8e:	5d82      	ldrb	r2, [r0, r6]
 8008b90:	b2d7      	uxtb	r7, r2
 8008b92:	2a02      	cmp	r2, #2
 8008b94:	d100      	bne.n	8008b98 <USBD_StdDevReq+0x178>
 8008b96:	e0b0      	b.n	8008cfa <USBD_StdDevReq+0x2da>
 8008b98:	2f03      	cmp	r7, #3
 8008b9a:	d100      	bne.n	8008b9e <USBD_StdDevReq+0x17e>
 8008b9c:	e08d      	b.n	8008cba <USBD_StdDevReq+0x29a>
 8008b9e:	2180      	movs	r1, #128	@ 0x80
 8008ba0:	f000 fd30 	bl	8009604 <USBD_LL_StallEP>
 8008ba4:	2100      	movs	r1, #0
 8008ba6:	0020      	movs	r0, r4
 8008ba8:	f000 fd2c 	bl	8009604 <USBD_LL_StallEP>
 8008bac:	7829      	ldrb	r1, [r5, #0]
 8008bae:	0020      	movs	r0, r4
 8008bb0:	f7ff fdce 	bl	8008750 <USBD_ClrClassConfig>
 8008bb4:	2503      	movs	r5, #3
 8008bb6:	e763      	b.n	8008a80 <USBD_StdDevReq+0x60>
 8008bb8:	23ad      	movs	r3, #173	@ 0xad
 8008bba:	009b      	lsls	r3, r3, #2
 8008bbc:	58c3      	ldr	r3, [r0, r3]
 8008bbe:	69db      	ldr	r3, [r3, #28]
 8008bc0:	2b00      	cmp	r3, #0
 8008bc2:	d100      	bne.n	8008bc6 <USBD_StdDevReq+0x1a6>
 8008bc4:	e748      	b.n	8008a58 <USBD_StdDevReq+0x38>
 8008bc6:	466a      	mov	r2, sp
 8008bc8:	7c20      	ldrb	r0, [r4, #16]
 8008bca:	1d91      	adds	r1, r2, #6
 8008bcc:	4798      	blx	r3
 8008bce:	0001      	movs	r1, r0
 8008bd0:	88eb      	ldrh	r3, [r5, #6]
 8008bd2:	2b00      	cmp	r3, #0
 8008bd4:	d100      	bne.n	8008bd8 <USBD_StdDevReq+0x1b8>
 8008bd6:	e77d      	b.n	8008ad4 <USBD_StdDevReq+0xb4>
 8008bd8:	466a      	mov	r2, sp
 8008bda:	88d2      	ldrh	r2, [r2, #6]
 8008bdc:	2a00      	cmp	r2, #0
 8008bde:	d100      	bne.n	8008be2 <USBD_StdDevReq+0x1c2>
 8008be0:	e73a      	b.n	8008a58 <USBD_StdDevReq+0x38>
 8008be2:	1c18      	adds	r0, r3, #0
 8008be4:	4293      	cmp	r3, r2
 8008be6:	d900      	bls.n	8008bea <USBD_StdDevReq+0x1ca>
 8008be8:	1c10      	adds	r0, r2, #0
 8008bea:	466b      	mov	r3, sp
 8008bec:	b282      	uxth	r2, r0
 8008bee:	80d8      	strh	r0, [r3, #6]
 8008bf0:	0020      	movs	r0, r4
 8008bf2:	f000 fa11 	bl	8009018 <USBD_CtlSendData>
 8008bf6:	2500      	movs	r5, #0
 8008bf8:	e742      	b.n	8008a80 <USBD_StdDevReq+0x60>
 8008bfa:	7c03      	ldrb	r3, [r0, #16]
 8008bfc:	2b00      	cmp	r3, #0
 8008bfe:	d000      	beq.n	8008c02 <USBD_StdDevReq+0x1e2>
 8008c00:	e72a      	b.n	8008a58 <USBD_StdDevReq+0x38>
 8008c02:	23ae      	movs	r3, #174	@ 0xae
 8008c04:	466a      	mov	r2, sp
 8008c06:	009b      	lsls	r3, r3, #2
 8008c08:	58c3      	ldr	r3, [r0, r3]
 8008c0a:	1d90      	adds	r0, r2, #6
 8008c0c:	6b1b      	ldr	r3, [r3, #48]	@ 0x30
 8008c0e:	4798      	blx	r3
 8008c10:	2307      	movs	r3, #7
 8008c12:	0001      	movs	r1, r0
 8008c14:	7043      	strb	r3, [r0, #1]
 8008c16:	e7db      	b.n	8008bd0 <USBD_StdDevReq+0x1b0>
 8008c18:	7c03      	ldrb	r3, [r0, #16]
 8008c1a:	2b00      	cmp	r3, #0
 8008c1c:	d000      	beq.n	8008c20 <USBD_StdDevReq+0x200>
 8008c1e:	e71b      	b.n	8008a58 <USBD_StdDevReq+0x38>
 8008c20:	23ae      	movs	r3, #174	@ 0xae
 8008c22:	466a      	mov	r2, sp
 8008c24:	009b      	lsls	r3, r3, #2
 8008c26:	58c3      	ldr	r3, [r0, r3]
 8008c28:	1d90      	adds	r0, r2, #6
 8008c2a:	6b5b      	ldr	r3, [r3, #52]	@ 0x34
 8008c2c:	4798      	blx	r3
 8008c2e:	0001      	movs	r1, r0
 8008c30:	e7ce      	b.n	8008bd0 <USBD_StdDevReq+0x1b0>
 8008c32:	b2d2      	uxtb	r2, r2
 8008c34:	2a05      	cmp	r2, #5
 8008c36:	d900      	bls.n	8008c3a <USBD_StdDevReq+0x21a>
 8008c38:	e70e      	b.n	8008a58 <USBD_StdDevReq+0x38>
 8008c3a:	4b4a      	ldr	r3, [pc, #296]	@ (8008d64 <USBD_StdDevReq+0x344>)
 8008c3c:	0092      	lsls	r2, r2, #2
 8008c3e:	589b      	ldr	r3, [r3, r2]
 8008c40:	469f      	mov	pc, r3
 8008c42:	23ae      	movs	r3, #174	@ 0xae
 8008c44:	7c02      	ldrb	r2, [r0, #16]
 8008c46:	009b      	lsls	r3, r3, #2
 8008c48:	58c3      	ldr	r3, [r0, r3]
 8008c4a:	2a00      	cmp	r2, #0
 8008c4c:	d000      	beq.n	8008c50 <USBD_StdDevReq+0x230>
 8008c4e:	e096      	b.n	8008d7e <USBD_StdDevReq+0x35e>
 8008c50:	6a9b      	ldr	r3, [r3, #40]	@ 0x28
 8008c52:	466a      	mov	r2, sp
 8008c54:	1d90      	adds	r0, r2, #6
 8008c56:	4798      	blx	r3
 8008c58:	2302      	movs	r3, #2
 8008c5a:	0001      	movs	r1, r0
 8008c5c:	7043      	strb	r3, [r0, #1]
 8008c5e:	e7b7      	b.n	8008bd0 <USBD_StdDevReq+0x1b0>
 8008c60:	23ad      	movs	r3, #173	@ 0xad
 8008c62:	466a      	mov	r2, sp
 8008c64:	009b      	lsls	r3, r3, #2
 8008c66:	58e3      	ldr	r3, [r4, r3]
 8008c68:	1d91      	adds	r1, r2, #6
 8008c6a:	7c00      	ldrb	r0, [r0, #16]
 8008c6c:	681b      	ldr	r3, [r3, #0]
 8008c6e:	4798      	blx	r3
 8008c70:	0001      	movs	r1, r0
 8008c72:	e7ad      	b.n	8008bd0 <USBD_StdDevReq+0x1b0>
 8008c74:	23ad      	movs	r3, #173	@ 0xad
 8008c76:	009b      	lsls	r3, r3, #2
 8008c78:	58c3      	ldr	r3, [r0, r3]
 8008c7a:	695b      	ldr	r3, [r3, #20]
 8008c7c:	2b00      	cmp	r3, #0
 8008c7e:	d1a2      	bne.n	8008bc6 <USBD_StdDevReq+0x1a6>
 8008c80:	e6ea      	b.n	8008a58 <USBD_StdDevReq+0x38>
 8008c82:	23ad      	movs	r3, #173	@ 0xad
 8008c84:	009b      	lsls	r3, r3, #2
 8008c86:	58c3      	ldr	r3, [r0, r3]
 8008c88:	691b      	ldr	r3, [r3, #16]
 8008c8a:	2b00      	cmp	r3, #0
 8008c8c:	d19b      	bne.n	8008bc6 <USBD_StdDevReq+0x1a6>
 8008c8e:	e6e3      	b.n	8008a58 <USBD_StdDevReq+0x38>
 8008c90:	23ad      	movs	r3, #173	@ 0xad
 8008c92:	009b      	lsls	r3, r3, #2
 8008c94:	58c3      	ldr	r3, [r0, r3]
 8008c96:	68db      	ldr	r3, [r3, #12]
 8008c98:	2b00      	cmp	r3, #0
 8008c9a:	d194      	bne.n	8008bc6 <USBD_StdDevReq+0x1a6>
 8008c9c:	e6dc      	b.n	8008a58 <USBD_StdDevReq+0x38>
 8008c9e:	23ad      	movs	r3, #173	@ 0xad
 8008ca0:	009b      	lsls	r3, r3, #2
 8008ca2:	58c3      	ldr	r3, [r0, r3]
 8008ca4:	689b      	ldr	r3, [r3, #8]
 8008ca6:	2b00      	cmp	r3, #0
 8008ca8:	d18d      	bne.n	8008bc6 <USBD_StdDevReq+0x1a6>
 8008caa:	e6d5      	b.n	8008a58 <USBD_StdDevReq+0x38>
 8008cac:	23ad      	movs	r3, #173	@ 0xad
 8008cae:	009b      	lsls	r3, r3, #2
 8008cb0:	58c3      	ldr	r3, [r0, r3]
 8008cb2:	699b      	ldr	r3, [r3, #24]
 8008cb4:	2b00      	cmp	r3, #0
 8008cb6:	d186      	bne.n	8008bc6 <USBD_StdDevReq+0x1a6>
 8008cb8:	e6ce      	b.n	8008a58 <USBD_StdDevReq+0x38>
 8008cba:	2b00      	cmp	r3, #0
 8008cbc:	d054      	beq.n	8008d68 <USBD_StdDevReq+0x348>
 8008cbe:	6841      	ldr	r1, [r0, #4]
 8008cc0:	2901      	cmp	r1, #1
 8008cc2:	d100      	bne.n	8008cc6 <USBD_StdDevReq+0x2a6>
 8008cc4:	e706      	b.n	8008ad4 <USBD_StdDevReq+0xb4>
 8008cc6:	b2c9      	uxtb	r1, r1
 8008cc8:	f7ff fd42 	bl	8008750 <USBD_ClrClassConfig>
 8008ccc:	7829      	ldrb	r1, [r5, #0]
 8008cce:	0020      	movs	r0, r4
 8008cd0:	6061      	str	r1, [r4, #4]
 8008cd2:	f7ff fd31 	bl	8008738 <USBD_SetClassConfig>
 8008cd6:	1e05      	subs	r5, r0, #0
 8008cd8:	d100      	bne.n	8008cdc <USBD_StdDevReq+0x2bc>
 8008cda:	e6fb      	b.n	8008ad4 <USBD_StdDevReq+0xb4>
 8008cdc:	2180      	movs	r1, #128	@ 0x80
 8008cde:	0020      	movs	r0, r4
 8008ce0:	f000 fc90 	bl	8009604 <USBD_LL_StallEP>
 8008ce4:	2100      	movs	r1, #0
 8008ce6:	0020      	movs	r0, r4
 8008ce8:	f000 fc8c 	bl	8009604 <USBD_LL_StallEP>
 8008cec:	0020      	movs	r0, r4
 8008cee:	7921      	ldrb	r1, [r4, #4]
 8008cf0:	f7ff fd2e 	bl	8008750 <USBD_ClrClassConfig>
 8008cf4:	2302      	movs	r3, #2
 8008cf6:	55a3      	strb	r3, [r4, r6]
 8008cf8:	e6c2      	b.n	8008a80 <USBD_StdDevReq+0x60>
 8008cfa:	2b00      	cmp	r3, #0
 8008cfc:	d100      	bne.n	8008d00 <USBD_StdDevReq+0x2e0>
 8008cfe:	e6e9      	b.n	8008ad4 <USBD_StdDevReq+0xb4>
 8008d00:	2301      	movs	r3, #1
 8008d02:	2101      	movs	r1, #1
 8008d04:	6043      	str	r3, [r0, #4]
 8008d06:	f7ff fd17 	bl	8008738 <USBD_SetClassConfig>
 8008d0a:	1e05      	subs	r5, r0, #0
 8008d0c:	d039      	beq.n	8008d82 <USBD_StdDevReq+0x362>
 8008d0e:	2180      	movs	r1, #128	@ 0x80
 8008d10:	0020      	movs	r0, r4
 8008d12:	f000 fc77 	bl	8009604 <USBD_LL_StallEP>
 8008d16:	2100      	movs	r1, #0
 8008d18:	0020      	movs	r0, r4
 8008d1a:	f000 fc73 	bl	8009604 <USBD_LL_StallEP>
 8008d1e:	55a7      	strb	r7, [r4, r6]
 8008d20:	e6ae      	b.n	8008a80 <USBD_StdDevReq+0x60>
 8008d22:	2a03      	cmp	r2, #3
 8008d24:	d000      	beq.n	8008d28 <USBD_StdDevReq+0x308>
 8008d26:	e697      	b.n	8008a58 <USBD_StdDevReq+0x38>
 8008d28:	2201      	movs	r2, #1
 8008d2a:	1d01      	adds	r1, r0, #4
 8008d2c:	f000 f974 	bl	8009018 <USBD_CtlSendData>
 8008d30:	2500      	movs	r5, #0
 8008d32:	e6a5      	b.n	8008a80 <USBD_StdDevReq+0x60>
 8008d34:	22a9      	movs	r2, #169	@ 0xa9
 8008d36:	0092      	lsls	r2, r2, #2
 8008d38:	5083      	str	r3, [r0, r2]
 8008d3a:	f000 f99d 	bl	8009078 <USBD_CtlSendStatus>
 8008d3e:	2500      	movs	r5, #0
 8008d40:	e69e      	b.n	8008a80 <USBD_StdDevReq+0x60>
 8008d42:	2180      	movs	r1, #128	@ 0x80
 8008d44:	f000 fc5e 	bl	8009604 <USBD_LL_StallEP>
 8008d48:	2100      	movs	r1, #0
 8008d4a:	0020      	movs	r0, r4
 8008d4c:	f000 fc5a 	bl	8009604 <USBD_LL_StallEP>
 8008d50:	2503      	movs	r5, #3
 8008d52:	e695      	b.n	8008a80 <USBD_StdDevReq+0x60>
 8008d54:	08009878 	.word	0x08009878
 8008d58:	0000029e 	.word	0x0000029e
 8008d5c:	080098a0 	.word	0x080098a0
 8008d60:	20000a0c 	.word	0x20000a0c
 8008d64:	080098e0 	.word	0x080098e0
 8008d68:	2202      	movs	r2, #2
 8008d6a:	2100      	movs	r1, #0
 8008d6c:	5582      	strb	r2, [r0, r6]
 8008d6e:	6043      	str	r3, [r0, #4]
 8008d70:	f7ff fcee 	bl	8008750 <USBD_ClrClassConfig>
 8008d74:	0020      	movs	r0, r4
 8008d76:	f000 f97f 	bl	8009078 <USBD_CtlSendStatus>
 8008d7a:	2500      	movs	r5, #0
 8008d7c:	e680      	b.n	8008a80 <USBD_StdDevReq+0x60>
 8008d7e:	6adb      	ldr	r3, [r3, #44]	@ 0x2c
 8008d80:	e767      	b.n	8008c52 <USBD_StdDevReq+0x232>
 8008d82:	0020      	movs	r0, r4
 8008d84:	f000 f978 	bl	8009078 <USBD_CtlSendStatus>
 8008d88:	2303      	movs	r3, #3
 8008d8a:	2500      	movs	r5, #0
 8008d8c:	55a3      	strb	r3, [r4, r6]
 8008d8e:	e677      	b.n	8008a80 <USBD_StdDevReq+0x60>
 8008d90:	2301      	movs	r3, #1
 8008d92:	2500      	movs	r5, #0
 8008d94:	55a3      	strb	r3, [r4, r6]
 8008d96:	e673      	b.n	8008a80 <USBD_StdDevReq+0x60>

08008d98 <USBD_StdItfReq>:
 8008d98:	2260      	movs	r2, #96	@ 0x60
 8008d9a:	780b      	ldrb	r3, [r1, #0]
 8008d9c:	b570      	push	{r4, r5, r6, lr}
 8008d9e:	401a      	ands	r2, r3
 8008da0:	0004      	movs	r4, r0
 8008da2:	000d      	movs	r5, r1
 8008da4:	065b      	lsls	r3, r3, #25
 8008da6:	d50c      	bpl.n	8008dc2 <USBD_StdItfReq+0x2a>
 8008da8:	2a40      	cmp	r2, #64	@ 0x40
 8008daa:	d00a      	beq.n	8008dc2 <USBD_StdItfReq+0x2a>
 8008dac:	2180      	movs	r1, #128	@ 0x80
 8008dae:	0020      	movs	r0, r4
 8008db0:	f000 fc28 	bl	8009604 <USBD_LL_StallEP>
 8008db4:	2100      	movs	r1, #0
 8008db6:	0020      	movs	r0, r4
 8008db8:	f000 fc24 	bl	8009604 <USBD_LL_StallEP>
 8008dbc:	2600      	movs	r6, #0
 8008dbe:	0030      	movs	r0, r6
 8008dc0:	bd70      	pop	{r4, r5, r6, pc}
 8008dc2:	23a7      	movs	r3, #167	@ 0xa7
 8008dc4:	009b      	lsls	r3, r3, #2
 8008dc6:	5ce3      	ldrb	r3, [r4, r3]
 8008dc8:	3b01      	subs	r3, #1
 8008dca:	2b02      	cmp	r3, #2
 8008dcc:	d8ee      	bhi.n	8008dac <USBD_StdItfReq+0x14>
 8008dce:	7929      	ldrb	r1, [r5, #4]
 8008dd0:	2901      	cmp	r1, #1
 8008dd2:	d8eb      	bhi.n	8008dac <USBD_StdItfReq+0x14>
 8008dd4:	0020      	movs	r0, r4
 8008dd6:	f7ff fe05 	bl	80089e4 <USBD_CoreFindIF>
 8008dda:	2603      	movs	r6, #3
 8008ddc:	2800      	cmp	r0, #0
 8008dde:	d1ee      	bne.n	8008dbe <USBD_StdItfReq+0x26>
 8008de0:	23ae      	movs	r3, #174	@ 0xae
 8008de2:	009b      	lsls	r3, r3, #2
 8008de4:	58e3      	ldr	r3, [r4, r3]
 8008de6:	689b      	ldr	r3, [r3, #8]
 8008de8:	2b00      	cmp	r3, #0
 8008dea:	d0e8      	beq.n	8008dbe <USBD_StdItfReq+0x26>
 8008dec:	22b5      	movs	r2, #181	@ 0xb5
 8008dee:	0092      	lsls	r2, r2, #2
 8008df0:	50a0      	str	r0, [r4, r2]
 8008df2:	0029      	movs	r1, r5
 8008df4:	0020      	movs	r0, r4
 8008df6:	4798      	blx	r3
 8008df8:	88eb      	ldrh	r3, [r5, #6]
 8008dfa:	0006      	movs	r6, r0
 8008dfc:	2b00      	cmp	r3, #0
 8008dfe:	d1de      	bne.n	8008dbe <USBD_StdItfReq+0x26>
 8008e00:	2800      	cmp	r0, #0
 8008e02:	d1dc      	bne.n	8008dbe <USBD_StdItfReq+0x26>
 8008e04:	0020      	movs	r0, r4
 8008e06:	f000 f937 	bl	8009078 <USBD_CtlSendStatus>
 8008e0a:	e7d8      	b.n	8008dbe <USBD_StdItfReq+0x26>

08008e0c <USBD_StdEPReq>:
 8008e0c:	2360      	movs	r3, #96	@ 0x60
 8008e0e:	b570      	push	{r4, r5, r6, lr}
 8008e10:	780a      	ldrb	r2, [r1, #0]
 8008e12:	0005      	movs	r5, r0
 8008e14:	4013      	ands	r3, r2
 8008e16:	000c      	movs	r4, r1
 8008e18:	8888      	ldrh	r0, [r1, #4]
 8008e1a:	790e      	ldrb	r6, [r1, #4]
 8008e1c:	0019      	movs	r1, r3
 8008e1e:	22c0      	movs	r2, #192	@ 0xc0
 8008e20:	3920      	subs	r1, #32
 8008e22:	4211      	tst	r1, r2
 8008e24:	d05a      	beq.n	8008edc <USBD_StdEPReq+0xd0>
 8008e26:	2b00      	cmp	r3, #0
 8008e28:	d13e      	bne.n	8008ea8 <USBD_StdEPReq+0x9c>
 8008e2a:	7863      	ldrb	r3, [r4, #1]
 8008e2c:	2b01      	cmp	r3, #1
 8008e2e:	d045      	beq.n	8008ebc <USBD_StdEPReq+0xb0>
 8008e30:	2b03      	cmp	r3, #3
 8008e32:	d031      	beq.n	8008e98 <USBD_StdEPReq+0x8c>
 8008e34:	2b00      	cmp	r3, #0
 8008e36:	d137      	bne.n	8008ea8 <USBD_StdEPReq+0x9c>
 8008e38:	23a7      	movs	r3, #167	@ 0xa7
 8008e3a:	009b      	lsls	r3, r3, #2
 8008e3c:	5ceb      	ldrb	r3, [r5, r3]
 8008e3e:	b2da      	uxtb	r2, r3
 8008e40:	2b02      	cmp	r3, #2
 8008e42:	d100      	bne.n	8008e46 <USBD_StdEPReq+0x3a>
 8008e44:	e075      	b.n	8008f32 <USBD_StdEPReq+0x126>
 8008e46:	2a03      	cmp	r2, #3
 8008e48:	d12e      	bne.n	8008ea8 <USBD_StdEPReq+0x9c>
 8008e4a:	220f      	movs	r2, #15
 8008e4c:	4032      	ands	r2, r6
 8008e4e:	0093      	lsls	r3, r2, #2
 8008e50:	189b      	adds	r3, r3, r2
 8008e52:	009b      	lsls	r3, r3, #2
 8008e54:	18eb      	adds	r3, r5, r3
 8008e56:	0600      	lsls	r0, r0, #24
 8008e58:	d500      	bpl.n	8008e5c <USBD_StdEPReq+0x50>
 8008e5a:	e07b      	b.n	8008f54 <USBD_StdEPReq+0x148>
 8008e5c:	3365      	adds	r3, #101	@ 0x65
 8008e5e:	33ff      	adds	r3, #255	@ 0xff
 8008e60:	881b      	ldrh	r3, [r3, #0]
 8008e62:	2b00      	cmp	r3, #0
 8008e64:	d020      	beq.n	8008ea8 <USBD_StdEPReq+0x9c>
 8008e66:	00b4      	lsls	r4, r6, #2
 8008e68:	19a4      	adds	r4, r4, r6
 8008e6a:	00a4      	lsls	r4, r4, #2
 8008e6c:	3455      	adds	r4, #85	@ 0x55
 8008e6e:	34ff      	adds	r4, #255	@ 0xff
 8008e70:	192c      	adds	r4, r5, r4
 8008e72:	2e00      	cmp	r6, #0
 8008e74:	d100      	bne.n	8008e78 <USBD_StdEPReq+0x6c>
 8008e76:	e07a      	b.n	8008f6e <USBD_StdEPReq+0x162>
 8008e78:	0031      	movs	r1, r6
 8008e7a:	0028      	movs	r0, r5
 8008e7c:	f000 fbe2 	bl	8009644 <USBD_LL_IsStallEP>
 8008e80:	2800      	cmp	r0, #0
 8008e82:	d100      	bne.n	8008e86 <USBD_StdEPReq+0x7a>
 8008e84:	e07b      	b.n	8008f7e <USBD_StdEPReq+0x172>
 8008e86:	2301      	movs	r3, #1
 8008e88:	6023      	str	r3, [r4, #0]
 8008e8a:	2202      	movs	r2, #2
 8008e8c:	0021      	movs	r1, r4
 8008e8e:	0028      	movs	r0, r5
 8008e90:	f000 f8c2 	bl	8009018 <USBD_CtlSendData>
 8008e94:	2000      	movs	r0, #0
 8008e96:	e032      	b.n	8008efe <USBD_StdEPReq+0xf2>
 8008e98:	23a7      	movs	r3, #167	@ 0xa7
 8008e9a:	009b      	lsls	r3, r3, #2
 8008e9c:	5ceb      	ldrb	r3, [r5, r3]
 8008e9e:	b2da      	uxtb	r2, r3
 8008ea0:	2b02      	cmp	r3, #2
 8008ea2:	d02d      	beq.n	8008f00 <USBD_StdEPReq+0xf4>
 8008ea4:	2a03      	cmp	r2, #3
 8008ea6:	d037      	beq.n	8008f18 <USBD_StdEPReq+0x10c>
 8008ea8:	2180      	movs	r1, #128	@ 0x80
 8008eaa:	0028      	movs	r0, r5
 8008eac:	f000 fbaa 	bl	8009604 <USBD_LL_StallEP>
 8008eb0:	2100      	movs	r1, #0
 8008eb2:	0028      	movs	r0, r5
 8008eb4:	f000 fba6 	bl	8009604 <USBD_LL_StallEP>
 8008eb8:	2000      	movs	r0, #0
 8008eba:	e020      	b.n	8008efe <USBD_StdEPReq+0xf2>
 8008ebc:	23a7      	movs	r3, #167	@ 0xa7
 8008ebe:	009b      	lsls	r3, r3, #2
 8008ec0:	5ceb      	ldrb	r3, [r5, r3]
 8008ec2:	b2da      	uxtb	r2, r3
 8008ec4:	2b02      	cmp	r3, #2
 8008ec6:	d01b      	beq.n	8008f00 <USBD_StdEPReq+0xf4>
 8008ec8:	2a03      	cmp	r2, #3
 8008eca:	d1ed      	bne.n	8008ea8 <USBD_StdEPReq+0x9c>
 8008ecc:	8863      	ldrh	r3, [r4, #2]
 8008ece:	2b00      	cmp	r3, #0
 8008ed0:	d1e0      	bne.n	8008e94 <USBD_StdEPReq+0x88>
 8008ed2:	0673      	lsls	r3, r6, #25
 8008ed4:	d14e      	bne.n	8008f74 <USBD_StdEPReq+0x168>
 8008ed6:	0028      	movs	r0, r5
 8008ed8:	f000 f8ce 	bl	8009078 <USBD_CtlSendStatus>
 8008edc:	0031      	movs	r1, r6
 8008ede:	0028      	movs	r0, r5
 8008ee0:	f7ff fd82 	bl	80089e8 <USBD_CoreFindEP>
 8008ee4:	2800      	cmp	r0, #0
 8008ee6:	d1d5      	bne.n	8008e94 <USBD_StdEPReq+0x88>
 8008ee8:	23b5      	movs	r3, #181	@ 0xb5
 8008eea:	009b      	lsls	r3, r3, #2
 8008eec:	50e8      	str	r0, [r5, r3]
 8008eee:	3b1c      	subs	r3, #28
 8008ef0:	58eb      	ldr	r3, [r5, r3]
 8008ef2:	689b      	ldr	r3, [r3, #8]
 8008ef4:	2b00      	cmp	r3, #0
 8008ef6:	d0cd      	beq.n	8008e94 <USBD_StdEPReq+0x88>
 8008ef8:	0021      	movs	r1, r4
 8008efa:	0028      	movs	r0, r5
 8008efc:	4798      	blx	r3
 8008efe:	bd70      	pop	{r4, r5, r6, pc}
 8008f00:	0673      	lsls	r3, r6, #25
 8008f02:	d0d1      	beq.n	8008ea8 <USBD_StdEPReq+0x9c>
 8008f04:	0031      	movs	r1, r6
 8008f06:	0028      	movs	r0, r5
 8008f08:	f000 fb7c 	bl	8009604 <USBD_LL_StallEP>
 8008f0c:	2180      	movs	r1, #128	@ 0x80
 8008f0e:	0028      	movs	r0, r5
 8008f10:	f000 fb78 	bl	8009604 <USBD_LL_StallEP>
 8008f14:	2000      	movs	r0, #0
 8008f16:	e7f2      	b.n	8008efe <USBD_StdEPReq+0xf2>
 8008f18:	8863      	ldrh	r3, [r4, #2]
 8008f1a:	2b00      	cmp	r3, #0
 8008f1c:	d104      	bne.n	8008f28 <USBD_StdEPReq+0x11c>
 8008f1e:	0673      	lsls	r3, r6, #25
 8008f20:	d002      	beq.n	8008f28 <USBD_StdEPReq+0x11c>
 8008f22:	88e3      	ldrh	r3, [r4, #6]
 8008f24:	2b00      	cmp	r3, #0
 8008f26:	d02c      	beq.n	8008f82 <USBD_StdEPReq+0x176>
 8008f28:	0028      	movs	r0, r5
 8008f2a:	f000 f8a5 	bl	8009078 <USBD_CtlSendStatus>
 8008f2e:	2000      	movs	r0, #0
 8008f30:	e7e5      	b.n	8008efe <USBD_StdEPReq+0xf2>
 8008f32:	0676      	lsls	r6, r6, #25
 8008f34:	d1b8      	bne.n	8008ea8 <USBD_StdEPReq+0x9c>
 8008f36:	0029      	movs	r1, r5
 8008f38:	3155      	adds	r1, #85	@ 0x55
 8008f3a:	31ff      	adds	r1, #255	@ 0xff
 8008f3c:	0600      	lsls	r0, r0, #24
 8008f3e:	d501      	bpl.n	8008f44 <USBD_StdEPReq+0x138>
 8008f40:	3941      	subs	r1, #65	@ 0x41
 8008f42:	39ff      	subs	r1, #255	@ 0xff
 8008f44:	2300      	movs	r3, #0
 8008f46:	2202      	movs	r2, #2
 8008f48:	0028      	movs	r0, r5
 8008f4a:	600b      	str	r3, [r1, #0]
 8008f4c:	f000 f864 	bl	8009018 <USBD_CtlSendData>
 8008f50:	2000      	movs	r0, #0
 8008f52:	e7d4      	b.n	8008efe <USBD_StdEPReq+0xf2>
 8008f54:	8c9b      	ldrh	r3, [r3, #36]	@ 0x24
 8008f56:	2b00      	cmp	r3, #0
 8008f58:	d0a6      	beq.n	8008ea8 <USBD_StdEPReq+0x9c>
 8008f5a:	237f      	movs	r3, #127	@ 0x7f
 8008f5c:	4033      	ands	r3, r6
 8008f5e:	3301      	adds	r3, #1
 8008f60:	009c      	lsls	r4, r3, #2
 8008f62:	18e4      	adds	r4, r4, r3
 8008f64:	00a4      	lsls	r4, r4, #2
 8008f66:	192c      	adds	r4, r5, r4
 8008f68:	2e80      	cmp	r6, #128	@ 0x80
 8008f6a:	d000      	beq.n	8008f6e <USBD_StdEPReq+0x162>
 8008f6c:	e784      	b.n	8008e78 <USBD_StdEPReq+0x6c>
 8008f6e:	2300      	movs	r3, #0
 8008f70:	6023      	str	r3, [r4, #0]
 8008f72:	e78a      	b.n	8008e8a <USBD_StdEPReq+0x7e>
 8008f74:	0031      	movs	r1, r6
 8008f76:	0028      	movs	r0, r5
 8008f78:	f000 fb54 	bl	8009624 <USBD_LL_ClearStallEP>
 8008f7c:	e7ab      	b.n	8008ed6 <USBD_StdEPReq+0xca>
 8008f7e:	6020      	str	r0, [r4, #0]
 8008f80:	e783      	b.n	8008e8a <USBD_StdEPReq+0x7e>
 8008f82:	0031      	movs	r1, r6
 8008f84:	0028      	movs	r0, r5
 8008f86:	f000 fb3d 	bl	8009604 <USBD_LL_StallEP>
 8008f8a:	e7cd      	b.n	8008f28 <USBD_StdEPReq+0x11c>

08008f8c <USBD_ParseSetupRequest>:
 8008f8c:	780b      	ldrb	r3, [r1, #0]
 8008f8e:	7003      	strb	r3, [r0, #0]
 8008f90:	784b      	ldrb	r3, [r1, #1]
 8008f92:	7043      	strb	r3, [r0, #1]
 8008f94:	78cb      	ldrb	r3, [r1, #3]
 8008f96:	788a      	ldrb	r2, [r1, #2]
 8008f98:	021b      	lsls	r3, r3, #8
 8008f9a:	4313      	orrs	r3, r2
 8008f9c:	8043      	strh	r3, [r0, #2]
 8008f9e:	794b      	ldrb	r3, [r1, #5]
 8008fa0:	790a      	ldrb	r2, [r1, #4]
 8008fa2:	021b      	lsls	r3, r3, #8
 8008fa4:	4313      	orrs	r3, r2
 8008fa6:	8083      	strh	r3, [r0, #4]
 8008fa8:	79cb      	ldrb	r3, [r1, #7]
 8008faa:	798a      	ldrb	r2, [r1, #6]
 8008fac:	021b      	lsls	r3, r3, #8
 8008fae:	4313      	orrs	r3, r2
 8008fb0:	80c3      	strh	r3, [r0, #6]
 8008fb2:	4770      	bx	lr

08008fb4 <USBD_CtlError>:
 8008fb4:	b510      	push	{r4, lr}
 8008fb6:	0004      	movs	r4, r0
 8008fb8:	2180      	movs	r1, #128	@ 0x80
 8008fba:	f000 fb23 	bl	8009604 <USBD_LL_StallEP>
 8008fbe:	2100      	movs	r1, #0
 8008fc0:	0020      	movs	r0, r4
 8008fc2:	f000 fb1f 	bl	8009604 <USBD_LL_StallEP>
 8008fc6:	bd10      	pop	{r4, pc}

08008fc8 <USBD_GetString>:
 8008fc8:	b570      	push	{r4, r5, r6, lr}
 8008fca:	0004      	movs	r4, r0
 8008fcc:	000d      	movs	r5, r1
 8008fce:	0016      	movs	r6, r2
 8008fd0:	2800      	cmp	r0, #0
 8008fd2:	d01d      	beq.n	8009010 <USBD_GetString+0x48>
 8008fd4:	7803      	ldrb	r3, [r0, #0]
 8008fd6:	2b00      	cmp	r3, #0
 8008fd8:	d01b      	beq.n	8009012 <USBD_GetString+0x4a>
 8008fda:	3001      	adds	r0, #1
 8008fdc:	f7f7 f892 	bl	8000104 <strlen>
 8008fe0:	3001      	adds	r0, #1
 8008fe2:	b2c3      	uxtb	r3, r0
 8008fe4:	3301      	adds	r3, #1
 8008fe6:	005b      	lsls	r3, r3, #1
 8008fe8:	b2da      	uxtb	r2, r3
 8008fea:	8033      	strh	r3, [r6, #0]
 8008fec:	2303      	movs	r3, #3
 8008fee:	702a      	strb	r2, [r5, #0]
 8008ff0:	706b      	strb	r3, [r5, #1]
 8008ff2:	7822      	ldrb	r2, [r4, #0]
 8008ff4:	2a00      	cmp	r2, #0
 8008ff6:	d00b      	beq.n	8009010 <USBD_GetString+0x48>
 8008ff8:	2100      	movs	r1, #0
 8008ffa:	3b01      	subs	r3, #1
 8008ffc:	54ea      	strb	r2, [r5, r3]
 8008ffe:	1c5a      	adds	r2, r3, #1
 8009000:	b2d2      	uxtb	r2, r2
 8009002:	3401      	adds	r4, #1
 8009004:	54a9      	strb	r1, [r5, r2]
 8009006:	7822      	ldrb	r2, [r4, #0]
 8009008:	3302      	adds	r3, #2
 800900a:	b2db      	uxtb	r3, r3
 800900c:	2a00      	cmp	r2, #0
 800900e:	d1f5      	bne.n	8008ffc <USBD_GetString+0x34>
 8009010:	bd70      	pop	{r4, r5, r6, pc}
 8009012:	2202      	movs	r2, #2
 8009014:	2302      	movs	r3, #2
 8009016:	e7e8      	b.n	8008fea <USBD_GetString+0x22>

08009018 <USBD_CtlSendData>:
 8009018:	0013      	movs	r3, r2
 800901a:	22a5      	movs	r2, #165	@ 0xa5
 800901c:	b510      	push	{r4, lr}
 800901e:	2402      	movs	r4, #2
 8009020:	0092      	lsls	r2, r2, #2
 8009022:	5084      	str	r4, [r0, r2]
 8009024:	000a      	movs	r2, r1
 8009026:	6183      	str	r3, [r0, #24]
 8009028:	2100      	movs	r1, #0
 800902a:	61c3      	str	r3, [r0, #28]
 800902c:	f000 fb30 	bl	8009690 <USBD_LL_Transmit>
 8009030:	2000      	movs	r0, #0
 8009032:	bd10      	pop	{r4, pc}

08009034 <USBD_CtlContinueSendData>:
 8009034:	b510      	push	{r4, lr}
 8009036:	0013      	movs	r3, r2
 8009038:	000a      	movs	r2, r1
 800903a:	2100      	movs	r1, #0
 800903c:	f000 fb28 	bl	8009690 <USBD_LL_Transmit>
 8009040:	2000      	movs	r0, #0
 8009042:	bd10      	pop	{r4, pc}

08009044 <USBD_CtlPrepareRx>:
 8009044:	0013      	movs	r3, r2
 8009046:	22a5      	movs	r2, #165	@ 0xa5
 8009048:	b510      	push	{r4, lr}
 800904a:	2403      	movs	r4, #3
 800904c:	0092      	lsls	r2, r2, #2
 800904e:	5084      	str	r4, [r0, r2]
 8009050:	3a3d      	subs	r2, #61	@ 0x3d
 8009052:	3aff      	subs	r2, #255	@ 0xff
 8009054:	5083      	str	r3, [r0, r2]
 8009056:	3204      	adds	r2, #4
 8009058:	5083      	str	r3, [r0, r2]
 800905a:	000a      	movs	r2, r1
 800905c:	2100      	movs	r1, #0
 800905e:	f000 fb27 	bl	80096b0 <USBD_LL_PrepareReceive>
 8009062:	2000      	movs	r0, #0
 8009064:	bd10      	pop	{r4, pc}
 8009066:	46c0      	nop			@ (mov r8, r8)

08009068 <USBD_CtlContinueRx>:
 8009068:	b510      	push	{r4, lr}
 800906a:	0013      	movs	r3, r2
 800906c:	000a      	movs	r2, r1
 800906e:	2100      	movs	r1, #0
 8009070:	f000 fb1e 	bl	80096b0 <USBD_LL_PrepareReceive>
 8009074:	2000      	movs	r0, #0
 8009076:	bd10      	pop	{r4, pc}

08009078 <USBD_CtlSendStatus>:
 8009078:	23a5      	movs	r3, #165	@ 0xa5
 800907a:	2204      	movs	r2, #4
 800907c:	b510      	push	{r4, lr}
 800907e:	009b      	lsls	r3, r3, #2
 8009080:	50c2      	str	r2, [r0, r3]
 8009082:	2100      	movs	r1, #0
 8009084:	2300      	movs	r3, #0
 8009086:	2200      	movs	r2, #0
 8009088:	f000 fb02 	bl	8009690 <USBD_LL_Transmit>
 800908c:	2000      	movs	r0, #0
 800908e:	bd10      	pop	{r4, pc}

08009090 <USBD_CtlReceiveStatus>:
 8009090:	23a5      	movs	r3, #165	@ 0xa5
 8009092:	2205      	movs	r2, #5
 8009094:	b510      	push	{r4, lr}
 8009096:	009b      	lsls	r3, r3, #2
 8009098:	50c2      	str	r2, [r0, r3]
 800909a:	2100      	movs	r1, #0
 800909c:	2300      	movs	r3, #0
 800909e:	2200      	movs	r2, #0
 80090a0:	f000 fb06 	bl	80096b0 <USBD_LL_PrepareReceive>
 80090a4:	2000      	movs	r0, #0
 80090a6:	bd10      	pop	{r4, pc}

080090a8 <MX_USB_Device_Init>:
 80090a8:	b510      	push	{r4, lr}
 80090aa:	4c1a      	ldr	r4, [pc, #104]	@ (8009114 <MX_USB_Device_Init+0x6c>)
 80090ac:	2200      	movs	r2, #0
 80090ae:	0020      	movs	r0, r4
 80090b0:	4919      	ldr	r1, [pc, #100]	@ (8009118 <MX_USB_Device_Init+0x70>)
 80090b2:	f7ff fb05 	bl	80086c0 <USBD_Init>
 80090b6:	2800      	cmp	r0, #0
 80090b8:	d111      	bne.n	80090de <MX_USB_Device_Init+0x36>
 80090ba:	0020      	movs	r0, r4
 80090bc:	4917      	ldr	r1, [pc, #92]	@ (800911c <MX_USB_Device_Init+0x74>)
 80090be:	f7ff fb19 	bl	80086f4 <USBD_RegisterClass>
 80090c2:	2800      	cmp	r0, #0
 80090c4:	d113      	bne.n	80090ee <MX_USB_Device_Init+0x46>
 80090c6:	0020      	movs	r0, r4
 80090c8:	4915      	ldr	r1, [pc, #84]	@ (8009120 <MX_USB_Device_Init+0x78>)
 80090ca:	f7ff fa89 	bl	80085e0 <USBD_CDC_RegisterInterface>
 80090ce:	2800      	cmp	r0, #0
 80090d0:	d115      	bne.n	80090fe <MX_USB_Device_Init+0x56>
 80090d2:	0020      	movs	r0, r4
 80090d4:	f7ff fb2c 	bl	8008730 <USBD_Start>
 80090d8:	2800      	cmp	r0, #0
 80090da:	d117      	bne.n	800910c <MX_USB_Device_Init+0x64>
 80090dc:	bd10      	pop	{r4, pc}
 80090de:	f7f9 fb33 	bl	8002748 <Error_Handler>
 80090e2:	0020      	movs	r0, r4
 80090e4:	490d      	ldr	r1, [pc, #52]	@ (800911c <MX_USB_Device_Init+0x74>)
 80090e6:	f7ff fb05 	bl	80086f4 <USBD_RegisterClass>
 80090ea:	2800      	cmp	r0, #0
 80090ec:	d0eb      	beq.n	80090c6 <MX_USB_Device_Init+0x1e>
 80090ee:	f7f9 fb2b 	bl	8002748 <Error_Handler>
 80090f2:	0020      	movs	r0, r4
 80090f4:	490a      	ldr	r1, [pc, #40]	@ (8009120 <MX_USB_Device_Init+0x78>)
 80090f6:	f7ff fa73 	bl	80085e0 <USBD_CDC_RegisterInterface>
 80090fa:	2800      	cmp	r0, #0
 80090fc:	d0e9      	beq.n	80090d2 <MX_USB_Device_Init+0x2a>
 80090fe:	f7f9 fb23 	bl	8002748 <Error_Handler>
 8009102:	0020      	movs	r0, r4
 8009104:	f7ff fb14 	bl	8008730 <USBD_Start>
 8009108:	2800      	cmp	r0, #0
 800910a:	d0e7      	beq.n	80090dc <MX_USB_Device_Init+0x34>
 800910c:	f7f9 fb1c 	bl	8002748 <Error_Handler>
 8009110:	e7e4      	b.n	80090dc <MX_USB_Device_Init+0x34>
 8009112:	46c0      	nop			@ (mov r8, r8)
 8009114:	20000a10 	.word	0x20000a10
 8009118:	2000021c 	.word	0x2000021c
 800911c:	20000190 	.word	0x20000190
 8009120:	200001d4 	.word	0x200001d4

08009124 <CDC_DeInit_FS>:
 8009124:	2000      	movs	r0, #0
 8009126:	4770      	bx	lr

08009128 <CDC_Control_FS>:
 8009128:	2000      	movs	r0, #0
 800912a:	4770      	bx	lr

0800912c <CDC_TransmitCplt_FS>:
 800912c:	2000      	movs	r0, #0
 800912e:	4770      	bx	lr

08009130 <CDC_Receive_FS>:
 8009130:	b5f8      	push	{r3, r4, r5, r6, r7, lr}
 8009132:	000e      	movs	r6, r1
 8009134:	4f0d      	ldr	r7, [pc, #52]	@ (800916c <CDC_Receive_FS+0x3c>)
 8009136:	0001      	movs	r1, r0
 8009138:	0005      	movs	r5, r0
 800913a:	0038      	movs	r0, r7
 800913c:	f7ff fa70 	bl	8008620 <USBD_CDC_SetRxBuffer>
 8009140:	6833      	ldr	r3, [r6, #0]
 8009142:	2b00      	cmp	r3, #0
 8009144:	d00c      	beq.n	8009160 <CDC_Receive_FS+0x30>
 8009146:	2200      	movs	r2, #0
 8009148:	4909      	ldr	r1, [pc, #36]	@ (8009170 <CDC_Receive_FS+0x40>)
 800914a:	480a      	ldr	r0, [pc, #40]	@ (8009174 <CDC_Receive_FS+0x44>)
 800914c:	780b      	ldrb	r3, [r1, #0]
 800914e:	5cac      	ldrb	r4, [r5, r2]
 8009150:	3201      	adds	r2, #1
 8009152:	54c4      	strb	r4, [r0, r3]
 8009154:	6834      	ldr	r4, [r6, #0]
 8009156:	3301      	adds	r3, #1
 8009158:	b2db      	uxtb	r3, r3
 800915a:	700b      	strb	r3, [r1, #0]
 800915c:	4294      	cmp	r4, r2
 800915e:	d8f6      	bhi.n	800914e <CDC_Receive_FS+0x1e>
 8009160:	0038      	movs	r0, r7
 8009162:	f7ff fa8f 	bl	8008684 <USBD_CDC_ReceivePacket>
 8009166:	2000      	movs	r0, #0
 8009168:	bdf8      	pop	{r3, r4, r5, r6, r7, pc}
 800916a:	46c0      	nop			@ (mov r8, r8)
 800916c:	20000a10 	.word	0x20000a10
 8009170:	200003bf 	.word	0x200003bf
 8009174:	200004c0 	.word	0x200004c0

08009178 <CDC_Init_FS>:
 8009178:	b510      	push	{r4, lr}
 800917a:	4c06      	ldr	r4, [pc, #24]	@ (8009194 <CDC_Init_FS+0x1c>)
 800917c:	2200      	movs	r2, #0
 800917e:	0020      	movs	r0, r4
 8009180:	4905      	ldr	r1, [pc, #20]	@ (8009198 <CDC_Init_FS+0x20>)
 8009182:	f7ff fa3b 	bl	80085fc <USBD_CDC_SetTxBuffer>
 8009186:	0020      	movs	r0, r4
 8009188:	4904      	ldr	r1, [pc, #16]	@ (800919c <CDC_Init_FS+0x24>)
 800918a:	f7ff fa49 	bl	8008620 <USBD_CDC_SetRxBuffer>
 800918e:	2000      	movs	r0, #0
 8009190:	bd10      	pop	{r4, pc}
 8009192:	46c0      	nop			@ (mov r8, r8)
 8009194:	20000a10 	.word	0x20000a10
 8009198:	20000cec 	.word	0x20000cec
 800919c:	200014ec 	.word	0x200014ec

080091a0 <CDC_Transmit_FS>:
 80091a0:	22af      	movs	r2, #175	@ 0xaf
 80091a2:	b510      	push	{r4, lr}
 80091a4:	4c08      	ldr	r4, [pc, #32]	@ (80091c8 <CDC_Transmit_FS+0x28>)
 80091a6:	0092      	lsls	r2, r2, #2
 80091a8:	0003      	movs	r3, r0
 80091aa:	58a0      	ldr	r0, [r4, r2]
 80091ac:	3aa8      	subs	r2, #168	@ 0xa8
 80091ae:	5882      	ldr	r2, [r0, r2]
 80091b0:	2001      	movs	r0, #1
 80091b2:	2a00      	cmp	r2, #0
 80091b4:	d107      	bne.n	80091c6 <CDC_Transmit_FS+0x26>
 80091b6:	000a      	movs	r2, r1
 80091b8:	0020      	movs	r0, r4
 80091ba:	0019      	movs	r1, r3
 80091bc:	f7ff fa1e 	bl	80085fc <USBD_CDC_SetTxBuffer>
 80091c0:	0020      	movs	r0, r4
 80091c2:	f7ff fa3d 	bl	8008640 <USBD_CDC_TransmitPacket>
 80091c6:	bd10      	pop	{r4, pc}
 80091c8:	20000a10 	.word	0x20000a10

080091cc <USBD_CDC_DeviceDescriptor>:
 80091cc:	2312      	movs	r3, #18
 80091ce:	4801      	ldr	r0, [pc, #4]	@ (80091d4 <USBD_CDC_DeviceDescriptor+0x8>)
 80091d0:	800b      	strh	r3, [r1, #0]
 80091d2:	4770      	bx	lr
 80091d4:	20000208 	.word	0x20000208

080091d8 <USBD_CDC_LangIDStrDescriptor>:
 80091d8:	2304      	movs	r3, #4
 80091da:	4801      	ldr	r0, [pc, #4]	@ (80091e0 <USBD_CDC_LangIDStrDescriptor+0x8>)
 80091dc:	800b      	strh	r3, [r1, #0]
 80091de:	4770      	bx	lr
 80091e0:	20000204 	.word	0x20000204

080091e4 <USBD_CDC_ManufacturerStrDescriptor>:
 80091e4:	b510      	push	{r4, lr}
 80091e6:	4c04      	ldr	r4, [pc, #16]	@ (80091f8 <USBD_CDC_ManufacturerStrDescriptor+0x14>)
 80091e8:	000a      	movs	r2, r1
 80091ea:	0021      	movs	r1, r4
 80091ec:	4803      	ldr	r0, [pc, #12]	@ (80091fc <USBD_CDC_ManufacturerStrDescriptor+0x18>)
 80091ee:	f7ff feeb 	bl	8008fc8 <USBD_GetString>
 80091f2:	0020      	movs	r0, r4
 80091f4:	bd10      	pop	{r4, pc}
 80091f6:	46c0      	nop			@ (mov r8, r8)
 80091f8:	20001cec 	.word	0x20001cec
 80091fc:	080098f8 	.word	0x080098f8

08009200 <USBD_CDC_ProductStrDescriptor>:
 8009200:	b510      	push	{r4, lr}
 8009202:	4c04      	ldr	r4, [pc, #16]	@ (8009214 <USBD_CDC_ProductStrDescriptor+0x14>)
 8009204:	000a      	movs	r2, r1
 8009206:	0021      	movs	r1, r4
 8009208:	4803      	ldr	r0, [pc, #12]	@ (8009218 <USBD_CDC_ProductStrDescriptor+0x18>)
 800920a:	f7ff fedd 	bl	8008fc8 <USBD_GetString>
 800920e:	0020      	movs	r0, r4
 8009210:	bd10      	pop	{r4, pc}
 8009212:	46c0      	nop			@ (mov r8, r8)
 8009214:	20001cec 	.word	0x20001cec
 8009218:	0800990c 	.word	0x0800990c

0800921c <USBD_CDC_ConfigStrDescriptor>:
 800921c:	b510      	push	{r4, lr}
 800921e:	4c04      	ldr	r4, [pc, #16]	@ (8009230 <USBD_CDC_ConfigStrDescriptor+0x14>)
 8009220:	000a      	movs	r2, r1
 8009222:	0021      	movs	r1, r4
 8009224:	4803      	ldr	r0, [pc, #12]	@ (8009234 <USBD_CDC_ConfigStrDescriptor+0x18>)
 8009226:	f7ff fecf 	bl	8008fc8 <USBD_GetString>
 800922a:	0020      	movs	r0, r4
 800922c:	bd10      	pop	{r4, pc}
 800922e:	46c0      	nop			@ (mov r8, r8)
 8009230:	20001cec 	.word	0x20001cec
 8009234:	08009924 	.word	0x08009924

08009238 <USBD_CDC_InterfaceStrDescriptor>:
 8009238:	b510      	push	{r4, lr}
 800923a:	4c04      	ldr	r4, [pc, #16]	@ (800924c <USBD_CDC_InterfaceStrDescriptor+0x14>)
 800923c:	000a      	movs	r2, r1
 800923e:	0021      	movs	r1, r4
 8009240:	4803      	ldr	r0, [pc, #12]	@ (8009250 <USBD_CDC_InterfaceStrDescriptor+0x18>)
 8009242:	f7ff fec1 	bl	8008fc8 <USBD_GetString>
 8009246:	0020      	movs	r0, r4
 8009248:	bd10      	pop	{r4, pc}
 800924a:	46c0      	nop			@ (mov r8, r8)
 800924c:	20001cec 	.word	0x20001cec
 8009250:	08009930 	.word	0x08009930

08009254 <USBD_CDC_SerialStrDescriptor>:
 8009254:	231a      	movs	r3, #26
 8009256:	b530      	push	{r4, r5, lr}
 8009258:	4a52      	ldr	r2, [pc, #328]	@ (80093a4 <USBD_CDC_SerialStrDescriptor+0x150>)
 800925a:	800b      	strh	r3, [r1, #0]
 800925c:	4b52      	ldr	r3, [pc, #328]	@ (80093a8 <USBD_CDC_SerialStrDescriptor+0x154>)
 800925e:	6812      	ldr	r2, [r2, #0]
 8009260:	681b      	ldr	r3, [r3, #0]
 8009262:	189b      	adds	r3, r3, r2
 8009264:	2b00      	cmp	r3, #0
 8009266:	d101      	bne.n	800926c <USBD_CDC_SerialStrDescriptor+0x18>
 8009268:	4850      	ldr	r0, [pc, #320]	@ (80093ac <USBD_CDC_SerialStrDescriptor+0x158>)
 800926a:	bd30      	pop	{r4, r5, pc}
 800926c:	0f19      	lsrs	r1, r3, #28
 800926e:	000c      	movs	r4, r1
 8009270:	4a4f      	ldr	r2, [pc, #316]	@ (80093b0 <USBD_CDC_SerialStrDescriptor+0x15c>)
 8009272:	0008      	movs	r0, r1
 8009274:	6812      	ldr	r2, [r2, #0]
 8009276:	3430      	adds	r4, #48	@ 0x30
 8009278:	2909      	cmp	r1, #9
 800927a:	d900      	bls.n	800927e <USBD_CDC_SerialStrDescriptor+0x2a>
 800927c:	e086      	b.n	800938c <USBD_CDC_SerialStrDescriptor+0x138>
 800927e:	2100      	movs	r1, #0
 8009280:	484a      	ldr	r0, [pc, #296]	@ (80093ac <USBD_CDC_SerialStrDescriptor+0x158>)
 8009282:	70c1      	strb	r1, [r0, #3]
 8009284:	0119      	lsls	r1, r3, #4
 8009286:	0f0d      	lsrs	r5, r1, #28
 8009288:	7084      	strb	r4, [r0, #2]
 800928a:	002c      	movs	r4, r5
 800928c:	0029      	movs	r1, r5
 800928e:	3430      	adds	r4, #48	@ 0x30
 8009290:	2d09      	cmp	r5, #9
 8009292:	d878      	bhi.n	8009386 <USBD_CDC_SerialStrDescriptor+0x132>
 8009294:	2100      	movs	r1, #0
 8009296:	7141      	strb	r1, [r0, #5]
 8009298:	0219      	lsls	r1, r3, #8
 800929a:	0f0d      	lsrs	r5, r1, #28
 800929c:	7104      	strb	r4, [r0, #4]
 800929e:	002c      	movs	r4, r5
 80092a0:	0029      	movs	r1, r5
 80092a2:	3430      	adds	r4, #48	@ 0x30
 80092a4:	2d09      	cmp	r5, #9
 80092a6:	d86b      	bhi.n	8009380 <USBD_CDC_SerialStrDescriptor+0x12c>
 80092a8:	2100      	movs	r1, #0
 80092aa:	71c1      	strb	r1, [r0, #7]
 80092ac:	0319      	lsls	r1, r3, #12
 80092ae:	0f0d      	lsrs	r5, r1, #28
 80092b0:	7184      	strb	r4, [r0, #6]
 80092b2:	002c      	movs	r4, r5
 80092b4:	0029      	movs	r1, r5
 80092b6:	3430      	adds	r4, #48	@ 0x30
 80092b8:	2d09      	cmp	r5, #9
 80092ba:	d85e      	bhi.n	800937a <USBD_CDC_SerialStrDescriptor+0x126>
 80092bc:	2100      	movs	r1, #0
 80092be:	7241      	strb	r1, [r0, #9]
 80092c0:	0419      	lsls	r1, r3, #16
 80092c2:	0f0d      	lsrs	r5, r1, #28
 80092c4:	7204      	strb	r4, [r0, #8]
 80092c6:	002c      	movs	r4, r5
 80092c8:	0029      	movs	r1, r5
 80092ca:	3430      	adds	r4, #48	@ 0x30
 80092cc:	2d09      	cmp	r5, #9
 80092ce:	d851      	bhi.n	8009374 <USBD_CDC_SerialStrDescriptor+0x120>
 80092d0:	2100      	movs	r1, #0
 80092d2:	72c1      	strb	r1, [r0, #11]
 80092d4:	0519      	lsls	r1, r3, #20
 80092d6:	0f0d      	lsrs	r5, r1, #28
 80092d8:	7284      	strb	r4, [r0, #10]
 80092da:	002c      	movs	r4, r5
 80092dc:	0029      	movs	r1, r5
 80092de:	3430      	adds	r4, #48	@ 0x30
 80092e0:	2d09      	cmp	r5, #9
 80092e2:	d844      	bhi.n	800936e <USBD_CDC_SerialStrDescriptor+0x11a>
 80092e4:	2100      	movs	r1, #0
 80092e6:	7341      	strb	r1, [r0, #13]
 80092e8:	0619      	lsls	r1, r3, #24
 80092ea:	0f0d      	lsrs	r5, r1, #28
 80092ec:	7304      	strb	r4, [r0, #12]
 80092ee:	002c      	movs	r4, r5
 80092f0:	0029      	movs	r1, r5
 80092f2:	3430      	adds	r4, #48	@ 0x30
 80092f4:	2d09      	cmp	r5, #9
 80092f6:	d837      	bhi.n	8009368 <USBD_CDC_SerialStrDescriptor+0x114>
 80092f8:	2100      	movs	r1, #0
 80092fa:	73c1      	strb	r1, [r0, #15]
 80092fc:	310f      	adds	r1, #15
 80092fe:	7384      	strb	r4, [r0, #14]
 8009300:	000c      	movs	r4, r1
 8009302:	401c      	ands	r4, r3
 8009304:	0023      	movs	r3, r4
 8009306:	3337      	adds	r3, #55	@ 0x37
 8009308:	2c09      	cmp	r4, #9
 800930a:	d800      	bhi.n	800930e <USBD_CDC_SerialStrDescriptor+0xba>
 800930c:	3b07      	subs	r3, #7
 800930e:	7403      	strb	r3, [r0, #16]
 8009310:	2300      	movs	r3, #0
 8009312:	7443      	strb	r3, [r0, #17]
 8009314:	0f13      	lsrs	r3, r2, #28
 8009316:	001c      	movs	r4, r3
 8009318:	0019      	movs	r1, r3
 800931a:	3430      	adds	r4, #48	@ 0x30
 800931c:	2b09      	cmp	r3, #9
 800931e:	d838      	bhi.n	8009392 <USBD_CDC_SerialStrDescriptor+0x13e>
 8009320:	2300      	movs	r3, #0
 8009322:	74c3      	strb	r3, [r0, #19]
 8009324:	0113      	lsls	r3, r2, #4
 8009326:	7484      	strb	r4, [r0, #18]
 8009328:	0f1c      	lsrs	r4, r3, #28
 800932a:	0021      	movs	r1, r4
 800932c:	0023      	movs	r3, r4
 800932e:	3130      	adds	r1, #48	@ 0x30
 8009330:	2c09      	cmp	r4, #9
 8009332:	d831      	bhi.n	8009398 <USBD_CDC_SerialStrDescriptor+0x144>
 8009334:	2300      	movs	r3, #0
 8009336:	7543      	strb	r3, [r0, #21]
 8009338:	0213      	lsls	r3, r2, #8
 800933a:	0f1c      	lsrs	r4, r3, #28
 800933c:	7501      	strb	r1, [r0, #20]
 800933e:	0021      	movs	r1, r4
 8009340:	0023      	movs	r3, r4
 8009342:	3130      	adds	r1, #48	@ 0x30
 8009344:	2c09      	cmp	r4, #9
 8009346:	d82a      	bhi.n	800939e <USBD_CDC_SerialStrDescriptor+0x14a>
 8009348:	2300      	movs	r3, #0
 800934a:	75c3      	strb	r3, [r0, #23]
 800934c:	0313      	lsls	r3, r2, #12
 800934e:	7581      	strb	r1, [r0, #22]
 8009350:	0f19      	lsrs	r1, r3, #28
 8009352:	000a      	movs	r2, r1
 8009354:	000b      	movs	r3, r1
 8009356:	3237      	adds	r2, #55	@ 0x37
 8009358:	2909      	cmp	r1, #9
 800935a:	d801      	bhi.n	8009360 <USBD_CDC_SerialStrDescriptor+0x10c>
 800935c:	3330      	adds	r3, #48	@ 0x30
 800935e:	001a      	movs	r2, r3
 8009360:	2300      	movs	r3, #0
 8009362:	7602      	strb	r2, [r0, #24]
 8009364:	7643      	strb	r3, [r0, #25]
 8009366:	e780      	b.n	800926a <USBD_CDC_SerialStrDescriptor+0x16>
 8009368:	3137      	adds	r1, #55	@ 0x37
 800936a:	000c      	movs	r4, r1
 800936c:	e7c4      	b.n	80092f8 <USBD_CDC_SerialStrDescriptor+0xa4>
 800936e:	3137      	adds	r1, #55	@ 0x37
 8009370:	000c      	movs	r4, r1
 8009372:	e7b7      	b.n	80092e4 <USBD_CDC_SerialStrDescriptor+0x90>
 8009374:	3137      	adds	r1, #55	@ 0x37
 8009376:	000c      	movs	r4, r1
 8009378:	e7aa      	b.n	80092d0 <USBD_CDC_SerialStrDescriptor+0x7c>
 800937a:	3137      	adds	r1, #55	@ 0x37
 800937c:	000c      	movs	r4, r1
 800937e:	e79d      	b.n	80092bc <USBD_CDC_SerialStrDescriptor+0x68>
 8009380:	3137      	adds	r1, #55	@ 0x37
 8009382:	000c      	movs	r4, r1
 8009384:	e790      	b.n	80092a8 <USBD_CDC_SerialStrDescriptor+0x54>
 8009386:	3137      	adds	r1, #55	@ 0x37
 8009388:	000c      	movs	r4, r1
 800938a:	e783      	b.n	8009294 <USBD_CDC_SerialStrDescriptor+0x40>
 800938c:	3037      	adds	r0, #55	@ 0x37
 800938e:	0004      	movs	r4, r0
 8009390:	e775      	b.n	800927e <USBD_CDC_SerialStrDescriptor+0x2a>
 8009392:	3137      	adds	r1, #55	@ 0x37
 8009394:	000c      	movs	r4, r1
 8009396:	e7c3      	b.n	8009320 <USBD_CDC_SerialStrDescriptor+0xcc>
 8009398:	3337      	adds	r3, #55	@ 0x37
 800939a:	0019      	movs	r1, r3
 800939c:	e7ca      	b.n	8009334 <USBD_CDC_SerialStrDescriptor+0xe0>
 800939e:	3337      	adds	r3, #55	@ 0x37
 80093a0:	0019      	movs	r1, r3
 80093a2:	e7d1      	b.n	8009348 <USBD_CDC_SerialStrDescriptor+0xf4>
 80093a4:	1fff7598 	.word	0x1fff7598
 80093a8:	1fff7590 	.word	0x1fff7590
 80093ac:	200001e8 	.word	0x200001e8
 80093b0:	1fff7594 	.word	0x1fff7594

080093b4 <HAL_PCD_MspInit>:
 80093b4:	b510      	push	{r4, lr}
 80093b6:	0004      	movs	r4, r0
 80093b8:	b096      	sub	sp, #88	@ 0x58
 80093ba:	224c      	movs	r2, #76	@ 0x4c
 80093bc:	2100      	movs	r1, #0
 80093be:	a803      	add	r0, sp, #12
 80093c0:	f000 f9bc 	bl	800973c <memset>
 80093c4:	4b1d      	ldr	r3, [pc, #116]	@ (800943c <HAL_PCD_MspInit+0x88>)
 80093c6:	6822      	ldr	r2, [r4, #0]
 80093c8:	429a      	cmp	r2, r3
 80093ca:	d001      	beq.n	80093d0 <HAL_PCD_MspInit+0x1c>
 80093cc:	b016      	add	sp, #88	@ 0x58
 80093ce:	bd10      	pop	{r4, pc}
 80093d0:	2380      	movs	r3, #128	@ 0x80
 80093d2:	045b      	lsls	r3, r3, #17
 80093d4:	9303      	str	r3, [sp, #12]
 80093d6:	2380      	movs	r3, #128	@ 0x80
 80093d8:	a803      	add	r0, sp, #12
 80093da:	019b      	lsls	r3, r3, #6
 80093dc:	9314      	str	r3, [sp, #80]	@ 0x50
 80093de:	f7fc fa0d 	bl	80057fc <HAL_RCCEx_PeriphCLKConfig>
 80093e2:	2800      	cmp	r0, #0
 80093e4:	d127      	bne.n	8009436 <HAL_PCD_MspInit+0x82>
 80093e6:	2280      	movs	r2, #128	@ 0x80
 80093e8:	4c15      	ldr	r4, [pc, #84]	@ (8009440 <HAL_PCD_MspInit+0x8c>)
 80093ea:	0192      	lsls	r2, r2, #6
 80093ec:	6be3      	ldr	r3, [r4, #60]	@ 0x3c
 80093ee:	4313      	orrs	r3, r2
 80093f0:	63e3      	str	r3, [r4, #60]	@ 0x3c
 80093f2:	6be3      	ldr	r3, [r4, #60]	@ 0x3c
 80093f4:	4013      	ands	r3, r2
 80093f6:	9301      	str	r3, [sp, #4]
 80093f8:	9b01      	ldr	r3, [sp, #4]
 80093fa:	2380      	movs	r3, #128	@ 0x80
 80093fc:	6be2      	ldr	r2, [r4, #60]	@ 0x3c
 80093fe:	055b      	lsls	r3, r3, #21
 8009400:	421a      	tst	r2, r3
 8009402:	d115      	bne.n	8009430 <HAL_PCD_MspInit+0x7c>
 8009404:	6be2      	ldr	r2, [r4, #60]	@ 0x3c
 8009406:	431a      	orrs	r2, r3
 8009408:	63e2      	str	r2, [r4, #60]	@ 0x3c
 800940a:	6be2      	ldr	r2, [r4, #60]	@ 0x3c
 800940c:	4013      	ands	r3, r2
 800940e:	9302      	str	r3, [sp, #8]
 8009410:	9b02      	ldr	r3, [sp, #8]
 8009412:	f7fb fdef 	bl	8004ff4 <HAL_PWREx_EnableVddUSB>
 8009416:	6be3      	ldr	r3, [r4, #60]	@ 0x3c
 8009418:	4a0a      	ldr	r2, [pc, #40]	@ (8009444 <HAL_PCD_MspInit+0x90>)
 800941a:	4013      	ands	r3, r2
 800941c:	63e3      	str	r3, [r4, #60]	@ 0x3c
 800941e:	2200      	movs	r2, #0
 8009420:	2100      	movs	r1, #0
 8009422:	2008      	movs	r0, #8
 8009424:	f7fa f896 	bl	8003554 <HAL_NVIC_SetPriority>
 8009428:	2008      	movs	r0, #8
 800942a:	f7fa f8bd 	bl	80035a8 <HAL_NVIC_EnableIRQ>
 800942e:	e7cd      	b.n	80093cc <HAL_PCD_MspInit+0x18>
 8009430:	f7fb fde0 	bl	8004ff4 <HAL_PWREx_EnableVddUSB>
 8009434:	e7f3      	b.n	800941e <HAL_PCD_MspInit+0x6a>
 8009436:	f7f9 f987 	bl	8002748 <Error_Handler>
 800943a:	e7d4      	b.n	80093e6 <HAL_PCD_MspInit+0x32>
 800943c:	40005c00 	.word	0x40005c00
 8009440:	40021000 	.word	0x40021000
 8009444:	efffffff 	.word	0xefffffff

08009448 <HAL_PCD_SetupStageCallback>:
 8009448:	23a7      	movs	r3, #167	@ 0xa7
 800944a:	b510      	push	{r4, lr}
 800944c:	009b      	lsls	r3, r3, #2
 800944e:	18c1      	adds	r1, r0, r3
 8009450:	3340      	adds	r3, #64	@ 0x40
 8009452:	58c0      	ldr	r0, [r0, r3]
 8009454:	f7ff f986 	bl	8008764 <USBD_LL_SetupStage>
 8009458:	bd10      	pop	{r4, pc}
 800945a:	46c0      	nop			@ (mov r8, r8)

0800945c <HAL_PCD_DataOutStageCallback>:
 800945c:	008b      	lsls	r3, r1, #2
 800945e:	185b      	adds	r3, r3, r1
 8009460:	00db      	lsls	r3, r3, #3
 8009462:	18c3      	adds	r3, r0, r3
 8009464:	3369      	adds	r3, #105	@ 0x69
 8009466:	33ff      	adds	r3, #255	@ 0xff
 8009468:	681a      	ldr	r2, [r3, #0]
 800946a:	23b7      	movs	r3, #183	@ 0xb7
 800946c:	b510      	push	{r4, lr}
 800946e:	009b      	lsls	r3, r3, #2
 8009470:	58c0      	ldr	r0, [r0, r3]
 8009472:	f7ff f9a7 	bl	80087c4 <USBD_LL_DataOutStage>
 8009476:	bd10      	pop	{r4, pc}

08009478 <HAL_PCD_DataInStageCallback>:
 8009478:	008b      	lsls	r3, r1, #2
 800947a:	185b      	adds	r3, r3, r1
 800947c:	00db      	lsls	r3, r3, #3
 800947e:	18c3      	adds	r3, r0, r3
 8009480:	6a9a      	ldr	r2, [r3, #40]	@ 0x28
 8009482:	23b7      	movs	r3, #183	@ 0xb7
 8009484:	b510      	push	{r4, lr}
 8009486:	009b      	lsls	r3, r3, #2
 8009488:	58c0      	ldr	r0, [r0, r3]
 800948a:	f7ff f9e1 	bl	8008850 <USBD_LL_DataInStage>
 800948e:	bd10      	pop	{r4, pc}

08009490 <HAL_PCD_SOFCallback>:
 8009490:	23b7      	movs	r3, #183	@ 0xb7
 8009492:	b510      	push	{r4, lr}
 8009494:	009b      	lsls	r3, r3, #2
 8009496:	58c0      	ldr	r0, [r0, r3]
 8009498:	f7ff fa92 	bl	80089c0 <USBD_LL_SOF>
 800949c:	bd10      	pop	{r4, pc}
 800949e:	46c0      	nop			@ (mov r8, r8)

080094a0 <HAL_PCD_ResetCallback>:
 80094a0:	b570      	push	{r4, r5, r6, lr}
 80094a2:	79c3      	ldrb	r3, [r0, #7]
 80094a4:	0004      	movs	r4, r0
 80094a6:	2b02      	cmp	r3, #2
 80094a8:	d001      	beq.n	80094ae <HAL_PCD_ResetCallback+0xe>
 80094aa:	f7f9 f94d 	bl	8002748 <Error_Handler>
 80094ae:	25b7      	movs	r5, #183	@ 0xb7
 80094b0:	00ad      	lsls	r5, r5, #2
 80094b2:	2101      	movs	r1, #1
 80094b4:	5960      	ldr	r0, [r4, r5]
 80094b6:	f7ff fa65 	bl	8008984 <USBD_LL_SetSpeed>
 80094ba:	5960      	ldr	r0, [r4, r5]
 80094bc:	f7ff fa2c 	bl	8008918 <USBD_LL_Reset>
 80094c0:	bd70      	pop	{r4, r5, r6, pc}
 80094c2:	46c0      	nop			@ (mov r8, r8)

080094c4 <HAL_PCD_SuspendCallback>:
 80094c4:	23b7      	movs	r3, #183	@ 0xb7
 80094c6:	b510      	push	{r4, lr}
 80094c8:	0004      	movs	r4, r0
 80094ca:	009b      	lsls	r3, r3, #2
 80094cc:	58c0      	ldr	r0, [r0, r3]
 80094ce:	f7ff fa5d 	bl	800898c <USBD_LL_Suspend>
 80094d2:	7ae3      	ldrb	r3, [r4, #11]
 80094d4:	2b00      	cmp	r3, #0
 80094d6:	d004      	beq.n	80094e2 <HAL_PCD_SuspendCallback+0x1e>
 80094d8:	2106      	movs	r1, #6
 80094da:	4a02      	ldr	r2, [pc, #8]	@ (80094e4 <HAL_PCD_SuspendCallback+0x20>)
 80094dc:	6913      	ldr	r3, [r2, #16]
 80094de:	430b      	orrs	r3, r1
 80094e0:	6113      	str	r3, [r2, #16]
 80094e2:	bd10      	pop	{r4, pc}
 80094e4:	e000ed00 	.word	0xe000ed00

080094e8 <HAL_PCD_ResumeCallback>:
 80094e8:	b510      	push	{r4, lr}
 80094ea:	7ac3      	ldrb	r3, [r0, #11]
 80094ec:	0004      	movs	r4, r0
 80094ee:	2b00      	cmp	r3, #0
 80094f0:	d105      	bne.n	80094fe <HAL_PCD_ResumeCallback+0x16>
 80094f2:	23b7      	movs	r3, #183	@ 0xb7
 80094f4:	009b      	lsls	r3, r3, #2
 80094f6:	58e0      	ldr	r0, [r4, r3]
 80094f8:	f7ff fa54 	bl	80089a4 <USBD_LL_Resume>
 80094fc:	bd10      	pop	{r4, pc}
 80094fe:	2106      	movs	r1, #6
 8009500:	4a03      	ldr	r2, [pc, #12]	@ (8009510 <HAL_PCD_ResumeCallback+0x28>)
 8009502:	6913      	ldr	r3, [r2, #16]
 8009504:	438b      	bics	r3, r1
 8009506:	6113      	str	r3, [r2, #16]
 8009508:	f7f8 fec4 	bl	8002294 <SystemClock_Config>
 800950c:	e7f1      	b.n	80094f2 <HAL_PCD_ResumeCallback+0xa>
 800950e:	46c0      	nop			@ (mov r8, r8)
 8009510:	e000ed00 	.word	0xe000ed00

08009514 <USBD_LL_Init>:
 8009514:	23b7      	movs	r3, #183	@ 0xb7
 8009516:	b570      	push	{r4, r5, r6, lr}
 8009518:	0004      	movs	r4, r0
 800951a:	481d      	ldr	r0, [pc, #116]	@ (8009590 <USBD_LL_Init+0x7c>)
 800951c:	009b      	lsls	r3, r3, #2
 800951e:	50c4      	str	r4, [r0, r3]
 8009520:	3b14      	subs	r3, #20
 8009522:	50e0      	str	r0, [r4, r3]
 8009524:	4b1b      	ldr	r3, [pc, #108]	@ (8009594 <USBD_LL_Init+0x80>)
 8009526:	6003      	str	r3, [r0, #0]
 8009528:	4b1b      	ldr	r3, [pc, #108]	@ (8009598 <USBD_LL_Init+0x84>)
 800952a:	8083      	strh	r3, [r0, #4]
 800952c:	2302      	movs	r3, #2
 800952e:	71c3      	strb	r3, [r0, #7]
 8009530:	7243      	strb	r3, [r0, #9]
 8009532:	2300      	movs	r3, #0
 8009534:	8143      	strh	r3, [r0, #10]
 8009536:	60c3      	str	r3, [r0, #12]
 8009538:	7403      	strb	r3, [r0, #16]
 800953a:	f7fa fd4b 	bl	8003fd4 <HAL_PCD_Init>
 800953e:	2800      	cmp	r0, #0
 8009540:	d123      	bne.n	800958a <USBD_LL_Init+0x76>
 8009542:	25b2      	movs	r5, #178	@ 0xb2
 8009544:	00ad      	lsls	r5, r5, #2
 8009546:	5960      	ldr	r0, [r4, r5]
 8009548:	2318      	movs	r3, #24
 800954a:	2200      	movs	r2, #0
 800954c:	2100      	movs	r1, #0
 800954e:	f7fb fd21 	bl	8004f94 <HAL_PCDEx_PMAConfig>
 8009552:	5960      	ldr	r0, [r4, r5]
 8009554:	2358      	movs	r3, #88	@ 0x58
 8009556:	2200      	movs	r2, #0
 8009558:	2180      	movs	r1, #128	@ 0x80
 800955a:	f7fb fd1b 	bl	8004f94 <HAL_PCDEx_PMAConfig>
 800955e:	5960      	ldr	r0, [r4, r5]
 8009560:	23c0      	movs	r3, #192	@ 0xc0
 8009562:	2200      	movs	r2, #0
 8009564:	2181      	movs	r1, #129	@ 0x81
 8009566:	f7fb fd15 	bl	8004f94 <HAL_PCDEx_PMAConfig>
 800956a:	2388      	movs	r3, #136	@ 0x88
 800956c:	5960      	ldr	r0, [r4, r5]
 800956e:	2200      	movs	r2, #0
 8009570:	2101      	movs	r1, #1
 8009572:	005b      	lsls	r3, r3, #1
 8009574:	f7fb fd0e 	bl	8004f94 <HAL_PCDEx_PMAConfig>
 8009578:	2380      	movs	r3, #128	@ 0x80
 800957a:	5960      	ldr	r0, [r4, r5]
 800957c:	2200      	movs	r2, #0
 800957e:	2182      	movs	r1, #130	@ 0x82
 8009580:	005b      	lsls	r3, r3, #1
 8009582:	f7fb fd07 	bl	8004f94 <HAL_PCDEx_PMAConfig>
 8009586:	2000      	movs	r0, #0
 8009588:	bd70      	pop	{r4, r5, r6, pc}
 800958a:	f7f9 f8dd 	bl	8002748 <Error_Handler>
 800958e:	e7d8      	b.n	8009542 <USBD_LL_Init+0x2e>
 8009590:	2000210c 	.word	0x2000210c
 8009594:	40005c00 	.word	0x40005c00
 8009598:	00000808 	.word	0x00000808

0800959c <USBD_LL_Start>:
 800959c:	23b2      	movs	r3, #178	@ 0xb2
 800959e:	009b      	lsls	r3, r3, #2
 80095a0:	b510      	push	{r4, lr}
 80095a2:	58c0      	ldr	r0, [r0, r3]
 80095a4:	f7fa fe28 	bl	80041f8 <HAL_PCD_Start>
 80095a8:	2800      	cmp	r0, #0
 80095aa:	d006      	beq.n	80095ba <USBD_LL_Start+0x1e>
 80095ac:	3802      	subs	r0, #2
 80095ae:	4243      	negs	r3, r0
 80095b0:	4158      	adcs	r0, r3
 80095b2:	2301      	movs	r3, #1
 80095b4:	4240      	negs	r0, r0
 80095b6:	4398      	bics	r0, r3
 80095b8:	3003      	adds	r0, #3
 80095ba:	bd10      	pop	{r4, pc}

080095bc <USBD_LL_OpenEP>:
 80095bc:	b510      	push	{r4, lr}
 80095be:	0014      	movs	r4, r2
 80095c0:	001a      	movs	r2, r3
 80095c2:	23b2      	movs	r3, #178	@ 0xb2
 80095c4:	009b      	lsls	r3, r3, #2
 80095c6:	58c0      	ldr	r0, [r0, r3]
 80095c8:	0023      	movs	r3, r4
 80095ca:	f7fb fbc9 	bl	8004d60 <HAL_PCD_EP_Open>
 80095ce:	2800      	cmp	r0, #0
 80095d0:	d006      	beq.n	80095e0 <USBD_LL_OpenEP+0x24>
 80095d2:	3802      	subs	r0, #2
 80095d4:	4243      	negs	r3, r0
 80095d6:	4158      	adcs	r0, r3
 80095d8:	2301      	movs	r3, #1
 80095da:	4240      	negs	r0, r0
 80095dc:	4398      	bics	r0, r3
 80095de:	3003      	adds	r0, #3
 80095e0:	bd10      	pop	{r4, pc}
 80095e2:	46c0      	nop			@ (mov r8, r8)

080095e4 <USBD_LL_CloseEP>:
 80095e4:	23b2      	movs	r3, #178	@ 0xb2
 80095e6:	009b      	lsls	r3, r3, #2
 80095e8:	b510      	push	{r4, lr}
 80095ea:	58c0      	ldr	r0, [r0, r3]
 80095ec:	f7fb fbea 	bl	8004dc4 <HAL_PCD_EP_Close>
 80095f0:	2800      	cmp	r0, #0
 80095f2:	d006      	beq.n	8009602 <USBD_LL_CloseEP+0x1e>
 80095f4:	3802      	subs	r0, #2
 80095f6:	4243      	negs	r3, r0
 80095f8:	4158      	adcs	r0, r3
 80095fa:	2301      	movs	r3, #1
 80095fc:	4240      	negs	r0, r0
 80095fe:	4398      	bics	r0, r3
 8009600:	3003      	adds	r0, #3
 8009602:	bd10      	pop	{r4, pc}

08009604 <USBD_LL_StallEP>:
 8009604:	23b2      	movs	r3, #178	@ 0xb2
 8009606:	009b      	lsls	r3, r3, #2
 8009608:	b510      	push	{r4, lr}
 800960a:	58c0      	ldr	r0, [r0, r3]
 800960c:	f7fb fc4c 	bl	8004ea8 <HAL_PCD_EP_SetStall>
 8009610:	2800      	cmp	r0, #0
 8009612:	d006      	beq.n	8009622 <USBD_LL_StallEP+0x1e>
 8009614:	3802      	subs	r0, #2
 8009616:	4243      	negs	r3, r0
 8009618:	4158      	adcs	r0, r3
 800961a:	2301      	movs	r3, #1
 800961c:	4240      	negs	r0, r0
 800961e:	4398      	bics	r0, r3
 8009620:	3003      	adds	r0, #3
 8009622:	bd10      	pop	{r4, pc}

08009624 <USBD_LL_ClearStallEP>:
 8009624:	23b2      	movs	r3, #178	@ 0xb2
 8009626:	009b      	lsls	r3, r3, #2
 8009628:	b510      	push	{r4, lr}
 800962a:	58c0      	ldr	r0, [r0, r3]
 800962c:	f7fb fc78 	bl	8004f20 <HAL_PCD_EP_ClrStall>
 8009630:	2800      	cmp	r0, #0
 8009632:	d006      	beq.n	8009642 <USBD_LL_ClearStallEP+0x1e>
 8009634:	3802      	subs	r0, #2
 8009636:	4243      	negs	r3, r0
 8009638:	4158      	adcs	r0, r3
 800963a:	2301      	movs	r3, #1
 800963c:	4240      	negs	r0, r0
 800963e:	4398      	bics	r0, r3
 8009640:	3003      	adds	r0, #3
 8009642:	bd10      	pop	{r4, pc}

08009644 <USBD_LL_IsStallEP>:
 8009644:	23b2      	movs	r3, #178	@ 0xb2
 8009646:	b24a      	sxtb	r2, r1
 8009648:	009b      	lsls	r3, r3, #2
 800964a:	58c3      	ldr	r3, [r0, r3]
 800964c:	2a00      	cmp	r2, #0
 800964e:	db07      	blt.n	8009660 <USBD_LL_IsStallEP+0x1c>
 8009650:	008a      	lsls	r2, r1, #2
 8009652:	1852      	adds	r2, r2, r1
 8009654:	00d2      	lsls	r2, r2, #3
 8009656:	189b      	adds	r3, r3, r2
 8009658:	3357      	adds	r3, #87	@ 0x57
 800965a:	33ff      	adds	r3, #255	@ 0xff
 800965c:	7818      	ldrb	r0, [r3, #0]
 800965e:	4770      	bx	lr
 8009660:	227f      	movs	r2, #127	@ 0x7f
 8009662:	4011      	ands	r1, r2
 8009664:	008a      	lsls	r2, r1, #2
 8009666:	1852      	adds	r2, r2, r1
 8009668:	00d2      	lsls	r2, r2, #3
 800966a:	189b      	adds	r3, r3, r2
 800966c:	7d98      	ldrb	r0, [r3, #22]
 800966e:	e7f6      	b.n	800965e <USBD_LL_IsStallEP+0x1a>

08009670 <USBD_LL_SetUSBAddress>:
 8009670:	23b2      	movs	r3, #178	@ 0xb2
 8009672:	009b      	lsls	r3, r3, #2
 8009674:	b510      	push	{r4, lr}
 8009676:	58c0      	ldr	r0, [r0, r3]
 8009678:	f7fb fb5e 	bl	8004d38 <HAL_PCD_SetAddress>
 800967c:	2800      	cmp	r0, #0
 800967e:	d006      	beq.n	800968e <USBD_LL_SetUSBAddress+0x1e>
 8009680:	3802      	subs	r0, #2
 8009682:	4243      	negs	r3, r0
 8009684:	4158      	adcs	r0, r3
 8009686:	2301      	movs	r3, #1
 8009688:	4240      	negs	r0, r0
 800968a:	4398      	bics	r0, r3
 800968c:	3003      	adds	r0, #3
 800968e:	bd10      	pop	{r4, pc}

08009690 <USBD_LL_Transmit>:
 8009690:	b510      	push	{r4, lr}
 8009692:	24b2      	movs	r4, #178	@ 0xb2
 8009694:	00a4      	lsls	r4, r4, #2
 8009696:	5900      	ldr	r0, [r0, r4]
 8009698:	f7fb fbec 	bl	8004e74 <HAL_PCD_EP_Transmit>
 800969c:	2800      	cmp	r0, #0
 800969e:	d006      	beq.n	80096ae <USBD_LL_Transmit+0x1e>
 80096a0:	3802      	subs	r0, #2
 80096a2:	4243      	negs	r3, r0
 80096a4:	4158      	adcs	r0, r3
 80096a6:	2301      	movs	r3, #1
 80096a8:	4240      	negs	r0, r0
 80096aa:	4398      	bics	r0, r3
 80096ac:	3003      	adds	r0, #3
 80096ae:	bd10      	pop	{r4, pc}

080096b0 <USBD_LL_PrepareReceive>:
 80096b0:	b510      	push	{r4, lr}
 80096b2:	24b2      	movs	r4, #178	@ 0xb2
 80096b4:	00a4      	lsls	r4, r4, #2
 80096b6:	5900      	ldr	r0, [r0, r4]
 80096b8:	f7fb fbb4 	bl	8004e24 <HAL_PCD_EP_Receive>
 80096bc:	2800      	cmp	r0, #0
 80096be:	d006      	beq.n	80096ce <USBD_LL_PrepareReceive+0x1e>
 80096c0:	3802      	subs	r0, #2
 80096c2:	4243      	negs	r3, r0
 80096c4:	4158      	adcs	r0, r3
 80096c6:	2301      	movs	r3, #1
 80096c8:	4240      	negs	r0, r0
 80096ca:	4398      	bics	r0, r3
 80096cc:	3003      	adds	r0, #3
 80096ce:	bd10      	pop	{r4, pc}

080096d0 <USBD_LL_GetRxDataSize>:
 80096d0:	23b2      	movs	r3, #178	@ 0xb2
 80096d2:	b510      	push	{r4, lr}
 80096d4:	009b      	lsls	r3, r3, #2
 80096d6:	58c0      	ldr	r0, [r0, r3]
 80096d8:	f7fb fbc2 	bl	8004e60 <HAL_PCD_EP_GetRxCount>
 80096dc:	bd10      	pop	{r4, pc}
 80096de:	46c0      	nop			@ (mov r8, r8)

080096e0 <HAL_PCDEx_LPM_Callback>:
 80096e0:	b510      	push	{r4, lr}
 80096e2:	0004      	movs	r4, r0
 80096e4:	2900      	cmp	r1, #0
 80096e6:	d010      	beq.n	800970a <HAL_PCDEx_LPM_Callback+0x2a>
 80096e8:	2901      	cmp	r1, #1
 80096ea:	d000      	beq.n	80096ee <HAL_PCDEx_LPM_Callback+0xe>
 80096ec:	bd10      	pop	{r4, pc}
 80096ee:	23b7      	movs	r3, #183	@ 0xb7
 80096f0:	009b      	lsls	r3, r3, #2
 80096f2:	58c0      	ldr	r0, [r0, r3]
 80096f4:	f7ff f94a 	bl	800898c <USBD_LL_Suspend>
 80096f8:	7ae3      	ldrb	r3, [r4, #11]
 80096fa:	2b00      	cmp	r3, #0
 80096fc:	d0f6      	beq.n	80096ec <HAL_PCDEx_LPM_Callback+0xc>
 80096fe:	2106      	movs	r1, #6
 8009700:	4a0a      	ldr	r2, [pc, #40]	@ (800972c <HAL_PCDEx_LPM_Callback+0x4c>)
 8009702:	6913      	ldr	r3, [r2, #16]
 8009704:	430b      	orrs	r3, r1
 8009706:	6113      	str	r3, [r2, #16]
 8009708:	e7f0      	b.n	80096ec <HAL_PCDEx_LPM_Callback+0xc>
 800970a:	7ac3      	ldrb	r3, [r0, #11]
 800970c:	2b00      	cmp	r3, #0
 800970e:	d105      	bne.n	800971c <HAL_PCDEx_LPM_Callback+0x3c>
 8009710:	23b7      	movs	r3, #183	@ 0xb7
 8009712:	009b      	lsls	r3, r3, #2
 8009714:	58e0      	ldr	r0, [r4, r3]
 8009716:	f7ff f945 	bl	80089a4 <USBD_LL_Resume>
 800971a:	e7e7      	b.n	80096ec <HAL_PCDEx_LPM_Callback+0xc>
 800971c:	f7f8 fdba 	bl	8002294 <SystemClock_Config>
 8009720:	2106      	movs	r1, #6
 8009722:	4a02      	ldr	r2, [pc, #8]	@ (800972c <HAL_PCDEx_LPM_Callback+0x4c>)
 8009724:	6913      	ldr	r3, [r2, #16]
 8009726:	438b      	bics	r3, r1
 8009728:	6113      	str	r3, [r2, #16]
 800972a:	e7f1      	b.n	8009710 <HAL_PCDEx_LPM_Callback+0x30>
 800972c:	e000ed00 	.word	0xe000ed00

08009730 <USBD_static_malloc>:
 8009730:	4800      	ldr	r0, [pc, #0]	@ (8009734 <USBD_static_malloc+0x4>)
 8009732:	4770      	bx	lr
 8009734:	20001eec 	.word	0x20001eec

08009738 <USBD_static_free>:
 8009738:	4770      	bx	lr
 800973a:	46c0      	nop			@ (mov r8, r8)

0800973c <memset>:
 800973c:	0003      	movs	r3, r0
 800973e:	1882      	adds	r2, r0, r2
 8009740:	4293      	cmp	r3, r2
 8009742:	d100      	bne.n	8009746 <memset+0xa>
 8009744:	4770      	bx	lr
 8009746:	7019      	strb	r1, [r3, #0]
 8009748:	3301      	adds	r3, #1
 800974a:	e7f9      	b.n	8009740 <memset+0x4>

0800974c <__libc_init_array>:
 800974c:	b570      	push	{r4, r5, r6, lr}
 800974e:	2600      	movs	r6, #0
 8009750:	4c0c      	ldr	r4, [pc, #48]	@ (8009784 <__libc_init_array+0x38>)
 8009752:	4d0d      	ldr	r5, [pc, #52]	@ (8009788 <__libc_init_array+0x3c>)
 8009754:	1b64      	subs	r4, r4, r5
 8009756:	10a4      	asrs	r4, r4, #2
 8009758:	42a6      	cmp	r6, r4
 800975a:	d109      	bne.n	8009770 <__libc_init_array+0x24>
 800975c:	2600      	movs	r6, #0
 800975e:	f000 f823 	bl	80097a8 <_init>
 8009762:	4c0a      	ldr	r4, [pc, #40]	@ (800978c <__libc_init_array+0x40>)
 8009764:	4d0a      	ldr	r5, [pc, #40]	@ (8009790 <__libc_init_array+0x44>)
 8009766:	1b64      	subs	r4, r4, r5
 8009768:	10a4      	asrs	r4, r4, #2
 800976a:	42a6      	cmp	r6, r4
 800976c:	d105      	bne.n	800977a <__libc_init_array+0x2e>
 800976e:	bd70      	pop	{r4, r5, r6, pc}
 8009770:	00b3      	lsls	r3, r6, #2
 8009772:	58eb      	ldr	r3, [r5, r3]
 8009774:	4798      	blx	r3
 8009776:	3601      	adds	r6, #1
 8009778:	e7ee      	b.n	8009758 <__libc_init_array+0xc>
 800977a:	00b3      	lsls	r3, r6, #2
 800977c:	58eb      	ldr	r3, [r5, r3]
 800977e:	4798      	blx	r3
 8009780:	3601      	adds	r6, #1
 8009782:	e7f2      	b.n	800976a <__libc_init_array+0x1e>
 8009784:	08009948 	.word	0x08009948
 8009788:	08009948 	.word	0x08009948
 800978c:	0800994c 	.word	0x0800994c
 8009790:	08009948 	.word	0x08009948

08009794 <memcpy>:
 8009794:	2300      	movs	r3, #0
 8009796:	b510      	push	{r4, lr}
 8009798:	429a      	cmp	r2, r3
 800979a:	d100      	bne.n	800979e <memcpy+0xa>
 800979c:	bd10      	pop	{r4, pc}
 800979e:	5ccc      	ldrb	r4, [r1, r3]
 80097a0:	54c4      	strb	r4, [r0, r3]
 80097a2:	3301      	adds	r3, #1
 80097a4:	e7f8      	b.n	8009798 <memcpy+0x4>
	...

080097a8 <_init>:
 80097a8:	b5f8      	push	{r3, r4, r5, r6, r7, lr}
 80097aa:	46c0      	nop			@ (mov r8, r8)
 80097ac:	bcf8      	pop	{r3, r4, r5, r6, r7}
 80097ae:	bc08      	pop	{r3}
 80097b0:	469e      	mov	lr, r3
 80097b2:	4770      	bx	lr

080097b4 <_fini>:
 80097b4:	b5f8      	push	{r3, r4, r5, r6, r7, lr}
 80097b6:	46c0      	nop			@ (mov r8, r8)
 80097b8:	bcf8      	pop	{r3, r4, r5, r6, r7}
 80097ba:	bc08      	pop	{r3}
 80097bc:	469e      	mov	lr, r3
 80097be:	4770      	bx	lr
